
GTJ-1000F.elf:     file format elf32-avr

Sections:
Idx Name          Size      VMA       LMA       File off  Algn
  0 .data         000007a0  00800200  000081ea  0000827e  2**0
                  CONTENTS, ALLOC, LOAD, DATA
  1 .text         000081ea  00000000  00000000  00000094  2**1
                  CONTENTS, ALLOC, LOAD, READONLY, CODE
  2 .bss          000015a1  008009a0  008009a0  00008a1e  2**0
                  ALLOC
  3 .noinit       00000001  00801f41  00801f41  00008a1e  2**0
                  ALLOC
  4 .debug_aranges 00000328  00000000  00000000  00008a1e  2**0
                  CONTENTS, READONLY, DEBUGGING
  5 .debug_pubnames 00001552  00000000  00000000  00008d46  2**0
                  CONTENTS, READONLY, DEBUGGING
  6 .debug_info   00007e74  00000000  00000000  0000a298  2**0
                  CONTENTS, READONLY, DEBUGGING
  7 .debug_abbrev 000021b5  00000000  00000000  0001210c  2**0
                  CONTENTS, READONLY, DEBUGGING
  8 .debug_line   00005c15  00000000  00000000  000142c1  2**0
                  CONTENTS, READONLY, DEBUGGING
  9 .debug_frame  00000a30  00000000  00000000  00019ed8  2**2
                  CONTENTS, READONLY, DEBUGGING
 10 .debug_str    00003cc9  00000000  00000000  0001a908  2**0
                  CONTENTS, READONLY, DEBUGGING
 11 .debug_loc    00001883  00000000  00000000  0001e5d1  2**0
                  CONTENTS, READONLY, DEBUGGING
 12 .debug_ranges 00000070  00000000  00000000  0001fe54  2**0
                  CONTENTS, READONLY, DEBUGGING

Disassembly of section .text:

00000000 <__vectors>:
       0:	0c 94 1d 0b 	jmp	0x163a	; 0x163a <__ctors_end>
       4:	0c 94 4a 0b 	jmp	0x1694	; 0x1694 <__bad_interrupt>
       8:	0c 94 4a 0b 	jmp	0x1694	; 0x1694 <__bad_interrupt>
       c:	0c 94 4a 0b 	jmp	0x1694	; 0x1694 <__bad_interrupt>
      10:	0c 94 4a 0b 	jmp	0x1694	; 0x1694 <__bad_interrupt>
      14:	0c 94 4a 0b 	jmp	0x1694	; 0x1694 <__bad_interrupt>
      18:	0c 94 4a 0b 	jmp	0x1694	; 0x1694 <__bad_interrupt>
      1c:	0c 94 4a 0b 	jmp	0x1694	; 0x1694 <__bad_interrupt>
      20:	0c 94 4a 0b 	jmp	0x1694	; 0x1694 <__bad_interrupt>
      24:	0c 94 e8 2b 	jmp	0x57d0	; 0x57d0 <__vector_9>
      28:	0c 94 4a 0b 	jmp	0x1694	; 0x1694 <__bad_interrupt>
      2c:	0c 94 4a 0b 	jmp	0x1694	; 0x1694 <__bad_interrupt>
      30:	0c 94 4a 0b 	jmp	0x1694	; 0x1694 <__bad_interrupt>
      34:	0c 94 4a 0b 	jmp	0x1694	; 0x1694 <__bad_interrupt>
      38:	0c 94 4a 0b 	jmp	0x1694	; 0x1694 <__bad_interrupt>
      3c:	0c 94 4a 0b 	jmp	0x1694	; 0x1694 <__bad_interrupt>
      40:	0c 94 4a 0b 	jmp	0x1694	; 0x1694 <__bad_interrupt>
      44:	0c 94 4a 0b 	jmp	0x1694	; 0x1694 <__bad_interrupt>
      48:	0c 94 4a 0b 	jmp	0x1694	; 0x1694 <__bad_interrupt>
      4c:	0c 94 4a 0b 	jmp	0x1694	; 0x1694 <__bad_interrupt>
      50:	0c 94 68 2c 	jmp	0x58d0	; 0x58d0 <__vector_20>
      54:	0c 94 4a 0b 	jmp	0x1694	; 0x1694 <__bad_interrupt>
      58:	0c 94 4a 0b 	jmp	0x1694	; 0x1694 <__bad_interrupt>
      5c:	0c 94 4a 0b 	jmp	0x1694	; 0x1694 <__bad_interrupt>
      60:	0c 94 4a 0b 	jmp	0x1694	; 0x1694 <__bad_interrupt>
      64:	0c 94 f5 2e 	jmp	0x5dea	; 0x5dea <__vector_25>
      68:	0c 94 4a 0b 	jmp	0x1694	; 0x1694 <__bad_interrupt>
      6c:	0c 94 4a 0b 	jmp	0x1694	; 0x1694 <__bad_interrupt>
      70:	0c 94 4a 0b 	jmp	0x1694	; 0x1694 <__bad_interrupt>
      74:	0c 94 7c 0b 	jmp	0x16f8	; 0x16f8 <__vector_29>
      78:	0c 94 4a 0b 	jmp	0x1694	; 0x1694 <__bad_interrupt>
      7c:	0c 94 4a 0b 	jmp	0x1694	; 0x1694 <__bad_interrupt>
      80:	0c 94 4a 0b 	jmp	0x1694	; 0x1694 <__bad_interrupt>
      84:	0c 94 4a 0b 	jmp	0x1694	; 0x1694 <__bad_interrupt>
      88:	0c 94 4a 0b 	jmp	0x1694	; 0x1694 <__bad_interrupt>
      8c:	0c 94 7f 2c 	jmp	0x58fe	; 0x58fe <__vector_35>
      90:	0c 94 1b 2f 	jmp	0x5e36	; 0x5e36 <__vector_36>
      94:	0c 94 4a 0b 	jmp	0x1694	; 0x1694 <__bad_interrupt>
      98:	0c 94 4b 2f 	jmp	0x5e96	; 0x5e96 <__vector_38>
      9c:	0c 94 4a 0b 	jmp	0x1694	; 0x1694 <__bad_interrupt>
      a0:	0c 94 4a 0b 	jmp	0x1694	; 0x1694 <__bad_interrupt>
      a4:	0c 94 4a 0b 	jmp	0x1694	; 0x1694 <__bad_interrupt>
      a8:	0c 94 4a 0b 	jmp	0x1694	; 0x1694 <__bad_interrupt>
      ac:	0c 94 4a 0b 	jmp	0x1694	; 0x1694 <__bad_interrupt>
      b0:	0c 94 4a 0b 	jmp	0x1694	; 0x1694 <__bad_interrupt>
      b4:	0c 94 4a 0b 	jmp	0x1694	; 0x1694 <__bad_interrupt>
      b8:	0c 94 4a 0b 	jmp	0x1694	; 0x1694 <__bad_interrupt>
      bc:	0c 94 4a 0b 	jmp	0x1694	; 0x1694 <__bad_interrupt>
      c0:	0c 94 4a 0b 	jmp	0x1694	; 0x1694 <__bad_interrupt>
      c4:	0c 94 4a 0b 	jmp	0x1694	; 0x1694 <__bad_interrupt>
      c8:	0c 94 4a 0b 	jmp	0x1694	; 0x1694 <__bad_interrupt>
      cc:	0c 94 7b 2f 	jmp	0x5ef6	; 0x5ef6 <__vector_51>
      d0:	0c 94 4a 0b 	jmp	0x1694	; 0x1694 <__bad_interrupt>
      d4:	0c 94 c2 2f 	jmp	0x5f84	; 0x5f84 <__vector_53>
      d8:	0c 94 4a 0b 	jmp	0x1694	; 0x1694 <__bad_interrupt>
      dc:	0c 94 4a 0b 	jmp	0x1694	; 0x1694 <__bad_interrupt>
      e0:	0c 94 4a 0b 	jmp	0x1694	; 0x1694 <__bad_interrupt>

000000e4 <Temp_Table>:
      e4:	00 00 fa 42 00 00 fa 42 00 00 fa 42 00 00 fa 42     ...B...B...B...B
      f4:	00 00 fa 42 00 00 fa 42 00 00 fa 42 00 00 fa 42     ...B...B...B...B
     104:	00 00 fa 42 00 00 fa 42 00 00 fa 42 00 00 fa 42     ...B...B...B...B
     114:	00 00 fa 42 00 00 fa 42 00 00 fa 42 00 00 fa 42     ...B...B...B...B
     124:	00 00 fa 42 00 00 fa 42 00 00 fa 42 00 00 fa 42     ...B...B...B...B
     134:	00 00 fa 42 00 00 fa 42 00 00 fa 42 00 00 fa 42     ...B...B...B...B
     144:	00 00 fa 42 00 00 fa 42 00 00 fa 42 00 00 fa 42     ...B...B...B...B
     154:	00 00 fa 42 00 00 fa 42 00 00 fa 42 00 00 fa 42     ...B...B...B...B
     164:	00 00 fa 42 00 00 fa 42 00 00 fa 42 00 00 fa 42     ...B...B...B...B
     174:	9a 99 f8 42 66 66 f6 42 33 33 f4 42 00 00 f2 42     ...Bff.B33.B...B
     184:	00 00 f0 42 00 00 ee 42 33 33 ec 42 66 66 ea 42     ...B...B33.Bff.B
     194:	66 66 e8 42 9a 99 e6 42 00 00 e5 42 66 66 e3 42     ff.B...B...Bff.B
     1a4:	cd cc e1 42 33 33 e0 42 9a 99 de 42 00 00 dd 42     ...B33.B...B...B
     1b4:	66 66 db 42 00 00 db 42 9a 99 d8 42 33 33 d7 42     ff.B...B...B33.B
     1c4:	cd cc d5 42 66 66 d4 42 00 00 d3 42 9a 99 d1 42     ...Bff.B...B...B
     1d4:	66 66 d0 42 33 33 cf 42 00 00 ce 42 cd cc cc 42     ff.B33.B...B...B
     1e4:	9a 99 cb 42 66 66 ca 42 33 33 c9 42 00 00 c8 42     ...Bff.B33.B...B
     1f4:	00 00 c7 42 00 00 c6 42 cd cc c4 42 00 00 c4 42     ...B...B...B...B
     204:	00 00 c3 42 00 00 c2 42 cd cc c0 42 cd cc bf 42     ...B...B...B...B
     214:	cd cc be 42 cd cc bd 42 00 00 bd 42 00 00 bc 42     ...B...B...B...B
     224:	00 00 bb 42 33 33 ba 42 66 66 b9 42 9a 99 b8 42     ...B33.Bff.B...B
     234:	9a 99 b7 42 9a 99 b6 42 cd cc b5 42 00 00 b5 42     ...B...B...B...B
     244:	33 33 b4 42 66 66 b3 42 9a 99 b2 42 cd cc b1 42     33.Bff.B...B...B
     254:	00 00 b1 42 33 33 b0 42 66 66 af 42 9a 99 ae 42     ...B33.Bff.B...B
     264:	00 00 ae 42 66 66 ad 42 9a 99 ac 42 cd cc ab 42     ...Bff.B...B...B
     274:	00 00 ab 42 33 33 aa 42 00 00 a9 42 cd cc a8 42     ...B33.B...B...B
     284:	33 33 a8 42 9a 99 a7 42 00 00 a7 42 33 33 a6 42     33.B...B...B33.B
     294:	9a 99 a5 42 00 00 a5 42 33 33 a4 42 9a 99 a3 42     ...B...B33.B...B
     2a4:	00 00 a3 42 66 66 a2 42 cd cc a1 42 00 00 a1 42     ...Bff.B...B...B
     2b4:	66 66 a0 42 cd cc 9f 42 33 33 9f 42 9a 99 9e 42     ff.B...B33.B...B
     2c4:	00 00 9e 42 9a 99 9d 42 00 00 9d 42 66 66 9c 42     ...B...B...Bff.B
     2d4:	cd cc 9b 42 33 33 9b 42 cd cc 9a 42 33 33 9a 42     ...B33.B...B33.B
     2e4:	9a 99 99 42 00 00 99 42 66 66 98 42 cd cc 97 42     ...B...Bff.B...B
     2f4:	33 33 97 42 cd cc 96 42 33 33 96 42 9a 99 95 42     33.B...B33.B...B
     304:	33 33 95 42 cd cc 94 42 33 33 94 42 9a 99 93 42     33.B...B33.B...B
     314:	33 33 93 42 cd cc 92 42 66 66 92 42 cd cc 91 42     33.B...Bff.B...B
     324:	33 33 91 42 cd cc 90 42 66 66 90 42 00 00 90 42     33.B...Bff.B...B
     334:	66 66 8f 42 cd cc 8e 42 66 66 8e 42 00 00 8e 42     ff.B...Bff.B...B
     344:	66 66 8d 42 cd cc 8c 42 66 66 8c 42 00 00 8c 42     ff.B...Bff.B...B
     354:	9a 99 8b 42 33 33 8b 42 cd cc 8a 42 66 66 8a 42     ...B33.B...Bff.B
     364:	00 00 8a 42 9a 99 89 42 33 33 89 42 cd cc 88 42     ...B...B33.B...B
     374:	66 66 88 42 00 00 88 42 66 66 87 42 cd cc 86 42     ff.B...Bff.B...B
     384:	66 66 86 42 00 00 86 42 9a 99 85 42 33 33 85 42     ff.B...B...B33.B
     394:	cd cc 84 42 66 66 84 42 00 00 84 42 9a 99 83 42     ...Bff.B...B...B
     3a4:	33 33 83 42 cd cc 82 42 66 66 82 42 00 00 82 42     33.B...Bff.B...B
     3b4:	9a 99 81 42 33 33 81 42 cd cc 80 42 66 66 80 42     ...B33.B...Bff.B
     3c4:	00 00 80 42 9a 99 7f 42 33 33 7f 42 66 66 7e 42     ...B...B33.Bff~B
     3d4:	9a 99 7d 42 cd cc 7c 42 00 00 7c 42 33 33 7b 42     ..}B..|B..|B33{B
     3e4:	00 00 7c 42 9a 99 79 42 cd cc 78 42 00 00 78 42     ..|B..yB..xB..xB
     3f4:	9a 99 77 42 33 33 77 42 66 66 76 42 9a 99 75 42     ..wB33wBffvB..uB
     404:	cd cc 74 42 00 00 74 42 33 33 73 42 66 66 72 42     ..tB..tB33sBffrB
     414:	9a 99 71 42 cd cc 70 42 00 00 70 42 33 33 6f 42     ..qB..pB..pB33oB
     424:	cd cc 6e 42 66 66 6e 42 9a 99 6d 42 cd cc 6c 42     ..nBffnB..mB..lB
     434:	66 66 6c 42 00 00 6c 42 33 33 6b 42 66 66 6a 42     fflB..lB33kBffjB
     444:	00 00 6a 42 00 00 6a 42 cd cc 68 42 00 00 68 42     ..jB..jB..hB..hB
     454:	33 33 67 42 66 66 66 42 00 00 66 42 9a 99 65 42     33gBfffB..fB..eB
     464:	cd cc 64 42 00 00 64 42 33 33 63 42 cd cc 62 42     ..dB..dB33cB..bB
     474:	66 66 62 42 9a 99 61 42 cd cc 60 42 00 00 60 42     ffbB..aB..`B..`B
     484:	9a 99 5f 42 33 33 5f 42 66 66 5e 42 9a 99 5d 42     .._B33_Bff^B..]B
     494:	cd cc 5c 42 00 00 5c 42 9a 99 5b 42 33 33 5b 42     ..\B..\B..[B33[B
     4a4:	66 66 5a 42 00 00 5a 42 9a 99 59 42 cd cc 58 42     ffZB..ZB..YB..XB
     4b4:	00 00 58 42 9a 99 57 42 33 33 57 42 cd cc 56 42     ..XB..WB33WB..VB
     4c4:	66 66 56 42 9a 99 55 42 33 33 55 42 cd cc 54 42     ffVB..UB33UB..TB
     4d4:	00 00 54 42 33 33 53 42 cd cc 52 42 66 66 52 42     ..TB33SB..RBffRB
     4e4:	9a 99 51 42 33 33 51 42 cd cc 50 42 00 00 50 42     ..QB33QB..PB..PB
     4f4:	9a 99 4f 42 33 33 4f 42 66 66 4e 42 9a 99 4d 42     ..OB33OBffNB..MB
     504:	33 33 4d 42 cd cc 4c 42 00 00 4c 42 9a 99 4b 42     33MB..LB..LB..KB
     514:	33 33 4b 42 66 66 4a 42 9a 99 49 42 33 33 49 42     33KBffJB..IB33IB
     524:	cd cc 48 42 00 00 48 42 9a 99 47 42 33 33 47 42     ..HB..HB..GB33GB
     534:	66 66 46 42 00 00 46 42 9a 99 45 42 33 33 45 42     ffFB..FB..EB33EB
     544:	cd cc 44 42 00 00 44 42 9a 99 43 42 33 33 43 42     ..DB..DB..CB33CB
     554:	cd cc 42 42 66 66 42 42 9a 99 41 42 33 33 41 42     ..BBffBB..AB33AB
     564:	cd cc 40 42 00 00 40 42 9a 99 3f 42 33 33 3f 42     ..@B..@B..?B33?B
     574:	cd cc 3e 42 66 66 3e 42 9a 99 3d 42 33 33 3d 42     ..>Bff>B..=B33=B
     584:	cd cc 3c 42 00 00 3c 42 9a 99 3b 42 33 33 3b 42     ..<B..<B..;B33;B
     594:	cd cc 3a 42 66 66 3a 42 9a 99 39 42 33 33 39 42     ..:Bff:B..9B339B
     5a4:	cd cc 38 42 00 00 38 42 9a 99 37 42 33 33 37 42     ..8B..8B..7B337B
     5b4:	66 66 36 42 00 00 36 42 9a 99 35 42 cd cc 34 42     ff6B..6B..5B..4B
     5c4:	66 66 34 42 00 00 34 42 9a 99 33 42 33 33 33 42     ff4B..4B..3B333B
     5d4:	cd cc 32 42 66 66 32 42 00 00 32 42 9a 99 31 42     ..2Bff2B..2B..1B
     5e4:	cd cc 30 42 66 66 30 42 00 00 30 42 9a 99 2f 42     ..0Bff0B..0B../B
     5f4:	33 33 2f 42 cd cc 2e 42 66 66 2e 42 00 00 2e 42     33/B...Bff.B...B
     604:	9a 99 2d 42 33 33 2d 42 cd cc 2c 42 00 00 2c 42     ..-B33-B..,B..,B
     614:	9a 99 2b 42 33 33 2b 42 cd cc 2a 42 66 66 2a 42     ..+B33+B..*Bff*B
     624:	00 00 2a 42 9a 99 29 42 cd cc 28 42 66 66 28 42     ..*B..)B..(Bff(B
     634:	00 00 28 42 9a 99 27 42 33 33 27 42 cd cc 26 42     ..(B..'B33'B..&B
     644:	66 66 26 42 9a 99 25 42 33 33 25 42 cd cc 24 42     ff&B..%B33%B..$B
     654:	66 66 24 42 00 00 24 42 33 33 23 42 cd cc 22 42     ff$B..$B33#B.."B
     664:	66 66 22 42 00 00 22 42 9a 99 21 42 cd cc 20 42     ff"B.."B..!B.. B
     674:	66 66 20 42 00 00 20 42 9a 99 1f 42 33 33 1f 42     ff B.. B...B33.B
     684:	cd cc 1e 42 66 66 1e 42 00 00 1e 42 9a 99 1d 42     ...Bff.B...B...B
     694:	33 33 1d 42 cd cc 1c 42 66 66 1c 42 00 00 1c 42     33.B...Bff.B...B
     6a4:	9a 99 1b 42 33 33 1b 42 cd cc 1a 42 66 66 1a 42     ...B33.B...Bff.B
     6b4:	00 00 1a 42 9a 99 19 42 33 33 19 42 cd cc 18 42     ...B...B33.B...B
     6c4:	66 66 18 42 00 00 18 42 9a 99 17 42 33 33 17 42     ff.B...B...B33.B
     6d4:	cd cc 16 42 66 66 16 42 00 00 16 42 9a 99 15 42     ...Bff.B...B...B
     6e4:	33 33 15 42 cd cc 14 42 66 66 14 42 00 00 14 42     33.B...Bff.B...B
     6f4:	9a 99 13 42 33 33 13 42 cd cc 12 42 66 66 12 42     ...B33.B...Bff.B
     704:	00 00 12 42 9a 99 11 42 33 33 11 42 cd cc 10 42     ...B...B33.B...B
     714:	00 00 10 42 9a 99 0f 42 33 33 0f 42 cd cc 0e 42     ...B...B33.B...B
     724:	66 66 0e 42 00 00 0e 42 9a 99 0d 42 33 33 0d 42     ff.B...B...B33.B
     734:	cd cc 0c 42 00 00 0c 42 9a 99 0b 42 9a 99 0b 42     ...B...B...B...B
     744:	33 33 0b 42 cd cc 0a 42 66 66 0a 42 00 00 0a 42     33.B...Bff.B...B
     754:	9a 99 09 42 33 33 09 42 cd cc 08 42 66 66 08 42     ...B33.B...Bff.B
     764:	66 66 08 42 00 00 08 42 9a 99 07 42 33 33 07 42     ff.B...B...B33.B
     774:	cd cc 06 42 66 66 06 42 00 00 06 42 9a 99 05 42     ...Bff.B...B...B
     784:	33 33 05 42 cd cc 04 42 66 66 04 42 00 00 04 42     33.B...Bff.B...B
     794:	9a 99 03 42 33 33 03 42 cd cc 02 42 cd cc 02 42     ...B33.B...B...B
     7a4:	66 66 02 42 00 00 02 42 9a 99 01 42 33 33 01 42     ff.B...B...B33.B
     7b4:	cd cc 00 42 66 66 00 42 00 00 00 42 33 33 ff 41     ...Bff.B...B33.A
     7c4:	66 66 fe 41 9a 99 fd 41 cd cc fc 41 00 00 fc 41     ff.A...A...A...A
     7d4:	33 33 fb 41 66 66 fa 41 9a 99 f9 41 cd cc f8 41     33.Aff.A...A...A
     7e4:	00 00 f8 41 33 33 f7 41 66 66 f6 41 9a 99 f5 41     ...A33.Aff.A...A
     7f4:	cd cc f4 41 00 00 f4 41 33 33 f3 41 66 66 f2 41     ...A...A33.Aff.A
     804:	9a 99 f1 41 00 00 f0 41 00 00 f0 41 33 33 ef 41     ...A...A...A33.A
     814:	66 66 ee 41 9a 99 ed 41 cd cc ec 41 00 00 ec 41     ff.A...A...A...A
     824:	00 00 ec 41 33 33 eb 41 66 66 ea 41 9a 99 e9 41     ...A33.Aff.A...A
     834:	cd cc e8 41 00 00 e8 41 33 33 e7 41 33 33 e7 41     ...A...A33.A33.A
     844:	66 66 e6 41 9a 99 e5 41 cd cc e4 41 00 00 e4 41     ff.A...A...A...A
     854:	33 33 e3 41 66 66 e2 41 9a 99 e1 41 cd cc e0 41     33.Aff.A...A...A
     864:	cd cc e0 41 00 00 e0 41 33 33 df 41 66 66 de 41     ...A...A33.Aff.A
     874:	9a 99 dd 41 cd cc dc 41 00 00 dc 41 33 33 db 41     ...A...A...A33.A
     884:	66 66 da 41 9a 99 d9 41 cd cc d8 41 00 00 d8 41     ff.A...A...A...A
     894:	00 00 d8 41 33 33 d7 41 66 66 d6 41 9a 99 d5 41     ...A33.Aff.A...A
     8a4:	cd cc d4 41 00 00 d4 41 33 33 d3 41 66 66 d2 41     ...A...A33.Aff.A
     8b4:	9a 99 d1 41 cd cc d0 41 00 00 d0 41 33 33 cf 41     ...A...A...A33.A
     8c4:	66 66 ce 41 9a 99 cd 41 cd cc cc 41 00 00 cc 41     ff.A...A...A...A
     8d4:	33 33 cb 41 66 66 ca 41 9a 99 c9 41 cd cc c8 41     33.Aff.A...A...A
     8e4:	00 00 c8 41 00 00 c8 41 33 33 c7 41 66 66 c6 41     ...A...A33.Aff.A
     8f4:	9a 99 c5 41 cd cc c4 41 00 00 c4 41 33 33 c3 41     ...A...A...A33.A
     904:	33 33 c3 41 66 66 c2 41 9a 99 c1 41 cd cc c0 41     33.Aff.A...A...A
     914:	00 00 c0 41 33 33 bf 41 33 33 bf 41 66 66 be 41     ...A33.A33.Aff.A
     924:	9a 99 bd 41 cd cc bc 41 00 00 bc 41 33 33 bb 41     ...A...A...A33.A
     934:	33 33 bb 41 66 66 ba 41 9a 99 b9 41 cd cc b8 41     33.Aff.A...A...A
     944:	00 00 b8 41 33 33 b7 41 66 66 b6 41 9a 99 b5 41     ...A33.Aff.A...A
     954:	9a 99 b5 41 cd cc b4 41 00 00 b4 41 33 33 b3 41     ...A...A...A33.A
     964:	66 66 b2 41 9a 99 b1 41 cd cc b0 41 00 00 b0 41     ff.A...A...A...A
     974:	33 33 af 41 66 66 ae 41 9a 99 ad 41 9a 99 ad 41     33.Aff.A...A...A
     984:	cd cc ac 41 00 00 ac 41 33 33 ab 41 66 66 aa 41     ...A...A33.Aff.A
     994:	9a 99 a9 41 cd cc a8 41 00 00 a8 41 33 33 a7 41     ...A...A...A33.A
     9a4:	66 66 a6 41 9a 99 a5 41 cd cc a4 41 00 00 a4 41     ff.A...A...A...A
     9b4:	33 33 a3 41 66 66 a2 41 9a 99 a1 41 cd cc a0 41     33.Aff.A...A...A
     9c4:	00 00 a0 41 33 33 9f 41 33 33 9f 41 66 66 9e 41     ...A33.A33.Aff.A
     9d4:	9a 99 9d 41 cd cc 9c 41 cd cc 9c 41 00 00 9c 41     ...A...A...A...A
     9e4:	33 33 9b 41 66 66 9a 41 9a 99 99 41 cd cc 98 41     33.Aff.A...A...A
     9f4:	cd cc 98 41 00 00 98 41 33 33 97 41 66 66 96 41     ...A...A33.Aff.A
     a04:	66 66 96 41 9a 99 95 41 cd cc 94 41 00 00 94 41     ff.A...A...A...A
     a14:	33 33 93 41 66 66 92 41 9a 99 91 41 9a 99 91 41     33.Aff.A...A...A
     a24:	cd cc 90 41 00 00 90 41 33 33 8f 41 66 66 8e 41     ...A...A33.Aff.A
     a34:	9a 99 8d 41 cd cc 8c 41 00 00 8c 41 00 00 8c 41     ...A...A...A...A
     a44:	33 33 8b 41 66 66 8a 41 9a 99 89 41 cd cc 88 41     33.Aff.A...A...A
     a54:	00 00 88 41 33 33 87 41 66 66 86 41 9a 99 85 41     ...A33.Aff.A...A
     a64:	cd cc 84 41 00 00 84 41 33 33 83 41 66 66 82 41     ...A...A33.Aff.A
     a74:	66 66 82 41 9a 99 81 41 cd cc 80 41 00 00 80 41     ff.A...A...A...A
     a84:	66 66 7e 41 cd cc 7c 41 33 33 7b 41 9a 99 79 41     ff~A..|A33{A..yA
     a94:	00 00 78 41 66 66 76 41 cd cc 74 41 33 33 73 41     ..xAffvA..tA33sA
     aa4:	9a 99 71 41 00 00 70 41 66 66 6e 41 cd cc 6c 41     ..qA..pAffnA..lA
     ab4:	33 33 6b 41 33 33 6b 41 9a 99 69 41 00 00 68 41     33kA33kA..iA..hA
     ac4:	66 66 66 41 66 66 66 41 cd cc 64 41 33 33 63 41     fffAfffA..dA33cA
     ad4:	9a 99 61 41 00 00 60 41 66 66 5e 41 66 66 5e 41     ..aA..`Aff^Aff^A
     ae4:	cd cc 5c 41 33 33 5b 41 9a 99 59 41 00 00 58 41     ..\A33[A..YA..XA
     af4:	66 66 56 41 cd cc 54 41 33 33 53 41 33 33 53 41     ffVA..TA33SA33SA
     b04:	9a 99 51 41 00 00 50 41 66 66 4e 41 cd cc 4c 41     ..QA..PAffNA..LA
     b14:	33 33 4b 41 9a 99 49 41 00 00 48 41 66 66 46 41     33KA..IA..HAffFA
     b24:	cd cc 44 41 33 33 43 41 9a 99 41 41 9a 99 41 41     ..DA33CA..AA..AA
     b34:	00 00 40 41 66 66 3e 41 cd cc 3c 41 33 33 3b 41     ..@Aff>A..<A33;A
     b44:	9a 99 39 41 00 00 38 41 66 66 36 41 cd cc 34 41     ..9A..8Aff6A..4A
     b54:	33 33 33 41 9a 99 31 41 00 00 30 41 66 66 2e 41     333A..1A..0Aff.A
     b64:	cd cc 2c 41 33 33 2b 41 9a 99 29 41 00 00 28 41     ..,A33+A..)A..(A
     b74:	66 66 26 41 cd cc 24 41 33 33 23 41 9a 99 21 41     ff&A..$A33#A..!A
     b84:	00 00 20 41 66 66 1e 41 66 66 1e 41 cd cc 1c 41     .. Aff.Aff.A...A
     b94:	33 33 1b 41 9a 99 19 41 00 00 18 41 00 00 18 41     33.A...A...A...A
     ba4:	66 66 16 41 cd cc 14 41 33 33 13 41 9a 99 11 41     ff.A...A33.A...A
     bb4:	00 00 10 41 66 66 0e 41 66 66 0e 41 cd cc 0c 41     ...Aff.Aff.A...A
     bc4:	33 33 0b 41 9a 99 09 41 00 00 08 41 66 66 06 41     33.A...A...Aff.A
     bd4:	cd cc 04 41 33 33 03 41 9a 99 01 41 00 00 00 41     ...A33.A...A...A
     be4:	cd cc fc 40 cd cc fc 40 9a 99 f9 40 66 66 f6 40     ...@...@...@ff.@
     bf4:	33 33 f3 40 00 00 f0 40 cd cc ec 40 9a 99 e9 40     33.@...@...@...@
     c04:	66 66 e6 40 33 33 e3 40 00 00 e0 40 cd cc dc 40     ff.@33.@...@...@
     c14:	9a 99 d9 40 66 66 d6 40 33 33 d3 40 00 00 d0 40     ...@ff.@33.@...@
     c24:	cd cc cc 40 9a 99 c9 40 66 66 c6 40 33 33 c3 40     ...@...@ff.@33.@
     c34:	00 00 c0 40 cd cc bc 40 9a 99 b9 40 66 66 b6 40     ...@...@...@ff.@
     c44:	33 33 b3 40 cd cc ac 40 9a 99 a9 40 66 66 a6 40     33.@...@...@ff.@
     c54:	33 33 a3 40 00 00 a0 40 cd cc 9c 40 9a 99 99 40     33.@...@...@...@
     c64:	66 66 96 40 66 66 96 40 33 33 93 40 00 00 90 40     ff.@ff.@33.@...@
     c74:	cd cc 8c 40 9a 99 89 40 66 66 86 40 33 33 83 40     ...@...@ff.@33.@
     c84:	00 00 80 40 9a 99 79 40 9a 99 79 40 33 33 73 40     ...@..y@..y@33s@
     c94:	cd cc 6c 40 66 66 66 40 00 00 60 40 9a 99 59 40     ..l@fff@..`@..Y@
     ca4:	33 33 53 40 cd cc 4c 40 66 66 46 40 00 00 40 40     33S@..L@ffF@..@@
     cb4:	9a 99 39 40 33 33 33 40 cd cc 2c 40 66 66 26 40     ..9@333@..,@ff&@
     cc4:	00 00 20 40 9a 99 19 40 33 33 13 40 cd cc 0c 40     .. @...@33.@...@
     cd4:	66 66 06 40 00 00 00 40 66 66 e6 3f 9a 99 d9 3f     ff.@...@ff.?...?
     ce4:	cd cc cc 3f 00 00 c0 3f 33 33 b3 3f 66 66 a6 3f     ...?...?33.?ff.?
     cf4:	9a 99 99 3f cd cc 8c 3f 00 00 80 3f cd cc 4c 3f     ...?...?...?..L?
     d04:	33 33 33 3f 9a 99 19 3f 00 00 00 3f cd cc cc 3e     333?...?...?...>
     d14:	cd cc 4c 3e cd cc cc 3d 00 00 00 00 cd cc cc bd     ..L>...=........
     d24:	cd cc 4c be 9a 99 99 be cd cc cc be 00 00 00 bf     ..L.............
     d34:	9a 99 19 bf 33 33 33 bf cd cc 4c bf 66 66 66 bf     ....333...L.fff.
     d44:	00 00 80 bf cd cc 8c bf 9a 99 99 bf 66 66 a6 bf     ............ff..
     d54:	33 33 b3 bf 00 00 c0 bf cd cc cc bf 9a 99 d9 bf     33..............
     d64:	66 66 e6 bf 33 33 f3 bf 00 00 00 c0 66 66 06 c0     ff..33......ff..
     d74:	cd cc 0c c0 33 33 13 c0 9a 99 19 c0 66 66 26 c0     ....33......ff&.
     d84:	cd cc 2c c0 33 33 33 c0 9a 99 39 c0 00 00 40 c0     ..,.333...9...@.
     d94:	cd cc 4c c0 33 33 53 c0 9a 99 59 c0 00 00 60 c0     ..L.33S...Y...`.
     da4:	66 66 66 c0 33 33 73 c0 9a 99 79 c0 00 00 80 c0     fff.33s...y.....
     db4:	66 66 86 c0 9a 99 89 c0 cd cc 8c c0 33 33 93 c0     ff..........33..
     dc4:	66 66 96 c0 9a 99 99 c0 00 00 a0 c0 33 33 a3 c0     ff..........33..
     dd4:	66 66 a6 c0 9a 99 a9 c0 cd cc ac c0 00 00 b0 c0     ff..............
     de4:	33 33 b3 c0 66 66 b6 c0 9a 99 b9 c0 cd cc bc c0     33..ff..........
     df4:	00 00 c0 c0 66 66 c6 c0 9a 99 c9 c0 cd cc cc c0     ....ff..........
     e04:	00 00 d0 c0 33 33 d3 c0 9a 99 d9 c0 cd cc dc c0     ....33..........
     e14:	00 00 e0 c0 33 33 e3 c0 66 66 e6 c0 9a 99 e9 c0     ....33..ff......
     e24:	00 00 f0 c0 33 33 f3 c0 9a 99 f9 c0 cd cc fc c0     ....33..........
     e34:	00 00 00 c1 33 33 03 c1 cd cc 04 c1 66 66 06 c1     ....33......ff..
     e44:	9a 99 09 c1 33 33 0b c1 cd cc 0c c1 00 00 10 c1     ....33..........
     e54:	33 33 13 c1 cd cc 14 c1 66 66 16 c1 9a 99 19 c1     33......ff......
     e64:	cd cc 1c c1 00 00 20 c1 9a 99 21 c1 33 33 23 c1     ...... ...!.33#.
     e74:	cd cc 24 c1 66 66 26 c1 9a 99 29 c1 33 33 2b c1     ..$.ff&...).33+.
     e84:	cd cc 2c c1 00 00 30 c1 9a 99 31 c1 33 33 33 c1     ..,...0...1.333.
     e94:	66 66 36 c1 00 00 38 c1 9a 99 39 c1 cd cc 3c c1     ff6...8...9...<.
     ea4:	66 66 3e c1 00 00 40 c1 33 33 43 c1 66 66 46 c1     ff>...@.33C.ffF.
     eb4:	00 00 48 c1 9a 99 49 c1 cd cc 4c c1 00 00 50 c1     ..H...I...L...P.
     ec4:	33 33 53 c1 cd cc 54 c1 66 66 56 c1 9a 99 59 c1     33S...T.ffV...Y.
     ed4:	cd cc 5c c1 00 00 60 c1 33 33 63 c1 66 66 66 c1     ..\...`.33c.fff.
     ee4:	00 00 68 c1 9a 99 69 c1 cd cc 6c c1 00 00 70 c1     ..h...i...l...p.
     ef4:	33 33 73 c1 cd cc 74 c1 66 66 76 c1 9a 99 79 c1     33s...t.ffv...y.
     f04:	cd cc 7c c1 66 66 7e c1 00 00 80 c1 9a 99 81 c1     ..|.ff~.........
     f14:	33 33 83 c1 cd cc 84 c1 9a 99 85 c1 66 66 86 c1     33..........ff..
     f24:	00 00 88 c1 9a 99 89 c1 33 33 8b c1 cd cc 8c c1     ........33......
     f34:	66 66 8e c1 00 00 90 c1 9a 99 91 c1 33 33 93 c1     ff..........33..
     f44:	cd cc 94 c1 66 66 96 c1 00 00 98 c1 9a 99 99 c1     ....ff..........
     f54:	33 33 9b c1 cd cc 9c c1 66 66 9e c1 00 00 a0 c1     33......ff......
     f64:	9a 99 a1 c1 33 33 a3 c1 cd cc a4 c1 66 66 a6 c1     ....33......ff..
     f74:	00 00 a8 c1 9a 99 a9 c1 33 33 ab c1 00 00 ac c1     ........33......
     f84:	cd cc ac c1 00 00 b0 c1 9a 99 b1 c1 33 33 b3 c1     ............33..
     f94:	cd cc b4 c1 66 66 b6 c1 00 00 b8 c1 9a 99 b9 c1     ....ff..........
     fa4:	33 33 bb c1 66 66 be c1 00 00 c0 c1 9a 99 c1 c1     33..ff..........
     fb4:	cd cc c4 c1 66 66 c6 c1 00 00 c8 c1 9a 99 c9 c1     ....ff..........
     fc4:	33 33 cb c1 66 66 ce c1 00 00 d0 c1 9a 99 d1 c1     33..ff..........
     fd4:	33 33 d3 c1 cd cc d4 c1 00 00 d8 c1 9a 99 d9 c1     33..............
     fe4:	33 33 db c1 66 66 de c1 00 00 e0 c1 33 33 e3 c1     33..ff......33..
     ff4:	cd cc e4 c1 66 66 e6 c1 9a 99 e9 c1 cd cc ec c1     ....ff..........
    1004:	00 00 f0 c1 9a 99 f1 c1 cd cc f4 c1 66 66 f6 c1     ............ff..
    1014:	9a 99 f9 c1 33 33 fb c1 66 66 fe c1 00 00 00 c2     ....33..ff......
    1024:	9a 99 01 c2 33 33 03 c2 66 66 04 c2 00 00 06 c2     ....33..ff......
    1034:	9a 99 07 c2 33 33 09 c2 cd cc 0a c2 66 66 0c c2     ....33......ff..
    1044:	00 00 0e c2 9a 99 0f c2 33 33 11 c2 cd cc 12 c2     ........33......
    1054:	66 66 14 c2 00 00 16 c2 9a 99 17 c2 9a 99 19 c2     ff..............
    1064:	00 00 1c c2 66 66 1e c2 00 00 20 c2 00 00 20 c2     ....ff.... ... .
    1074:	00 00 20 c2 00 00 20 c2 00 00 20 c2 00 00 20 c2     .. ... ... ... .
    1084:	00 00 20 c2 00 00 20 c2 00 00 20 c2 00 00 20 c2     .. ... ... ... .
    1094:	00 00 20 c2 00 00 20 c2 00 00 20 c2 00 00 20 c2     .. ... ... ... .
    10a4:	00 00 20 c2 00 00 20 c2 00 00 20 c2 00 00 20 c2     .. ... ... ... .
    10b4:	00 00 20 c2 00 00 20 c2 00 00 20 c2 00 00 20 c2     .. ... ... ... .
    10c4:	00 00 20 c2 00 00 20 c2 00 00 20 c2 00 00 20 c2     .. ... ... ... .
    10d4:	00 00 20 c2 00 00 20 c2 00 00 20 c2 00 00 20 c2     .. ... ... ... .

000010e4 <EEP_SYS_DEFAULT>:
    10e4:	34 12 00 00 90 dc 00 00 01 00 01 00 9d 00 22 03     4.............".
    10f4:	40 06 60 09 80 0c 00 00                             @.`.....

000010fc <DAC_DATA>:
    10fc:	00 00 c6 01 ef 04 d2 05 25 06 51 06 b1 06 92 07     ........%.Q.....
    110c:	bd 07 71 08 75 09 10 0b e6 0e                       ..q.u.....

00001116 <FREQ_DATA>:
    1116:	00 00 8a 02 dd 0d 05 11 2d 12 c8 12 22 14 45 17     ........-...".E.
    1126:	dc 17 62 1a 16 1e e8 23 f9 31                       ..b....#.1

00001130 <DET_EEP_SYS_DEFAULT>:
    1130:	34 12 00 00 00 00 00 00 00 00 00 00 00 00 01 00     4...............
    1140:	60 09 28 0a 26 00 60 09 28 0a 22 00 07 00 96 00     `.(.&.`.(.".....
    1150:	00 00 00 00 19 00 0a 00 1e 00 64 00 a4 06 2c 01     ..........d...,.
    1160:	fa 00 00 00 b0 04 00 00 00 00 00 00 00 00 00 00     ................
    1170:	05 00 3c 00 09 00 64 00 55 00 00 00 01 00 00 00     ..<...d.U.......
    1180:	6c 07 c2 01 31 04 c5 06 aa 09 b1 0c 45 0f 29 13     l...1.......E.).
    1190:	ad 01 ee 03 42 08 f2 0a fa 0c 8c 0f fc 12 1e 02     ....B...........
    11a0:	0d 05 34 07 bf 0a ef 0c 46 10 0d 13 5a 00 d7 00     ..4.....F...Z...
    11b0:	5b 01 ef 01 8a 02 0f 03 d6 03 56 00 c9 00 a7 01     [.........V.....
    11c0:	31 02 99 02 1d 03 cd 03 6d 00 03 01 71 01 27 02     1.......m...q.'.
    11d0:	97 02 42 03 d0 03 00 00 64 00 88 13 88 13 88 13     ..B.....d.......
    11e0:	00 00 00 00 00 00 e2 04 70 fe 00 00 00 00 00 00     ........p.......
	...

000012de <DET_EEP_SYS_LO_LIMIT>:
    12de:	00 00 00 00 00 00 01 80 01 80 00 00 00 00 00 00     ................
    12ee:	34 08 fc 08 14 00 34 08 fc 08 14 00 03 00 c8 00     4.....4.........
    12fe:	05 00 05 00 05 00 05 00 0a 00 32 00 e8 03 64 00     ..........2...d.
    130e:	32 00 fb ff e8 03 05 00 1e 00 00 00 14 00 32 00     2.............2.
    131e:	01 00 01 00 01 00 32 00 32 00 00 00 00 00 00 00     ......2.2.......
    132e:	78 05 00 00 00 00 00 00 00 00 00 00 00 00 00 00     x...............
	...
    1382:	00 00 05 00 50 00 00 00 00 00 00 00 00 00 00 00     ....P...........
    1392:	00 00 70 fe 70 fe 00 00 00 00 00 00 00 00 00 00     ..p.p...........
	...

0000148c <DET_EEP_SYS_UP_LIMIT>:
    148c:	00 00 00 00 00 00 ff 7f ff 7f 00 00 00 00 01 00     ................
    149c:	28 0a f0 0a c8 00 28 0a f0 0a c8 00 0f 00 58 02     (.....(.......X.
    14ac:	14 00 0f 00 64 00 64 00 c8 00 f4 01 c0 12 e8 03     ....d.d.........
    14bc:	e8 03 05 00 88 13 14 00 c8 00 0a 00 c8 00 c8 00     ................
    14cc:	64 00 d0 02 64 00 c8 00 2c 01 01 00 01 00 b6 03     d...d...,.......
    14dc:	98 08 88 13 88 13 88 13 88 13 88 13 88 13 88 13     ................
    14ec:	88 13 88 13 88 13 88 13 88 13 88 13 88 13 88 13     ................
    14fc:	88 13 88 13 88 13 88 13 88 13 88 13 e8 03 e8 03     ................
    150c:	e8 03 e8 03 e8 03 e8 03 e8 03 e8 03 e8 03 e8 03     ................
    151c:	e8 03 e8 03 e8 03 e8 03 e8 03 e8 03 e8 03 e8 03     ................
    152c:	e8 03 e8 03 e8 03 14 00 c8 00 88 13 88 13 88 13     ................
    153c:	ff 7f ff 7f ff 7f e2 04 e2 04 ff 7f ff 7f ff 7f     ................
    154c:	ff 7f ff 7f ff 7f ff 7f ff 7f ff 7f ff 7f ff 7f     ................
    155c:	ff 7f ff 7f ff 7f ff 7f ff 7f ff 7f ff 7f ff 7f     ................
    156c:	ff 7f ff 7f ff 7f ff 7f ff 7f ff 7f ff 7f ff 7f     ................
    157c:	ff 7f ff 7f ff 7f ff 7f ff 7f ff 7f ff 7f ff 7f     ................
    158c:	ff 7f ff 7f ff 7f ff 7f ff 7f ff 7f ff 7f ff 7f     ................
    159c:	ff 7f ff 7f ff 7f ff 7f ff 7f ff 7f ff 7f ff 7f     ................
    15ac:	ff 7f ff 7f ff 7f ff 7f ff 7f ff 7f ff 7f ff 7f     ................
    15bc:	ff 7f ff 7f ff 7f ff 7f ff 7f ff 7f ff 7f ff 7f     ................
    15cc:	ff 7f ff 7f ff 7f ff 7f ff 7f ff 7f ff 7f ff 7f     ................
    15dc:	ff 7f ff 7f ff 7f ff 7f ff 7f ff 7f ff 7f ff 7f     ................
    15ec:	ff 7f ff 7f ff 7f ff 7f ff 7f ff 7f ff 7f ff 7f     ................
    15fc:	ff 7f ff 7f ff 7f ff 7f ff 7f ff 7f ff 7f ff 7f     ................
    160c:	ff 7f ff 7f ff 7f ff 7f ff 7f ff 7f ff 7f ff 7f     ................
    161c:	ff 7f ff 7f ff 7f ff 7f ff 7f ff 7f ff 7f ff 7f     ................
    162c:	ff 7f ff 7f ff 7f ff 7f ff 7f ff 7f ff 7f           ..............

0000163a <__ctors_end>:
    163a:	11 24       	eor	r1, r1
    163c:	1f be       	out	0x3f, r1	; 63
    163e:	cf ef       	ldi	r28, 0xFF	; 255
    1640:	d1 e2       	ldi	r29, 0x21	; 33
    1642:	de bf       	out	0x3e, r29	; 62
    1644:	cd bf       	out	0x3d, r28	; 61
    1646:	00 e0       	ldi	r16, 0x00	; 0
    1648:	0c bf       	out	0x3c, r16	; 60

0000164a <get_mcusr>:
void get_mcusr(void) \
	__attribute__((naked)) \
	__attribute__((section(".init3")));

void get_mcusr(void)
{
    164a:	84 b7       	in	r24, 0x34	; 52
    164c:	80 93 41 1f 	sts	0x1F41, r24
	mcusr_mirror = MCUSR;
	MCUSR = 0;
    1650:	14 be       	out	0x34, r1	; 52
	wdt_disable();
    1652:	88 e1       	ldi	r24, 0x18	; 24
    1654:	0f b6       	in	r0, 0x3f	; 63
    1656:	f8 94       	cli
    1658:	80 93 60 00 	sts	0x0060, r24
    165c:	10 92 60 00 	sts	0x0060, r1
    1660:	0f be       	out	0x3f, r0	; 63

00001662 <__do_copy_data>:
    1662:	19 e0       	ldi	r17, 0x09	; 9
    1664:	a0 e0       	ldi	r26, 0x00	; 0
    1666:	b2 e0       	ldi	r27, 0x02	; 2
    1668:	ea ee       	ldi	r30, 0xEA	; 234
    166a:	f1 e8       	ldi	r31, 0x81	; 129
    166c:	00 e0       	ldi	r16, 0x00	; 0
    166e:	0b bf       	out	0x3b, r16	; 59
    1670:	02 c0       	rjmp	.+4      	; 0x1676 <__do_copy_data+0x14>
    1672:	07 90       	elpm	r0, Z+
    1674:	0d 92       	st	X+, r0
    1676:	a0 3a       	cpi	r26, 0xA0	; 160
    1678:	b1 07       	cpc	r27, r17
    167a:	d9 f7       	brne	.-10     	; 0x1672 <__do_copy_data+0x10>

0000167c <__do_clear_bss>:
    167c:	1f e1       	ldi	r17, 0x1F	; 31
    167e:	a0 ea       	ldi	r26, 0xA0	; 160
    1680:	b9 e0       	ldi	r27, 0x09	; 9
    1682:	01 c0       	rjmp	.+2      	; 0x1686 <.do_clear_bss_start>

00001684 <.do_clear_bss_loop>:
    1684:	1d 92       	st	X+, r1

00001686 <.do_clear_bss_start>:
    1686:	a1 34       	cpi	r26, 0x41	; 65
    1688:	b1 07       	cpc	r27, r17
    168a:	e1 f7       	brne	.-8      	; 0x1684 <.do_clear_bss_loop>
    168c:	0e 94 51 10 	call	0x20a2	; 0x20a2 <main>
    1690:	0c 94 f3 40 	jmp	0x81e6	; 0x81e6 <_exit>

00001694 <__bad_interrupt>:
    1694:	0c 94 00 00 	jmp	0	; 0x0 <__vectors>

00001698 <Initialize_ADC>:


/////////////////////////////////////////////////////////////////////////////////////////////////////////////////////////////////////
void Initialize_ADC( void )
{
	ADMUX = 0xC3;
    1698:	83 ec       	ldi	r24, 0xC3	; 195
    169a:	80 93 7c 00 	sts	0x007C, r24
	//ADMUX = 0x40;
	ADCSRA = 0x8F;
    169e:	8f e8       	ldi	r24, 0x8F	; 143
    16a0:	80 93 7a 00 	sts	0x007A, r24
	ADCSRB = 0x00;
    16a4:	10 92 7b 00 	sts	0x007B, r1
	DIDR0 = 0xFF;
    16a8:	8f ef       	ldi	r24, 0xFF	; 255
    16aa:	80 93 7e 00 	sts	0x007E, r24
	}
}

void ADC_Factor(void)
{
	mA_x1 = epr_sm[EEP_4mA_Data];
    16ae:	60 91 e5 09 	lds	r22, 0x09E5
    16b2:	70 91 e6 09 	lds	r23, 0x09E6
    16b6:	88 27       	eor	r24, r24
    16b8:	77 fd       	sbrc	r23, 7
    16ba:	80 95       	com	r24
    16bc:	98 2f       	mov	r25, r24
    16be:	0e 94 2e 3a 	call	0x745c	; 0x745c <__floatsisf>
    16c2:	60 93 cf 09 	sts	0x09CF, r22
    16c6:	70 93 d0 09 	sts	0x09D0, r23
    16ca:	80 93 d1 09 	sts	0x09D1, r24
    16ce:	90 93 d2 09 	sts	0x09D2, r25
	mA_x2 = epr_sm[EEP_20mA_Data];
    16d2:	60 91 e7 09 	lds	r22, 0x09E7
    16d6:	70 91 e8 09 	lds	r23, 0x09E8
    16da:	88 27       	eor	r24, r24
    16dc:	77 fd       	sbrc	r23, 7
    16de:	80 95       	com	r24
    16e0:	98 2f       	mov	r25, r24
    16e2:	0e 94 2e 3a 	call	0x745c	; 0x745c <__floatsisf>
    16e6:	60 93 a7 09 	sts	0x09A7, r22
    16ea:	70 93 a8 09 	sts	0x09A8, r23
    16ee:	80 93 a9 09 	sts	0x09A9, r24
    16f2:	90 93 aa 09 	sts	0x09AA, r25
	ADCSRA = 0x8F;
	ADCSRB = 0x00;
	DIDR0 = 0xFF;

	ADC_Factor();
}
    16f6:	08 95       	ret

000016f8 <__vector_29>:

/////////////////////////////////////////////////////////////////////////////////////////////////////////////////////////////////////
ISR( ADC_vect )
{
    16f8:	1f 92       	push	r1
    16fa:	0f 92       	push	r0
    16fc:	0f b6       	in	r0, 0x3f	; 63
    16fe:	0f 92       	push	r0
    1700:	11 24       	eor	r1, r1
    1702:	8f 93       	push	r24
    1704:	9f 93       	push	r25
	switch( ADMUX ){
    1706:	80 91 7c 00 	lds	r24, 0x007C
    170a:	81 3c       	cpi	r24, 0xC1	; 193
    170c:	a1 f0       	breq	.+40     	; 0x1736 <__vector_29+0x3e>
    170e:	82 3c       	cpi	r24, 0xC2	; 194
    1710:	18 f4       	brcc	.+6      	; 0x1718 <__vector_29+0x20>
    1712:	80 3c       	cpi	r24, 0xC0	; 192
    1714:	79 f5       	brne	.+94     	; 0x1774 <__vector_29+0x7c>
    1716:	05 c0       	rjmp	.+10     	; 0x1722 <__vector_29+0x2a>
    1718:	82 3c       	cpi	r24, 0xC2	; 194
    171a:	b9 f0       	breq	.+46     	; 0x174a <__vector_29+0x52>
    171c:	83 3c       	cpi	r24, 0xC3	; 195
    171e:	51 f5       	brne	.+84     	; 0x1774 <__vector_29+0x7c>
    1720:	1e c0       	rjmp	.+60     	; 0x175e <__vector_29+0x66>
		case 0xC0: // Det mA
			ADbuf[0] = ADCW;
    1722:	80 91 78 00 	lds	r24, 0x0078
    1726:	90 91 79 00 	lds	r25, 0x0079
    172a:	90 93 c8 09 	sts	0x09C8, r25
    172e:	80 93 c7 09 	sts	0x09C7, r24
			ADMUX = 0xC1;
    1732:	81 ec       	ldi	r24, 0xC1	; 193
    1734:	1d c0       	rjmp	.+58     	; 0x1770 <__vector_29+0x78>
			//ADMUX = 0x41;
			break;
			
		case 0xC1: // aP24
			ADbuf[1] = ADCW;
    1736:	80 91 78 00 	lds	r24, 0x0078
    173a:	90 91 79 00 	lds	r25, 0x0079
    173e:	90 93 ca 09 	sts	0x09CA, r25
    1742:	80 93 c9 09 	sts	0x09C9, r24
			ADMUX = 0xC2;
    1746:	82 ec       	ldi	r24, 0xC2	; 194
    1748:	13 c0       	rjmp	.+38     	; 0x1770 <__vector_29+0x78>
			//ADMUX = 0x42;
			break;
			
		case 0xC2: // aPOUT
			ADbuf[2] = ADCW;
    174a:	80 91 78 00 	lds	r24, 0x0078
    174e:	90 91 79 00 	lds	r25, 0x0079
    1752:	90 93 cc 09 	sts	0x09CC, r25
    1756:	80 93 cb 09 	sts	0x09CB, r24
			ADMUX = 0xC3;
    175a:	83 ec       	ldi	r24, 0xC3	; 195
    175c:	09 c0       	rjmp	.+18     	; 0x1770 <__vector_29+0x78>
			//ADMUX = 0x43;
			break;
			
		case 0xC3: // aTEMP
			ADbuf[3] = ADCW;
    175e:	80 91 78 00 	lds	r24, 0x0078
    1762:	90 91 79 00 	lds	r25, 0x0079
    1766:	90 93 ce 09 	sts	0x09CE, r25
    176a:	80 93 cd 09 	sts	0x09CD, r24
			ADMUX = 0xC0;
    176e:	80 ec       	ldi	r24, 0xC0	; 192
    1770:	80 93 7c 00 	sts	0x007C, r24
			//ADMUX = 0x40;
			break;
	}
}
    1774:	9f 91       	pop	r25
    1776:	8f 91       	pop	r24
    1778:	0f 90       	pop	r0
    177a:	0f be       	out	0x3f, r0	; 63
    177c:	0f 90       	pop	r0
    177e:	1f 90       	pop	r1
    1780:	18 95       	reti

00001782 <ADC_Task>:

/////////////////////////////////////////////////////////////////////////////////////////////////////////////////////////////////////
void ADC_Task( void )
{
    1782:	2f 92       	push	r2
    1784:	3f 92       	push	r3
    1786:	4f 92       	push	r4
    1788:	5f 92       	push	r5
    178a:	6f 92       	push	r6
    178c:	7f 92       	push	r7
    178e:	8f 92       	push	r8
    1790:	9f 92       	push	r9
    1792:	af 92       	push	r10
    1794:	bf 92       	push	r11
    1796:	cf 92       	push	r12
    1798:	df 92       	push	r13
    179a:	ef 92       	push	r14
    179c:	ff 92       	push	r15
    179e:	0f 93       	push	r16
    17a0:	1f 93       	push	r17
    17a2:	df 93       	push	r29
    17a4:	cf 93       	push	r28
    17a6:	cd b7       	in	r28, 0x3d	; 61
    17a8:	de b7       	in	r29, 0x3e	; 62
    17aa:	2c 97       	sbiw	r28, 0x0c	; 12
    17ac:	0f b6       	in	r0, 0x3f	; 63
    17ae:	f8 94       	cli
    17b0:	de bf       	out	0x3e, r29	; 62
    17b2:	0f be       	out	0x3f, r0	; 63
    17b4:	cd bf       	out	0x3d, r28	; 61
	if( sTimerFlag[TMR_ADC_TASK] ){
    17b6:	80 91 3b 0f 	lds	r24, 0x0F3B
    17ba:	90 91 3c 0f 	lds	r25, 0x0F3C
    17be:	89 2b       	or	r24, r25
    17c0:	09 f4       	brne	.+2      	; 0x17c4 <ADC_Task+0x42>
    17c2:	54 c1       	rjmp	.+680    	; 0x1a6c <ADC_Task+0x2ea>
		sTimerFlag[TMR_ADC_TASK] = 0;
    17c4:	10 92 3c 0f 	sts	0x0F3C, r1
    17c8:	10 92 3b 0f 	sts	0x0F3B, r1
		
		fADBuf[0] = fADBuf[0] * 0.97 + ADbuf[0] * 0.03;
    17cc:	60 91 b7 09 	lds	r22, 0x09B7
    17d0:	70 91 b8 09 	lds	r23, 0x09B8
    17d4:	80 91 b9 09 	lds	r24, 0x09B9
    17d8:	90 91 ba 09 	lds	r25, 0x09BA
    17dc:	2c ee       	ldi	r18, 0xEC	; 236
    17de:	31 e5       	ldi	r19, 0x51	; 81
    17e0:	48 e7       	ldi	r20, 0x78	; 120
    17e2:	5f e3       	ldi	r21, 0x3F	; 63
    17e4:	0e 94 58 38 	call	0x70b0	; 0x70b0 <__mulsf3>
    17e8:	7b 01       	movw	r14, r22
    17ea:	8c 01       	movw	r16, r24
    17ec:	60 91 c7 09 	lds	r22, 0x09C7
    17f0:	70 91 c8 09 	lds	r23, 0x09C8
    17f4:	80 e0       	ldi	r24, 0x00	; 0
    17f6:	90 e0       	ldi	r25, 0x00	; 0
    17f8:	0e 94 e0 3a 	call	0x75c0	; 0x75c0 <__floatunsisf>
    17fc:	2f e8       	ldi	r18, 0x8F	; 143
    17fe:	32 ec       	ldi	r19, 0xC2	; 194
    1800:	45 ef       	ldi	r20, 0xF5	; 245
    1802:	5c e3       	ldi	r21, 0x3C	; 60
    1804:	0e 94 58 38 	call	0x70b0	; 0x70b0 <__mulsf3>
    1808:	9b 01       	movw	r18, r22
    180a:	ac 01       	movw	r20, r24
    180c:	c8 01       	movw	r24, r16
    180e:	b7 01       	movw	r22, r14
    1810:	0e 94 2b 38 	call	0x7056	; 0x7056 <__addsf3>
    1814:	1b 01       	movw	r2, r22
    1816:	2c 01       	movw	r4, r24
    1818:	60 93 b7 09 	sts	0x09B7, r22
    181c:	70 93 b8 09 	sts	0x09B8, r23
    1820:	80 93 b9 09 	sts	0x09B9, r24
    1824:	90 93 ba 09 	sts	0x09BA, r25
		fADBuf[1] = fADBuf[1] * 0.97 + ADbuf[1] * 0.03;
    1828:	60 91 bb 09 	lds	r22, 0x09BB
    182c:	70 91 bc 09 	lds	r23, 0x09BC
    1830:	80 91 bd 09 	lds	r24, 0x09BD
    1834:	90 91 be 09 	lds	r25, 0x09BE
    1838:	2c ee       	ldi	r18, 0xEC	; 236
    183a:	31 e5       	ldi	r19, 0x51	; 81
    183c:	48 e7       	ldi	r20, 0x78	; 120
    183e:	5f e3       	ldi	r21, 0x3F	; 63
    1840:	0e 94 58 38 	call	0x70b0	; 0x70b0 <__mulsf3>
    1844:	7b 01       	movw	r14, r22
    1846:	8c 01       	movw	r16, r24
    1848:	60 91 c9 09 	lds	r22, 0x09C9
    184c:	70 91 ca 09 	lds	r23, 0x09CA
    1850:	80 e0       	ldi	r24, 0x00	; 0
    1852:	90 e0       	ldi	r25, 0x00	; 0
    1854:	0e 94 e0 3a 	call	0x75c0	; 0x75c0 <__floatunsisf>
    1858:	2f e8       	ldi	r18, 0x8F	; 143
    185a:	32 ec       	ldi	r19, 0xC2	; 194
    185c:	45 ef       	ldi	r20, 0xF5	; 245
    185e:	5c e3       	ldi	r21, 0x3C	; 60
    1860:	0e 94 58 38 	call	0x70b0	; 0x70b0 <__mulsf3>
    1864:	9b 01       	movw	r18, r22
    1866:	ac 01       	movw	r20, r24
    1868:	c8 01       	movw	r24, r16
    186a:	b7 01       	movw	r22, r14
    186c:	0e 94 2b 38 	call	0x7056	; 0x7056 <__addsf3>
    1870:	69 83       	std	Y+1, r22	; 0x01
    1872:	7a 83       	std	Y+2, r23	; 0x02
    1874:	8b 83       	std	Y+3, r24	; 0x03
    1876:	9c 83       	std	Y+4, r25	; 0x04
    1878:	60 93 bb 09 	sts	0x09BB, r22
    187c:	70 93 bc 09 	sts	0x09BC, r23
    1880:	80 93 bd 09 	sts	0x09BD, r24
    1884:	90 93 be 09 	sts	0x09BE, r25
		fADBuf[2] = fADBuf[2] * 0.97 + ADbuf[2] * 0.03;
    1888:	60 91 bf 09 	lds	r22, 0x09BF
    188c:	70 91 c0 09 	lds	r23, 0x09C0
    1890:	80 91 c1 09 	lds	r24, 0x09C1
    1894:	90 91 c2 09 	lds	r25, 0x09C2
    1898:	2c ee       	ldi	r18, 0xEC	; 236
    189a:	31 e5       	ldi	r19, 0x51	; 81
    189c:	48 e7       	ldi	r20, 0x78	; 120
    189e:	5f e3       	ldi	r21, 0x3F	; 63
    18a0:	0e 94 58 38 	call	0x70b0	; 0x70b0 <__mulsf3>
    18a4:	7b 01       	movw	r14, r22
    18a6:	8c 01       	movw	r16, r24
    18a8:	60 91 cb 09 	lds	r22, 0x09CB
    18ac:	70 91 cc 09 	lds	r23, 0x09CC
    18b0:	80 e0       	ldi	r24, 0x00	; 0
    18b2:	90 e0       	ldi	r25, 0x00	; 0
    18b4:	0e 94 e0 3a 	call	0x75c0	; 0x75c0 <__floatunsisf>
    18b8:	2f e8       	ldi	r18, 0x8F	; 143
    18ba:	32 ec       	ldi	r19, 0xC2	; 194
    18bc:	45 ef       	ldi	r20, 0xF5	; 245
    18be:	5c e3       	ldi	r21, 0x3C	; 60
    18c0:	0e 94 58 38 	call	0x70b0	; 0x70b0 <__mulsf3>
    18c4:	9b 01       	movw	r18, r22
    18c6:	ac 01       	movw	r20, r24
    18c8:	c8 01       	movw	r24, r16
    18ca:	b7 01       	movw	r22, r14
    18cc:	0e 94 2b 38 	call	0x7056	; 0x7056 <__addsf3>
    18d0:	6d 83       	std	Y+5, r22	; 0x05
    18d2:	7e 83       	std	Y+6, r23	; 0x06
    18d4:	8f 83       	std	Y+7, r24	; 0x07
    18d6:	98 87       	std	Y+8, r25	; 0x08
    18d8:	60 93 bf 09 	sts	0x09BF, r22
    18dc:	70 93 c0 09 	sts	0x09C0, r23
    18e0:	80 93 c1 09 	sts	0x09C1, r24
    18e4:	90 93 c2 09 	sts	0x09C2, r25
		fADBuf[3] = fADBuf[3] * 0.97 + ADbuf[3] * 0.03;
    18e8:	60 91 c3 09 	lds	r22, 0x09C3
    18ec:	70 91 c4 09 	lds	r23, 0x09C4
    18f0:	80 91 c5 09 	lds	r24, 0x09C5
    18f4:	90 91 c6 09 	lds	r25, 0x09C6
    18f8:	2c ee       	ldi	r18, 0xEC	; 236
    18fa:	31 e5       	ldi	r19, 0x51	; 81
    18fc:	48 e7       	ldi	r20, 0x78	; 120
    18fe:	5f e3       	ldi	r21, 0x3F	; 63
    1900:	0e 94 58 38 	call	0x70b0	; 0x70b0 <__mulsf3>
    1904:	7b 01       	movw	r14, r22
    1906:	8c 01       	movw	r16, r24
    1908:	60 91 cd 09 	lds	r22, 0x09CD
    190c:	70 91 ce 09 	lds	r23, 0x09CE
    1910:	80 e0       	ldi	r24, 0x00	; 0
    1912:	90 e0       	ldi	r25, 0x00	; 0
    1914:	0e 94 e0 3a 	call	0x75c0	; 0x75c0 <__floatunsisf>
    1918:	2f e8       	ldi	r18, 0x8F	; 143
    191a:	32 ec       	ldi	r19, 0xC2	; 194
    191c:	45 ef       	ldi	r20, 0xF5	; 245
    191e:	5c e3       	ldi	r21, 0x3C	; 60
    1920:	0e 94 58 38 	call	0x70b0	; 0x70b0 <__mulsf3>
    1924:	9b 01       	movw	r18, r22
    1926:	ac 01       	movw	r20, r24
    1928:	c8 01       	movw	r24, r16
    192a:	b7 01       	movw	r22, r14
    192c:	0e 94 2b 38 	call	0x7056	; 0x7056 <__addsf3>
    1930:	69 87       	std	Y+9, r22	; 0x09
    1932:	7a 87       	std	Y+10, r23	; 0x0a
    1934:	8b 87       	std	Y+11, r24	; 0x0b
    1936:	9c 87       	std	Y+12, r25	; 0x0c
    1938:	60 93 c3 09 	sts	0x09C3, r22
    193c:	70 93 c4 09 	sts	0x09C4, r23
    1940:	80 93 c5 09 	sts	0x09C5, r24
    1944:	90 93 c6 09 	sts	0x09C6, r25
		
		Det_Analog_Data = (ADC_ANALOG_A_FACTOR * fADBuf[0]) + ADC_ANALOG_B_FACTOR;
    1948:	60 90 a7 09 	lds	r6, 0x09A7
    194c:	70 90 a8 09 	lds	r7, 0x09A8
    1950:	80 90 a9 09 	lds	r8, 0x09A9
    1954:	90 90 aa 09 	lds	r9, 0x09AA
    1958:	a0 90 cf 09 	lds	r10, 0x09CF
    195c:	b0 90 d0 09 	lds	r11, 0x09D0
    1960:	c0 90 d1 09 	lds	r12, 0x09D1
    1964:	d0 90 d2 09 	lds	r13, 0x09D2
    1968:	c4 01       	movw	r24, r8
    196a:	b3 01       	movw	r22, r6
    196c:	a6 01       	movw	r20, r12
    196e:	95 01       	movw	r18, r10
    1970:	0e 94 fa 37 	call	0x6ff4	; 0x6ff4 <__subsf3>
    1974:	9b 01       	movw	r18, r22
    1976:	ac 01       	movw	r20, r24
    1978:	60 e0       	ldi	r22, 0x00	; 0
    197a:	70 e0       	ldi	r23, 0x00	; 0
    197c:	88 ec       	ldi	r24, 0xC8	; 200
    197e:	94 e4       	ldi	r25, 0x44	; 68
    1980:	0e 94 52 39 	call	0x72a4	; 0x72a4 <__divsf3>
    1984:	a2 01       	movw	r20, r4
    1986:	91 01       	movw	r18, r2
    1988:	0e 94 58 38 	call	0x70b0	; 0x70b0 <__mulsf3>
    198c:	1b 01       	movw	r2, r22
    198e:	2c 01       	movw	r4, r24
    1990:	c6 01       	movw	r24, r12
    1992:	b5 01       	movw	r22, r10
    1994:	20 e0       	ldi	r18, 0x00	; 0
    1996:	30 e0       	ldi	r19, 0x00	; 0
    1998:	4a ef       	ldi	r20, 0xFA	; 250
    199a:	54 e4       	ldi	r21, 0x44	; 68
    199c:	0e 94 58 38 	call	0x70b0	; 0x70b0 <__mulsf3>
    19a0:	7b 01       	movw	r14, r22
    19a2:	8c 01       	movw	r16, r24
    19a4:	c4 01       	movw	r24, r8
    19a6:	b3 01       	movw	r22, r6
    19a8:	20 e0       	ldi	r18, 0x00	; 0
    19aa:	30 e0       	ldi	r19, 0x00	; 0
    19ac:	48 ec       	ldi	r20, 0xC8	; 200
    19ae:	53 ec       	ldi	r21, 0xC3	; 195
    19b0:	0e 94 58 38 	call	0x70b0	; 0x70b0 <__mulsf3>
    19b4:	9b 01       	movw	r18, r22
    19b6:	ac 01       	movw	r20, r24
    19b8:	c8 01       	movw	r24, r16
    19ba:	b7 01       	movw	r22, r14
    19bc:	0e 94 2b 38 	call	0x7056	; 0x7056 <__addsf3>
    19c0:	7b 01       	movw	r14, r22
    19c2:	8c 01       	movw	r16, r24
    19c4:	c6 01       	movw	r24, r12
    19c6:	b5 01       	movw	r22, r10
    19c8:	a4 01       	movw	r20, r8
    19ca:	93 01       	movw	r18, r6
    19cc:	0e 94 fa 37 	call	0x6ff4	; 0x6ff4 <__subsf3>
    19d0:	9b 01       	movw	r18, r22
    19d2:	ac 01       	movw	r20, r24
    19d4:	c8 01       	movw	r24, r16
    19d6:	b7 01       	movw	r22, r14
    19d8:	0e 94 52 39 	call	0x72a4	; 0x72a4 <__divsf3>
    19dc:	9b 01       	movw	r18, r22
    19de:	ac 01       	movw	r20, r24
    19e0:	c2 01       	movw	r24, r4
    19e2:	b1 01       	movw	r22, r2
    19e4:	0e 94 2b 38 	call	0x7056	; 0x7056 <__addsf3>
    19e8:	0e 94 82 36 	call	0x6d04	; 0x6d04 <__fixunssfsi>
    19ec:	70 93 a2 09 	sts	0x09A2, r23
    19f0:	60 93 a1 09 	sts	0x09A1, r22
		P24 = fADBuf[1] * ADC_P24_SEN_FACTOR + 0.5;
    19f4:	69 81       	ldd	r22, Y+1	; 0x01
    19f6:	7a 81       	ldd	r23, Y+2	; 0x02
    19f8:	8b 81       	ldd	r24, Y+3	; 0x03
    19fa:	9c 81       	ldd	r25, Y+4	; 0x04
    19fc:	29 e5       	ldi	r18, 0x59	; 89
    19fe:	30 ee       	ldi	r19, 0xE0	; 224
    1a00:	45 e1       	ldi	r20, 0x15	; 21
    1a02:	5d e3       	ldi	r21, 0x3D	; 61
    1a04:	0e 94 58 38 	call	0x70b0	; 0x70b0 <__mulsf3>
    1a08:	20 e0       	ldi	r18, 0x00	; 0
    1a0a:	30 e0       	ldi	r19, 0x00	; 0
    1a0c:	40 e0       	ldi	r20, 0x00	; 0
    1a0e:	5f e3       	ldi	r21, 0x3F	; 63
    1a10:	0e 94 2b 38 	call	0x7056	; 0x7056 <__addsf3>
    1a14:	60 93 ab 09 	sts	0x09AB, r22
    1a18:	70 93 ac 09 	sts	0x09AC, r23
    1a1c:	80 93 ad 09 	sts	0x09AD, r24
    1a20:	90 93 ae 09 	sts	0x09AE, r25
		POUT = fADBuf[2] * ADC_POUT_FACTOR;
    1a24:	6d 81       	ldd	r22, Y+5	; 0x05
    1a26:	7e 81       	ldd	r23, Y+6	; 0x06
    1a28:	8f 81       	ldd	r24, Y+7	; 0x07
    1a2a:	98 85       	ldd	r25, Y+8	; 0x08
    1a2c:	29 e5       	ldi	r18, 0x59	; 89
    1a2e:	30 ee       	ldi	r19, 0xE0	; 224
    1a30:	45 e1       	ldi	r20, 0x15	; 21
    1a32:	5d e3       	ldi	r21, 0x3D	; 61
    1a34:	0e 94 58 38 	call	0x70b0	; 0x70b0 <__mulsf3>
    1a38:	60 93 a3 09 	sts	0x09A3, r22
    1a3c:	70 93 a4 09 	sts	0x09A4, r23
    1a40:	80 93 a5 09 	sts	0x09A5, r24
    1a44:	90 93 a6 09 	sts	0x09A6, r25
		//Tempareture = pgm_read_float( &Temp_Table[(U16)fADBuf[3]] );
		DAC_Out = fADBuf[3] * ADC_DAC_OUT_FACTOR;
    1a48:	69 85       	ldd	r22, Y+9	; 0x09
    1a4a:	7a 85       	ldd	r23, Y+10	; 0x0a
    1a4c:	8b 85       	ldd	r24, Y+11	; 0x0b
    1a4e:	9c 85       	ldd	r25, Y+12	; 0x0c
    1a50:	2a e0       	ldi	r18, 0x0A	; 10
    1a52:	37 ed       	ldi	r19, 0xD7	; 215
    1a54:	43 ea       	ldi	r20, 0xA3	; 163
    1a56:	5b e3       	ldi	r21, 0x3B	; 59
    1a58:	0e 94 58 38 	call	0x70b0	; 0x70b0 <__mulsf3>
    1a5c:	60 93 b3 09 	sts	0x09B3, r22
    1a60:	70 93 b4 09 	sts	0x09B4, r23
    1a64:	80 93 b5 09 	sts	0x09B5, r24
    1a68:	90 93 b6 09 	sts	0x09B6, r25
		
	}
}
    1a6c:	2c 96       	adiw	r28, 0x0c	; 12
    1a6e:	0f b6       	in	r0, 0x3f	; 63
    1a70:	f8 94       	cli
    1a72:	de bf       	out	0x3e, r29	; 62
    1a74:	0f be       	out	0x3f, r0	; 63
    1a76:	cd bf       	out	0x3d, r28	; 61
    1a78:	cf 91       	pop	r28
    1a7a:	df 91       	pop	r29
    1a7c:	1f 91       	pop	r17
    1a7e:	0f 91       	pop	r16
    1a80:	ff 90       	pop	r15
    1a82:	ef 90       	pop	r14
    1a84:	df 90       	pop	r13
    1a86:	cf 90       	pop	r12
    1a88:	bf 90       	pop	r11
    1a8a:	af 90       	pop	r10
    1a8c:	9f 90       	pop	r9
    1a8e:	8f 90       	pop	r8
    1a90:	7f 90       	pop	r7
    1a92:	6f 90       	pop	r6
    1a94:	5f 90       	pop	r5
    1a96:	4f 90       	pop	r4
    1a98:	3f 90       	pop	r3
    1a9a:	2f 90       	pop	r2
    1a9c:	08 95       	ret

00001a9e <ADC_Factor>:

void ADC_Factor(void)
{
	mA_x1 = epr_sm[EEP_4mA_Data];
    1a9e:	60 91 e5 09 	lds	r22, 0x09E5
    1aa2:	70 91 e6 09 	lds	r23, 0x09E6
    1aa6:	88 27       	eor	r24, r24
    1aa8:	77 fd       	sbrc	r23, 7
    1aaa:	80 95       	com	r24
    1aac:	98 2f       	mov	r25, r24
    1aae:	0e 94 2e 3a 	call	0x745c	; 0x745c <__floatsisf>
    1ab2:	60 93 cf 09 	sts	0x09CF, r22
    1ab6:	70 93 d0 09 	sts	0x09D0, r23
    1aba:	80 93 d1 09 	sts	0x09D1, r24
    1abe:	90 93 d2 09 	sts	0x09D2, r25
	mA_x2 = epr_sm[EEP_20mA_Data];
    1ac2:	60 91 e7 09 	lds	r22, 0x09E7
    1ac6:	70 91 e8 09 	lds	r23, 0x09E8
    1aca:	88 27       	eor	r24, r24
    1acc:	77 fd       	sbrc	r23, 7
    1ace:	80 95       	com	r24
    1ad0:	98 2f       	mov	r25, r24
    1ad2:	0e 94 2e 3a 	call	0x745c	; 0x745c <__floatsisf>
    1ad6:	60 93 a7 09 	sts	0x09A7, r22
    1ada:	70 93 a8 09 	sts	0x09A8, r23
    1ade:	80 93 a9 09 	sts	0x09A9, r24
    1ae2:	90 93 aa 09 	sts	0x09AA, r25
    1ae6:	08 95       	ret

00001ae8 <EEP_Rd>:
{
	U16		wadd, data;
	
	wadd = addr*2;
	
	data = eeprom_read_word( (U16*)wadd );
    1ae8:	88 0f       	add	r24, r24
    1aea:	99 1f       	adc	r25, r25
    1aec:	0e 94 25 40 	call	0x804a	; 0x804a <__eerd_word_m2560>
	
	return data;
}
    1af0:	08 95       	ret

00001af2 <EEP_Wr>:
{
	U16		wadd;
	
	wadd = addr*2;
	
	eeprom_update_word( (U16*)wadd, data );
    1af2:	88 0f       	add	r24, r24
    1af4:	99 1f       	adc	r25, r25
    1af6:	0e 94 2b 40 	call	0x8056	; 0x8056 <__eeupd_word_m2560>
}
    1afa:	08 95       	ret

00001afc <EEP_SysFormat>:
	Delay_ms( 500 );
}

/////////////////////////////////////////////////////////////////////////////////////////////////////////////////////////////////////
void EEP_SysFormat( void )
{
    1afc:	cf 93       	push	r28
    1afe:	df 93       	push	r29
    1b00:	c0 e0       	ldi	r28, 0x00	; 0
    1b02:	d0 e0       	ldi	r29, 0x00	; 0
    1b04:	fe 01       	movw	r30, r28
    1b06:	ec 51       	subi	r30, 0x1C	; 28
    1b08:	ff 4e       	sbci	r31, 0xEF	; 239
	U16		i;
	
	for( i=0; i<EEP_MAX; i++ ){
		epr_sm[i] = pgm_read_word( &EEP_SYS_DEFAULT[i] );
    1b0a:	65 91       	lpm	r22, Z+
    1b0c:	74 91       	lpm	r23, Z+
    1b0e:	fe 01       	movw	r30, r28
    1b10:	e7 52       	subi	r30, 0x27	; 39
    1b12:	f6 4f       	sbci	r31, 0xF6	; 246
    1b14:	71 83       	std	Z+1, r23	; 0x01
    1b16:	60 83       	st	Z, r22
{
	U16		wadd;
	
	wadd = addr*2;
	
	eeprom_update_word( (U16*)wadd, data );
    1b18:	ce 01       	movw	r24, r28
    1b1a:	0e 94 2b 40 	call	0x8056	; 0x8056 <__eeupd_word_m2560>
    1b1e:	22 96       	adiw	r28, 0x02	; 2
/////////////////////////////////////////////////////////////////////////////////////////////////////////////////////////////////////
void EEP_SysFormat( void )
{
	U16		i;
	
	for( i=0; i<EEP_MAX; i++ ){
    1b20:	c8 31       	cpi	r28, 0x18	; 24
    1b22:	d1 05       	cpc	r29, r1
    1b24:	79 f7       	brne	.-34     	; 0x1b04 <EEP_SysFormat+0x8>
		epr_sm[i] = pgm_read_word( &EEP_SYS_DEFAULT[i] );
		EEP_Wr( i, epr_sm[i] );
	}
}
    1b26:	df 91       	pop	r29
    1b28:	cf 91       	pop	r28
    1b2a:	08 95       	ret

00001b2c <EEP_Load>:
	return data;
}

/////////////////////////////////////////////////////////////////////////////////////////////////////////////////////////////////////
void EEP_Load( void )
{
    1b2c:	cf 93       	push	r28
    1b2e:	df 93       	push	r29
{
	U16		wadd, data;
	
	wadd = addr*2;
	
	data = eeprom_read_word( (U16*)wadd );
    1b30:	84 e0       	ldi	r24, 0x04	; 4
    1b32:	90 e0       	ldi	r25, 0x00	; 0
    1b34:	0e 94 25 40 	call	0x804a	; 0x804a <__eerd_word_m2560>
/////////////////////////////////////////////////////////////////////////////////////////////////////////////////////////////////////
void EEP_Load( void )
{
	U16		i;
	
	if( EEP_Rd( EEP_PREFIX ) != EEPROM_MARKING ){
    1b38:	80 59       	subi	r24, 0x90	; 144
    1b3a:	9c 4d       	sbci	r25, 0xDC	; 220
    1b3c:	19 f0       	breq	.+6      	; 0x1b44 <EEP_Load+0x18>
		EEP_SysFormat();
    1b3e:	0e 94 7e 0d 	call	0x1afc	; 0x1afc <EEP_SysFormat>
    1b42:	12 c0       	rjmp	.+36     	; 0x1b68 <EEP_Load+0x3c>
    1b44:	c0 e0       	ldi	r28, 0x00	; 0
    1b46:	d0 e0       	ldi	r29, 0x00	; 0
{
	U16		wadd, data;
	
	wadd = addr*2;
	
	data = eeprom_read_word( (U16*)wadd );
    1b48:	ce 01       	movw	r24, r28
    1b4a:	0e 94 25 40 	call	0x804a	; 0x804a <__eerd_word_m2560>
	if( EEP_Rd( EEP_PREFIX ) != EEPROM_MARKING ){
		EEP_SysFormat();
	}
	else {
		for(i=0; i<EEP_MAX; i++){
			epr_sm[i] = EEP_Rd(i);
    1b4e:	fe 01       	movw	r30, r28
    1b50:	e7 52       	subi	r30, 0x27	; 39
    1b52:	f6 4f       	sbci	r31, 0xF6	; 246
    1b54:	91 83       	std	Z+1, r25	; 0x01
    1b56:	80 83       	st	Z, r24
			Delay_ms( 1 );
    1b58:	81 e0       	ldi	r24, 0x01	; 1
    1b5a:	90 e0       	ldi	r25, 0x00	; 0
    1b5c:	0e 94 1d 2b 	call	0x563a	; 0x563a <Delay_ms>
    1b60:	22 96       	adiw	r28, 0x02	; 2
	
	if( EEP_Rd( EEP_PREFIX ) != EEPROM_MARKING ){
		EEP_SysFormat();
	}
	else {
		for(i=0; i<EEP_MAX; i++){
    1b62:	c8 31       	cpi	r28, 0x18	; 24
    1b64:	d1 05       	cpc	r29, r1
    1b66:	81 f7       	brne	.-32     	; 0x1b48 <EEP_Load+0x1c>
			epr_sm[i] = EEP_Rd(i);
			Delay_ms( 1 );
		}
	}
	
	Device_Mode_Select = epr_sm[EEP_Device_Mode_Select];
    1b68:	80 91 ef 09 	lds	r24, 0x09EF
    1b6c:	80 93 d9 0a 	sts	0x0AD9, r24
	Delay_ms( 500 );
    1b70:	84 ef       	ldi	r24, 0xF4	; 244
    1b72:	91 e0       	ldi	r25, 0x01	; 1
    1b74:	0e 94 1d 2b 	call	0x563a	; 0x563a <Delay_ms>
}
    1b78:	df 91       	pop	r29
    1b7a:	cf 91       	pop	r28
    1b7c:	08 95       	ret

00001b7e <Initailize_Eeprom>:
void EEP_Load( void );
void EEP_SysFormat( void );
/////////////////////////////////////////////////////////////////////////////////////////////////////////////////////////////////////
void Initailize_Eeprom(void)
{
	EEP_Load();
    1b7e:	0e 94 96 0d 	call	0x1b2c	; 0x1b2c <EEP_Load>
}
    1b82:	08 95       	ret

00001b84 <EEP_Sys_Wr>:
	eeprom_update_word( (U16*)wadd, data );
}

/////////////////////////////////////////////////////////////////////////////////////////////////////////////////////////////////////
void EEP_Sys_Wr( U16 addr, S16 data )
{
    1b84:	cf 93       	push	r28
    1b86:	df 93       	push	r29
    1b88:	ec 01       	movw	r28, r24
	epr_sm[addr] = data;
    1b8a:	88 0f       	add	r24, r24
    1b8c:	99 1f       	adc	r25, r25
    1b8e:	fc 01       	movw	r30, r24
    1b90:	e7 52       	subi	r30, 0x27	; 39
    1b92:	f6 4f       	sbci	r31, 0xF6	; 246
    1b94:	71 83       	std	Z+1, r23	; 0x01
    1b96:	60 83       	st	Z, r22
{
	U16		wadd;
	
	wadd = addr*2;
	
	eeprom_update_word( (U16*)wadd, data );
    1b98:	0e 94 2b 40 	call	0x8056	; 0x8056 <__eeupd_word_m2560>
void EEP_Sys_Wr( U16 addr, S16 data )
{
	epr_sm[addr] = data;
	EEP_Wr( addr, data );

	switch( addr ){
    1b9c:	c6 30       	cpi	r28, 0x06	; 6
    1b9e:	d1 05       	cpc	r29, r1
    1ba0:	c9 f0       	breq	.+50     	; 0x1bd4 <EEP_Sys_Wr+0x50>
    1ba2:	c7 30       	cpi	r28, 0x07	; 7
    1ba4:	d1 05       	cpc	r29, r1
    1ba6:	30 f4       	brcc	.+12     	; 0x1bb4 <EEP_Sys_Wr+0x30>
    1ba8:	c4 30       	cpi	r28, 0x04	; 4
    1baa:	d1 05       	cpc	r29, r1
    1bac:	49 f0       	breq	.+18     	; 0x1bc0 <EEP_Sys_Wr+0x3c>
    1bae:	25 97       	sbiw	r28, 0x05	; 5
    1bb0:	e9 f5       	brne	.+122    	; 0x1c2c <EEP_Sys_Wr+0xa8>
    1bb2:	0b c0       	rjmp	.+22     	; 0x1bca <EEP_Sys_Wr+0x46>
    1bb4:	c7 30       	cpi	r28, 0x07	; 7
    1bb6:	d1 05       	cpc	r29, r1
    1bb8:	01 f1       	breq	.+64     	; 0x1bfa <EEP_Sys_Wr+0x76>
    1bba:	2b 97       	sbiw	r28, 0x0b	; 11
    1bbc:	b9 f5       	brne	.+110    	; 0x1c2c <EEP_Sys_Wr+0xa8>
    1bbe:	32 c0       	rjmp	.+100    	; 0x1c24 <EEP_Sys_Wr+0xa0>
		case EEP_Detector_Address:
			Det_Address = epr_sm[addr];
    1bc0:	80 91 e1 09 	lds	r24, 0x09E1
    1bc4:	80 93 f9 0e 	sts	0x0EF9, r24
    1bc8:	31 c0       	rjmp	.+98     	; 0x1c2c <EEP_Sys_Wr+0xa8>
			break;
		case EEP_Device_Address:
			Dvc_Address = epr_sm[addr];
    1bca:	80 91 e3 09 	lds	r24, 0x09E3
    1bce:	80 93 fa 0e 	sts	0x0EFA, r24
    1bd2:	2c c0       	rjmp	.+88     	; 0x1c2c <EEP_Sys_Wr+0xa8>
			break;
		case EEP_4mA_Data:
			mA_x1 = epr_sm[addr];
    1bd4:	60 91 e5 09 	lds	r22, 0x09E5
    1bd8:	70 91 e6 09 	lds	r23, 0x09E6
    1bdc:	88 27       	eor	r24, r24
    1bde:	77 fd       	sbrc	r23, 7
    1be0:	80 95       	com	r24
    1be2:	98 2f       	mov	r25, r24
    1be4:	0e 94 2e 3a 	call	0x745c	; 0x745c <__floatsisf>
    1be8:	60 93 cf 09 	sts	0x09CF, r22
    1bec:	70 93 d0 09 	sts	0x09D0, r23
    1bf0:	80 93 d1 09 	sts	0x09D1, r24
    1bf4:	90 93 d2 09 	sts	0x09D2, r25
    1bf8:	12 c0       	rjmp	.+36     	; 0x1c1e <EEP_Sys_Wr+0x9a>
			ADC_Factor();
			break;
		case EEP_20mA_Data:
			mA_x2 = epr_sm[addr];
    1bfa:	60 91 e7 09 	lds	r22, 0x09E7
    1bfe:	70 91 e8 09 	lds	r23, 0x09E8
    1c02:	88 27       	eor	r24, r24
    1c04:	77 fd       	sbrc	r23, 7
    1c06:	80 95       	com	r24
    1c08:	98 2f       	mov	r25, r24
    1c0a:	0e 94 2e 3a 	call	0x745c	; 0x745c <__floatsisf>
    1c0e:	60 93 a7 09 	sts	0x09A7, r22
    1c12:	70 93 a8 09 	sts	0x09A8, r23
    1c16:	80 93 a9 09 	sts	0x09A9, r24
    1c1a:	90 93 aa 09 	sts	0x09AA, r25
			ADC_Factor();
    1c1e:	0e 94 4f 0d 	call	0x1a9e	; 0x1a9e <ADC_Factor>
    1c22:	04 c0       	rjmp	.+8      	; 0x1c2c <EEP_Sys_Wr+0xa8>
			break;
		case EEP_Device_Mode_Select:
			Device_Mode_Select = epr_sm[addr];
    1c24:	80 91 ef 09 	lds	r24, 0x09EF
    1c28:	80 93 d9 0a 	sts	0x0AD9, r24
			break;
	}
}
    1c2c:	df 91       	pop	r29
    1c2e:	cf 91       	pop	r28
    1c30:	08 95       	ret

00001c32 <Initialize_GPIO>:
	//-----+-----+-----+-------------------------------+
	//     |BIT1 | IN  | -
	//-----+-----+-----+-------------------------------+
	//     |BIT0 | IN  | -
	//-----+-----+-------------------------------------+
	DDRA 	= 0x0f;	//0000 0000
    1c32:	8f e0       	ldi	r24, 0x0F	; 15
    1c34:	81 b9       	out	0x01, r24	; 1
	PORTA 	= 0x00;	//0000 0000
    1c36:	12 b8       	out	0x02, r1	; 2
	//-----+-----+-----+-------------------------------+
	//     |BIT1 | OUT | ISP_SCLK
	//-----+-----+-----+-------------------------------+
	//     |BIT0 | IN  | -
	//-----+-----+-------------------------------------+
	DDRB	= 0x07;	//0000 0111
    1c38:	87 e0       	ldi	r24, 0x07	; 7
    1c3a:	84 b9       	out	0x04, r24	; 4
	PORTB	= 0x00;	//0000 0000
    1c3c:	15 b8       	out	0x05, r1	; 5
	//-----+-----+-----+-------------------------------+
	//     |BIT1 | OUT | mA BLU LED
	//-----+-----+-----+-------------------------------+
	//     |BIT0 | OUT | mA RED LED
	//-----+-----+-------------------------------------+
	DDRC 	= 0xFF;	//1111 1111
    1c3e:	9f ef       	ldi	r25, 0xFF	; 255
    1c40:	97 b9       	out	0x07, r25	; 7
	PORTC	= 0x00;	//0000 0000
    1c42:	18 b8       	out	0x08, r1	; 8
	//-----+-----+-----+-------------------------------+
	//     |BIT1 | IN  | -
	//-----+-----+-----+-------------------------------+
	//     |BIT0 | IN  | -
	//-----+-----+-------------------------------------+
	DDRD	= 0x00;	//0000 0000
    1c44:	1a b8       	out	0x0a, r1	; 10
	PORTD	= 0x00;	//0000 0000
    1c46:	1b b8       	out	0x0b, r1	; 11
	//-----+-----+-----+-------------------------------+
	//     |BIT1 | IN  | DBG_TX
	//-----+-----+-----+-------------------------------+
	//     |BIT0 | IN  | DBG_RX
	//-----+-----+-------------------------------------+
	DDRE	= 0x00;	//0000 0000
    1c48:	1d b8       	out	0x0d, r1	; 13
	PORTE	= 0xFC;	//0000 0000
    1c4a:	8c ef       	ldi	r24, 0xFC	; 252
    1c4c:	8e b9       	out	0x0e, r24	; 14
	//-----+-----+-----+-------------------------------+
	//     |BIT1 | IN  | aP24
	//-----+-----+-----+-------------------------------+
	//     |BIT0 | IN  | ADIN
	//-----+-----+-------------------------------------+
	DDRF	= 0x00;	//0000 0000
    1c4e:	10 ba       	out	0x10, r1	; 16
	PORTF	= 0x00;	//0000 0000
    1c50:	11 ba       	out	0x11, r1	; 17
	//-----+-----+-----+-------------------------------+
	//     |BIT1 | IN  | -
	//-----+-----+-----+-------------------------------+
	//     |BIT0 | IN  | -
	//-----+-----+-------------------------------------+
	DDRG	= 0x21;	//0010 0000
    1c52:	81 e2       	ldi	r24, 0x21	; 33
    1c54:	83 bb       	out	0x13, r24	; 19
	PORTG	= 0x00;	//0000 0000
    1c56:	14 ba       	out	0x14, r1	; 20
	//-----+-----+-----+-------------------------------+
	//     |BIT1 | IN  | 485_TX
	//-----+-----+-----+-------------------------------+
	//     |BIT0 | IN  | 485_RX
	//-----+-----+-------------------------------------+
	DDRH	= 0xEC;	//1110 1100
    1c58:	8c ee       	ldi	r24, 0xEC	; 236
    1c5a:	80 93 01 01 	sts	0x0101, r24
	PORTH	= 0x00;	//0000 0000
    1c5e:	10 92 02 01 	sts	0x0102, r1
	//-----+-----+-----+-------------------------------+
	//     |BIT0 | IN  | -
	//-----+-----+-------------------------------------+
	//DDRJ	= 0x8C;	//1000 0000
	//PORTJ	= 0x0C;	//0000 0000
	DDRJ	= 0x84;	//1000 0000
    1c62:	84 e8       	ldi	r24, 0x84	; 132
    1c64:	80 93 04 01 	sts	0x0104, r24
	PORTJ	= 0x78;	//0000 0000
    1c68:	88 e7       	ldi	r24, 0x78	; 120
    1c6a:	80 93 05 01 	sts	0x0105, r24
	//-----+-----+-----+-------------------------------+
	//     |BIT1 | OUT | LCD_D5
	//-----+-----+-----+-------------------------------+
	//     |BIT0 | OUT | LCD_D4
	//-----+-----+-------------------------------------+
	DDRK	= 0xFF;	//1111 1111
    1c6e:	90 93 07 01 	sts	0x0107, r25
	PORTK	= 0x00;	//1000 0000
    1c72:	10 92 08 01 	sts	0x0108, r1
	//-----+-----+-----+-------------------------------+
	//     |BIT1 | OUT | Alarm LED
	//-----+-----+-----+-------------------------------+
	//     |BIT0 | OUT | Status LED
	//-----+-----+-------------------------------------+
	DDRL	= 0xFF;	//0001 1111
    1c76:	90 93 0a 01 	sts	0x010A, r25
	PORTL	= 0x00;	//0000 0000
    1c7a:	10 92 0b 01 	sts	0x010B, r1
	
	MCUCR = 0x00;
    1c7e:	15 be       	out	0x35, r1	; 53
}
    1c80:	08 95       	ret

00001c82 <LCD_busy_check>:
	//	Count++;
	//}
}

void LCD_busy_check(void)
{
    1c82:	80 e0       	ldi	r24, 0x00	; 0
    can be achieved.
*/
void
_delay_loop_1(uint8_t __count)
{
	__asm__ volatile (
    1c84:	2a e1       	ldi	r18, 0x1A	; 26
    1c86:	92 2f       	mov	r25, r18
    1c88:	9a 95       	dec	r25
    1c8a:	f1 f7       	brne	.-4      	; 0x1c88 <LCD_busy_check+0x6>
	U8 Count;
	for (Count=0; Count < 25; Count++)
    1c8c:	8f 5f       	subi	r24, 0xFF	; 255
    1c8e:	89 31       	cpi	r24, 0x19	; 25
    1c90:	d1 f7       	brne	.-12     	; 0x1c86 <LCD_busy_check+0x4>
	{
		LCD_Port_Delay();
	}
}
    1c92:	08 95       	ret

00001c94 <LCD_DataPort_Output>:

void LCD_DataPort_Output(U8 Data)
{
	U8 sta=0;
	
	sta = PORTK & 0xf0;     						  // PORTK high bit & 0xf0
    1c94:	e8 e0       	ldi	r30, 0x08	; 8
    1c96:	f1 e0       	ldi	r31, 0x01	; 1
    1c98:	90 81       	ld	r25, Z
	sta |= ( Data & (0x0f) ); 						  // low bit high
    1c9a:	8f 70       	andi	r24, 0x0F	; 15
    1c9c:	90 7f       	andi	r25, 0xF0	; 240
    1c9e:	89 2b       	or	r24, r25
	PORTK = sta;
    1ca0:	80 83       	st	Z, r24
}
    1ca2:	08 95       	ret

00001ca4 <LCD_Port_Delay>:
    1ca4:	8a e1       	ldi	r24, 0x1A	; 26
    1ca6:	8a 95       	dec	r24
    1ca8:	f1 f7       	brne	.-4      	; 0x1ca6 <LCD_Port_Delay+0x2>

void LCD_Port_Delay(void)
{
	_delay_us(5);									 // 5uS Delay
}
    1caa:	08 95       	ret

00001cac <LCD_wr_latch>:
    1cac:	9a e1       	ldi	r25, 0x1A	; 26
    1cae:	89 2f       	mov	r24, r25
    1cb0:	8a 95       	dec	r24
    1cb2:	f1 f7       	brne	.-4      	; 0x1cb0 <LCD_wr_latch+0x4>

void LCD_wr_latch(void)
{
	LCD_Port_Delay();
	_PLCD_WE_L;
    1cb4:	e8 e0       	ldi	r30, 0x08	; 8
    1cb6:	f1 e0       	ldi	r31, 0x01	; 1
    1cb8:	80 81       	ld	r24, Z
    1cba:	8f 7e       	andi	r24, 0xEF	; 239
    1cbc:	80 83       	st	Z, r24
    1cbe:	89 2f       	mov	r24, r25
    1cc0:	8a 95       	dec	r24
    1cc2:	f1 f7       	brne	.-4      	; 0x1cc0 <LCD_wr_latch+0x14>
	LCD_Port_Delay();
	_PLCD_ENABLE_H;									//LCD Enable high + Delay 5usec
    1cc4:	80 81       	ld	r24, Z
    1cc6:	80 62       	ori	r24, 0x20	; 32
    1cc8:	80 83       	st	Z, r24
    1cca:	89 2f       	mov	r24, r25
    1ccc:	8a 95       	dec	r24
    1cce:	f1 f7       	brne	.-4      	; 0x1ccc <LCD_wr_latch+0x20>
	LCD_Port_Delay();
	LCD_Port_Delay();
	_PLCD_ENABLE_L;									//LCD Enable low + Delay 5usec
    1cd0:	89 2f       	mov	r24, r25
    1cd2:	8a 95       	dec	r24
    1cd4:	f1 f7       	brne	.-4      	; 0x1cd2 <LCD_wr_latch+0x26>
    1cd6:	80 81       	ld	r24, Z
    1cd8:	8f 7d       	andi	r24, 0xDF	; 223
    1cda:	80 83       	st	Z, r24
    1cdc:	9a 95       	dec	r25
    1cde:	f1 f7       	brne	.-4      	; 0x1cdc <LCD_wr_latch+0x30>
	LCD_Port_Delay();
	_PLCD_WE_H;
    1ce0:	80 81       	ld	r24, Z
    1ce2:	80 61       	ori	r24, 0x10	; 16
    1ce4:	80 83       	st	Z, r24
}
    1ce6:	08 95       	ret

00001ce8 <LCD_dis_add>:
	
	LCD_busy_check();									//LCD busy check
}

void LCD_dis_add(U8 Dadd)
{
    1ce8:	1f 93       	push	r17
    1cea:	18 2f       	mov	r17, r24

void LCD_DataPort_Output(U8 Data)
{
	U8 sta=0;
	
	sta = PORTK & 0xf0;     						  // PORTK high bit & 0xf0
    1cec:	90 91 08 01 	lds	r25, 0x0108
	sta |= ( Data & (0x0f) ); 						  // low bit high
    1cf0:	80 68       	ori	r24, 0x80	; 128
    1cf2:	82 95       	swap	r24
    1cf4:	8f 70       	andi	r24, 0x0F	; 15
    1cf6:	90 7f       	andi	r25, 0xF0	; 240
    1cf8:	89 2b       	or	r24, r25
	PORTK = sta;
    1cfa:	80 93 08 01 	sts	0x0108, r24
}

void LCD_dis_add(U8 Dadd)
{
	LCD_DataPort_Output((U8)((Dadd | 0x80) >> 4));		//Data High Nibble output
	_PLCD_RS_L;											//LCD RS low + Delay 5usec
    1cfe:	80 91 08 01 	lds	r24, 0x0108
    1d02:	8f 7b       	andi	r24, 0xBF	; 191
    1d04:	80 93 08 01 	sts	0x0108, r24
	LCD_wr_latch();
    1d08:	0e 94 56 0e 	call	0x1cac	; 0x1cac <LCD_wr_latch>

void LCD_DataPort_Output(U8 Data)
{
	U8 sta=0;
	
	sta = PORTK & 0xf0;     						  // PORTK high bit & 0xf0
    1d0c:	80 91 08 01 	lds	r24, 0x0108
	sta |= ( Data & (0x0f) ); 						  // low bit high
    1d10:	1f 70       	andi	r17, 0x0F	; 15
    1d12:	80 7f       	andi	r24, 0xF0	; 240
    1d14:	81 2b       	or	r24, r17
	PORTK = sta;
    1d16:	80 93 08 01 	sts	0x0108, r24
	LCD_DataPort_Output((U8)((Dadd | 0x80) >> 4));		//Data High Nibble output
	_PLCD_RS_L;											//LCD RS low + Delay 5usec
	LCD_wr_latch();
	
	LCD_DataPort_Output(Dadd);							//Data Low Nibble output
	LCD_wr_latch();
    1d1a:	0e 94 56 0e 	call	0x1cac	; 0x1cac <LCD_wr_latch>
    1d1e:	80 e0       	ldi	r24, 0x00	; 0
    1d20:	2a e1       	ldi	r18, 0x1A	; 26
    1d22:	92 2f       	mov	r25, r18
    1d24:	9a 95       	dec	r25
    1d26:	f1 f7       	brne	.-4      	; 0x1d24 <LCD_dis_add+0x3c>
}

void LCD_busy_check(void)
{
	U8 Count;
	for (Count=0; Count < 25; Count++)
    1d28:	8f 5f       	subi	r24, 0xFF	; 255
    1d2a:	89 31       	cpi	r24, 0x19	; 25
    1d2c:	d1 f7       	brne	.-12     	; 0x1d22 <LCD_dis_add+0x3a>
    1d2e:	80 e0       	ldi	r24, 0x00	; 0
    1d30:	2a e1       	ldi	r18, 0x1A	; 26
    1d32:	92 2f       	mov	r25, r18
    1d34:	9a 95       	dec	r25
    1d36:	f1 f7       	brne	.-4      	; 0x1d34 <LCD_dis_add+0x4c>
    1d38:	8f 5f       	subi	r24, 0xFF	; 255
    1d3a:	89 31       	cpi	r24, 0x19	; 25
    1d3c:	d1 f7       	brne	.-12     	; 0x1d32 <LCD_dis_add+0x4a>
	LCD_DataPort_Output(Dadd);							//Data Low Nibble output
	LCD_wr_latch();
	
	LCD_busy_check();									//LCD busy check
	LCD_busy_check();									//LCD busy check
}
    1d3e:	1f 91       	pop	r17
    1d40:	08 95       	ret

00001d42 <LCD_dis_data>:
	LCD_DataPort_Output(LCDcommand);					//Data Low Nibble output
	LCD_wr_latch();
}

void LCD_dis_data(U8 Ddata)
{
    1d42:	1f 93       	push	r17
    1d44:	18 2f       	mov	r17, r24

void LCD_DataPort_Output(U8 Data)
{
	U8 sta=0;
	
	sta = PORTK & 0xf0;     						  // PORTK high bit & 0xf0
    1d46:	80 91 08 01 	lds	r24, 0x0108
	sta |= ( Data & (0x0f) ); 						  // low bit high
    1d4a:	91 2f       	mov	r25, r17
    1d4c:	92 95       	swap	r25
    1d4e:	9f 70       	andi	r25, 0x0F	; 15
    1d50:	80 7f       	andi	r24, 0xF0	; 240
    1d52:	98 2b       	or	r25, r24
	PORTK = sta;
    1d54:	90 93 08 01 	sts	0x0108, r25
}

void LCD_dis_data(U8 Ddata)
{
	LCD_DataPort_Output((U8)(Ddata >> 4));				//Data High Nibble output
	_PLCD_RS_H;
    1d58:	80 91 08 01 	lds	r24, 0x0108
    1d5c:	80 64       	ori	r24, 0x40	; 64
    1d5e:	80 93 08 01 	sts	0x0108, r24
	LCD_wr_latch();
    1d62:	0e 94 56 0e 	call	0x1cac	; 0x1cac <LCD_wr_latch>

void LCD_DataPort_Output(U8 Data)
{
	U8 sta=0;
	
	sta = PORTK & 0xf0;     						  // PORTK high bit & 0xf0
    1d66:	80 91 08 01 	lds	r24, 0x0108
	sta |= ( Data & (0x0f) ); 						  // low bit high
    1d6a:	1f 70       	andi	r17, 0x0F	; 15
    1d6c:	80 7f       	andi	r24, 0xF0	; 240
    1d6e:	81 2b       	or	r24, r17
	PORTK = sta;
    1d70:	80 93 08 01 	sts	0x0108, r24
	LCD_DataPort_Output((U8)(Ddata >> 4));				//Data High Nibble output
	_PLCD_RS_H;
	LCD_wr_latch();
	
	LCD_DataPort_Output(Ddata);							//Data Low Nibble output
	LCD_wr_latch();
    1d74:	0e 94 56 0e 	call	0x1cac	; 0x1cac <LCD_wr_latch>
    1d78:	80 e0       	ldi	r24, 0x00	; 0
    1d7a:	2a e1       	ldi	r18, 0x1A	; 26
    1d7c:	92 2f       	mov	r25, r18
    1d7e:	9a 95       	dec	r25
    1d80:	f1 f7       	brne	.-4      	; 0x1d7e <LCD_dis_data+0x3c>
}

void LCD_busy_check(void)
{
	U8 Count;
	for (Count=0; Count < 25; Count++)
    1d82:	8f 5f       	subi	r24, 0xFF	; 255
    1d84:	89 31       	cpi	r24, 0x19	; 25
    1d86:	d1 f7       	brne	.-12     	; 0x1d7c <LCD_dis_data+0x3a>
	
	LCD_DataPort_Output(Ddata);							//Data Low Nibble output
	LCD_wr_latch();
	
	LCD_busy_check();									//LCD busy check
}
    1d88:	1f 91       	pop	r17
    1d8a:	08 95       	ret

00001d8c <LCD_PartDis>:
	LCD_Display(LCDADD_LINE3_0, lcd3_buf);
	LCD_Display(LCDADD_LINE4_0, lcd4_buf);
}

void LCD_PartDis(U8 Dadd, U8 *Dstr, U8 size)
{
    1d8c:	ff 92       	push	r15
    1d8e:	0f 93       	push	r16
    1d90:	1f 93       	push	r17
    1d92:	cf 93       	push	r28
    1d94:	df 93       	push	r29
    1d96:	16 2f       	mov	r17, r22
    1d98:	07 2f       	mov	r16, r23
    1d9a:	f4 2e       	mov	r15, r20
	U8 i;

	LCD_dis_add(Dadd); 									//address output
    1d9c:	0e 94 74 0e 	call	0x1ce8	; 0x1ce8 <LCD_dis_add>
    1da0:	21 2f       	mov	r18, r17
    1da2:	30 2f       	mov	r19, r16
    1da4:	c9 01       	movw	r24, r18
    1da6:	ec 01       	movw	r28, r24
    1da8:	10 e0       	ldi	r17, 0x00	; 0
    1daa:	04 c0       	rjmp	.+8      	; 0x1db4 <LCD_PartDis+0x28>
	for(i=0;i<size;i++)
	{
		LCD_dis_data(Dstr[i]); 							//string data output
    1dac:	89 91       	ld	r24, Y+
    1dae:	0e 94 a1 0e 	call	0x1d42	; 0x1d42 <LCD_dis_data>
void LCD_PartDis(U8 Dadd, U8 *Dstr, U8 size)
{
	U8 i;

	LCD_dis_add(Dadd); 									//address output
	for(i=0;i<size;i++)
    1db2:	1f 5f       	subi	r17, 0xFF	; 255
    1db4:	1f 15       	cp	r17, r15
    1db6:	d0 f3       	brcs	.-12     	; 0x1dac <LCD_PartDis+0x20>
	//while( (Dstr[Count] != _NULL) && (size = 16) )
	//{
	//	LCD_dis_data(Dstr[Count]); 	//string data output
	//	Count++;
	//}
}
    1db8:	df 91       	pop	r29
    1dba:	cf 91       	pop	r28
    1dbc:	1f 91       	pop	r17
    1dbe:	0f 91       	pop	r16
    1dc0:	ff 90       	pop	r15
    1dc2:	08 95       	ret

00001dc4 <LCD_Display>:
	LCD_busy_check();									//LCD busy check
	LCD_busy_check();									//LCD busy check
}

void LCD_Display(U8 Dadd, char *Dstr)
{
    1dc4:	0f 93       	push	r16
    1dc6:	1f 93       	push	r17
    1dc8:	cf 93       	push	r28
    1dca:	df 93       	push	r29
    1dcc:	8b 01       	movw	r16, r22
	U8 Count=0;

	LCD_dis_add(Dadd); 									//address output
    1dce:	0e 94 74 0e 	call	0x1ce8	; 0x1ce8 <LCD_dis_add>
    1dd2:	c0 e0       	ldi	r28, 0x00	; 0
    1dd4:	d0 e0       	ldi	r29, 0x00	; 0
    1dd6:	02 c0       	rjmp	.+4      	; 0x1ddc <LCD_Display+0x18>
	while( (Dstr[Count] != _NULL) && (Count != 16) )
	{
		LCD_dis_data(Dstr[Count]); 						//string data output
    1dd8:	0e 94 a1 0e 	call	0x1d42	; 0x1d42 <LCD_dis_data>
void LCD_Display(U8 Dadd, char *Dstr)
{
	U8 Count=0;

	LCD_dis_add(Dadd); 									//address output
	while( (Dstr[Count] != _NULL) && (Count != 16) )
    1ddc:	f8 01       	movw	r30, r16
    1dde:	ec 0f       	add	r30, r28
    1de0:	fd 1f       	adc	r31, r29
    1de2:	80 81       	ld	r24, Z
    1de4:	88 23       	and	r24, r24
    1de6:	21 f0       	breq	.+8      	; 0x1df0 <LCD_Display+0x2c>
    1de8:	21 96       	adiw	r28, 0x01	; 1
    1dea:	c1 31       	cpi	r28, 0x11	; 17
    1dec:	d1 05       	cpc	r29, r1
    1dee:	a1 f7       	brne	.-24     	; 0x1dd8 <LCD_Display+0x14>
	{
		LCD_dis_data(Dstr[Count]); 						//string data output
		Count++;
	}
}
    1df0:	df 91       	pop	r29
    1df2:	cf 91       	pop	r28
    1df4:	1f 91       	pop	r17
    1df6:	0f 91       	pop	r16
    1df8:	08 95       	ret

00001dfa <LCD_cmd_byte_set>:
	_PLCD_RS_L;											//LCD RS low + Delay 5usec
	LCD_wr_latch();
}

void LCD_cmd_byte_set(U8 LCDcommand)
{
    1dfa:	ff 92       	push	r15
    1dfc:	0f 93       	push	r16
    1dfe:	1f 93       	push	r17
    1e00:	f8 2e       	mov	r15, r24

void LCD_DataPort_Output(U8 Data)
{
	U8 sta=0;
	
	sta = PORTK & 0xf0;     						  // PORTK high bit & 0xf0
    1e02:	08 e0       	ldi	r16, 0x08	; 8
    1e04:	11 e0       	ldi	r17, 0x01	; 1
    1e06:	f8 01       	movw	r30, r16
    1e08:	80 81       	ld	r24, Z
	sta |= ( Data & (0x0f) ); 						  // low bit high
    1e0a:	9f 2d       	mov	r25, r15
    1e0c:	92 95       	swap	r25
    1e0e:	9f 70       	andi	r25, 0x0F	; 15
    1e10:	80 7f       	andi	r24, 0xF0	; 240
    1e12:	98 2b       	or	r25, r24
	PORTK = sta;
    1e14:	90 83       	st	Z, r25
}

void LCD_cmd_byte_set(U8 LCDcommand)
{
	LCD_DataPort_Output((U8)(LCDcommand >> 4));			//Data High Nibble output
	_PLCD_RS_L;
    1e16:	80 81       	ld	r24, Z
    1e18:	8f 7b       	andi	r24, 0xBF	; 191
    1e1a:	80 83       	st	Z, r24
	LCD_wr_latch();
    1e1c:	0e 94 56 0e 	call	0x1cac	; 0x1cac <LCD_wr_latch>

void LCD_DataPort_Output(U8 Data)
{
	U8 sta=0;
	
	sta = PORTK & 0xf0;     						  // PORTK high bit & 0xf0
    1e20:	f8 01       	movw	r30, r16
    1e22:	80 81       	ld	r24, Z
	sta |= ( Data & (0x0f) ); 						  // low bit high
    1e24:	ff e0       	ldi	r31, 0x0F	; 15
    1e26:	ff 22       	and	r15, r31
    1e28:	80 7f       	andi	r24, 0xF0	; 240
    1e2a:	8f 29       	or	r24, r15
	PORTK = sta;
    1e2c:	f8 01       	movw	r30, r16
    1e2e:	80 83       	st	Z, r24
	LCD_DataPort_Output((U8)(LCDcommand >> 4));			//Data High Nibble output
	_PLCD_RS_L;
	LCD_wr_latch();

	LCD_DataPort_Output(LCDcommand);					//Data Low Nibble output
	LCD_wr_latch();
    1e30:	0e 94 56 0e 	call	0x1cac	; 0x1cac <LCD_wr_latch>
}
    1e34:	1f 91       	pop	r17
    1e36:	0f 91       	pop	r16
    1e38:	ff 90       	pop	r15
    1e3a:	08 95       	ret

00001e3c <LCD_cmd_nibble_set>:

void LCD_DataPort_Output(U8 Data)
{
	U8 sta=0;
	
	sta = PORTK & 0xf0;     						  // PORTK high bit & 0xf0
    1e3c:	e8 e0       	ldi	r30, 0x08	; 8
    1e3e:	f1 e0       	ldi	r31, 0x01	; 1
    1e40:	90 81       	ld	r25, Z
	sta |= ( Data & (0x0f) ); 						  // low bit high
    1e42:	82 95       	swap	r24
    1e44:	8f 70       	andi	r24, 0x0F	; 15
    1e46:	90 7f       	andi	r25, 0xF0	; 240
    1e48:	98 2b       	or	r25, r24
	PORTK = sta;
    1e4a:	90 83       	st	Z, r25
}

void LCD_cmd_nibble_set(U8 LCDcommand)
{
	LCD_DataPort_Output( (U8)(LCDcommand >> 4) );		//Data High Nibble output
	_PLCD_RS_L;											//LCD RS low + Delay 5usec
    1e4c:	80 81       	ld	r24, Z
    1e4e:	8f 7b       	andi	r24, 0xBF	; 191
    1e50:	80 83       	st	Z, r24
	LCD_wr_latch();
    1e52:	0e 94 56 0e 	call	0x1cac	; 0x1cac <LCD_wr_latch>
}
    1e56:	08 95       	ret

00001e58 <LCD_Clear_Line>:
	LCD_Port_Delay();
	_PLCD_WE_H;
}

void LCD_Clear_Line(U8 Line)
{
    1e58:	1f 93       	push	r17
	U8 i = 0;

	LCD_dis_add(Line); 								//address output
    1e5a:	0e 94 74 0e 	call	0x1ce8	; 0x1ce8 <LCD_dis_add>
    1e5e:	10 e0       	ldi	r17, 0x00	; 0
	for(i = 0 ; i < 16 ; i++)
	{
		LCD_dis_data(' '); 							//string data output
    1e60:	80 e2       	ldi	r24, 0x20	; 32
    1e62:	0e 94 a1 0e 	call	0x1d42	; 0x1d42 <LCD_dis_data>
void LCD_Clear_Line(U8 Line)
{
	U8 i = 0;

	LCD_dis_add(Line); 								//address output
	for(i = 0 ; i < 16 ; i++)
    1e66:	1f 5f       	subi	r17, 0xFF	; 255
    1e68:	10 31       	cpi	r17, 0x10	; 16
    1e6a:	d1 f7       	brne	.-12     	; 0x1e60 <LCD_Clear_Line+0x8>
	{
		LCD_dis_data(' '); 							//string data output
	}
}
    1e6c:	1f 91       	pop	r17
    1e6e:	08 95       	ret

00001e70 <LCD_Clear_Point>:

void LCD_Clear_Point(U8 Line, U8 Point)
{
    1e70:	1f 93       	push	r17
	U8 i = 0;

	LCD_dis_add(Line); 								//address output
    1e72:	0e 94 74 0e 	call	0x1ce8	; 0x1ce8 <LCD_dis_add>
    1e76:	10 e0       	ldi	r17, 0x00	; 0
	for(i = 0 ; i < 16 ; i++)
	{
		LCD_dis_data(' '); 							//string data output
    1e78:	80 e2       	ldi	r24, 0x20	; 32
    1e7a:	0e 94 a1 0e 	call	0x1d42	; 0x1d42 <LCD_dis_data>
void LCD_Clear_Point(U8 Line, U8 Point)
{
	U8 i = 0;

	LCD_dis_add(Line); 								//address output
	for(i = 0 ; i < 16 ; i++)
    1e7e:	1f 5f       	subi	r17, 0xFF	; 255
    1e80:	10 31       	cpi	r17, 0x10	; 16
    1e82:	d1 f7       	brne	.-12     	; 0x1e78 <LCD_Clear_Point+0x8>
	{
		LCD_dis_data(' '); 							//string data output
	}
}
    1e84:	1f 91       	pop	r17
    1e86:	08 95       	ret

00001e88 <LCD_Clear_Line_All>:

void LCD_Clear_Line_All(void)
{
	LCD_cmd_byte_set((U8)0x01);
    1e88:	81 e0       	ldi	r24, 0x01	; 1
    1e8a:	0e 94 fd 0e 	call	0x1dfa	; 0x1dfa <LCD_cmd_byte_set>
    1e8e:	80 e0       	ldi	r24, 0x00	; 0
    1e90:	2a e1       	ldi	r18, 0x1A	; 26
    1e92:	92 2f       	mov	r25, r18
    1e94:	9a 95       	dec	r25
    1e96:	f1 f7       	brne	.-4      	; 0x1e94 <LCD_Clear_Line_All+0xc>
}

void LCD_busy_check(void)
{
	U8 Count;
	for (Count=0; Count < 25; Count++)
    1e98:	8f 5f       	subi	r24, 0xFF	; 255
    1e9a:	89 31       	cpi	r24, 0x19	; 25
    1e9c:	d1 f7       	brne	.-12     	; 0x1e92 <LCD_Clear_Line_All+0xa>
    milliseconds can be achieved.
 */
void
_delay_loop_2(uint16_t __count)
{
	__asm__ volatile (
    1e9e:	80 e2       	ldi	r24, 0x20	; 32
    1ea0:	9e e4       	ldi	r25, 0x4E	; 78
    1ea2:	01 97       	sbiw	r24, 0x01	; 1
    1ea4:	f1 f7       	brne	.-4      	; 0x1ea2 <LCD_Clear_Line_All+0x1a>
	//LCD_Clear_Line(LCD_LINE2);
	//LCD_Clear_Line(LCD_LINE3);
	//LCD_Clear_Line(LCD_LINE4);
	LCD_busy_check();			//LCD busy check svc
	_delay_ms(5);
}
    1ea6:	08 95       	ret

00001ea8 <LCD_Display_Select_Cursor>:
	}
}

void LCD_Display_Select_Cursor(void)
{
	switch(setting_mode_cursor){
    1ea8:	80 91 35 0a 	lds	r24, 0x0A35
    1eac:	81 30       	cpi	r24, 0x01	; 1
    1eae:	99 f0       	breq	.+38     	; 0x1ed6 <LCD_Display_Select_Cursor+0x2e>
    1eb0:	81 30       	cpi	r24, 0x01	; 1
    1eb2:	30 f0       	brcs	.+12     	; 0x1ec0 <LCD_Display_Select_Cursor+0x18>
    1eb4:	82 30       	cpi	r24, 0x02	; 2
    1eb6:	21 f1       	breq	.+72     	; 0x1f00 <LCD_Display_Select_Cursor+0x58>
    1eb8:	83 30       	cpi	r24, 0x03	; 3
    1eba:	09 f0       	breq	.+2      	; 0x1ebe <LCD_Display_Select_Cursor+0x16>
    1ebc:	58 c0       	rjmp	.+176    	; 0x1f6e <LCD_Display_Select_Cursor+0xc6>
    1ebe:	3b c0       	rjmp	.+118    	; 0x1f36 <LCD_Display_Select_Cursor+0x8e>
		case line_1:
			sprintf(lcd1_buf,">");
    1ec0:	82 e0       	ldi	r24, 0x02	; 2
    1ec2:	9a e0       	ldi	r25, 0x0A	; 10
    1ec4:	60 e0       	ldi	r22, 0x00	; 0
    1ec6:	72 e0       	ldi	r23, 0x02	; 2
    1ec8:	0e 94 99 3d 	call	0x7b32	; 0x7b32 <strcpy>
			sprintf(lcd2_buf," ");
    1ecc:	82 e1       	ldi	r24, 0x12	; 18
    1ece:	9a e0       	ldi	r25, 0x0A	; 10
    1ed0:	62 e0       	ldi	r22, 0x02	; 2
    1ed2:	72 e0       	ldi	r23, 0x02	; 2
    1ed4:	0e c0       	rjmp	.+28     	; 0x1ef2 <LCD_Display_Select_Cursor+0x4a>
			sprintf(lcd3_buf," ");
			sprintf(lcd4_buf," ");
			break;
		case line_2:
			if(mmi_mode != FMODE_DET_EEP_CLEAR_MODE) sprintf(lcd1_buf," ");
    1ed6:	80 91 cf 0a 	lds	r24, 0x0ACF
    1eda:	85 30       	cpi	r24, 0x05	; 5
    1edc:	31 f0       	breq	.+12     	; 0x1eea <LCD_Display_Select_Cursor+0x42>
    1ede:	82 e0       	ldi	r24, 0x02	; 2
    1ee0:	9a e0       	ldi	r25, 0x0A	; 10
    1ee2:	62 e0       	ldi	r22, 0x02	; 2
    1ee4:	72 e0       	ldi	r23, 0x02	; 2
    1ee6:	0e 94 99 3d 	call	0x7b32	; 0x7b32 <strcpy>
			sprintf(lcd2_buf,">");
    1eea:	82 e1       	ldi	r24, 0x12	; 18
    1eec:	9a e0       	ldi	r25, 0x0A	; 10
    1eee:	60 e0       	ldi	r22, 0x00	; 0
    1ef0:	72 e0       	ldi	r23, 0x02	; 2
    1ef2:	0e 94 99 3d 	call	0x7b32	; 0x7b32 <strcpy>
			sprintf(lcd3_buf," ");
    1ef6:	84 e2       	ldi	r24, 0x24	; 36
    1ef8:	9a e0       	ldi	r25, 0x0A	; 10
    1efa:	62 e0       	ldi	r22, 0x02	; 2
    1efc:	72 e0       	ldi	r23, 0x02	; 2
    1efe:	14 c0       	rjmp	.+40     	; 0x1f28 <LCD_Display_Select_Cursor+0x80>
			sprintf(lcd4_buf," ");
			break;
		case line_3:
			if(mmi_mode != FMODE_DET_EEP_CLEAR_MODE) sprintf(lcd1_buf," ");
    1f00:	80 91 cf 0a 	lds	r24, 0x0ACF
    1f04:	85 30       	cpi	r24, 0x05	; 5
    1f06:	31 f0       	breq	.+12     	; 0x1f14 <LCD_Display_Select_Cursor+0x6c>
    1f08:	82 e0       	ldi	r24, 0x02	; 2
    1f0a:	9a e0       	ldi	r25, 0x0A	; 10
    1f0c:	62 e0       	ldi	r22, 0x02	; 2
    1f0e:	72 e0       	ldi	r23, 0x02	; 2
    1f10:	0e 94 99 3d 	call	0x7b32	; 0x7b32 <strcpy>
			sprintf(lcd2_buf," ");
    1f14:	82 e1       	ldi	r24, 0x12	; 18
    1f16:	9a e0       	ldi	r25, 0x0A	; 10
    1f18:	62 e0       	ldi	r22, 0x02	; 2
    1f1a:	72 e0       	ldi	r23, 0x02	; 2
    1f1c:	0e 94 99 3d 	call	0x7b32	; 0x7b32 <strcpy>
			sprintf(lcd3_buf,">");
    1f20:	84 e2       	ldi	r24, 0x24	; 36
    1f22:	9a e0       	ldi	r25, 0x0A	; 10
    1f24:	60 e0       	ldi	r22, 0x00	; 0
    1f26:	72 e0       	ldi	r23, 0x02	; 2
    1f28:	0e 94 99 3d 	call	0x7b32	; 0x7b32 <strcpy>
			sprintf(lcd4_buf," ");
    1f2c:	82 ef       	ldi	r24, 0xF2	; 242
    1f2e:	99 e0       	ldi	r25, 0x09	; 9
    1f30:	62 e0       	ldi	r22, 0x02	; 2
    1f32:	72 e0       	ldi	r23, 0x02	; 2
    1f34:	1a c0       	rjmp	.+52     	; 0x1f6a <LCD_Display_Select_Cursor+0xc2>
			break;
		case line_4:
			if(mmi_mode != FMODE_DET_EEP_CLEAR_MODE) sprintf(lcd1_buf," ");
    1f36:	80 91 cf 0a 	lds	r24, 0x0ACF
    1f3a:	85 30       	cpi	r24, 0x05	; 5
    1f3c:	31 f0       	breq	.+12     	; 0x1f4a <LCD_Display_Select_Cursor+0xa2>
    1f3e:	82 e0       	ldi	r24, 0x02	; 2
    1f40:	9a e0       	ldi	r25, 0x0A	; 10
    1f42:	62 e0       	ldi	r22, 0x02	; 2
    1f44:	72 e0       	ldi	r23, 0x02	; 2
    1f46:	0e 94 99 3d 	call	0x7b32	; 0x7b32 <strcpy>
			sprintf(lcd2_buf," ");
    1f4a:	82 e1       	ldi	r24, 0x12	; 18
    1f4c:	9a e0       	ldi	r25, 0x0A	; 10
    1f4e:	62 e0       	ldi	r22, 0x02	; 2
    1f50:	72 e0       	ldi	r23, 0x02	; 2
    1f52:	0e 94 99 3d 	call	0x7b32	; 0x7b32 <strcpy>
			sprintf(lcd3_buf," ");
    1f56:	84 e2       	ldi	r24, 0x24	; 36
    1f58:	9a e0       	ldi	r25, 0x0A	; 10
    1f5a:	62 e0       	ldi	r22, 0x02	; 2
    1f5c:	72 e0       	ldi	r23, 0x02	; 2
    1f5e:	0e 94 99 3d 	call	0x7b32	; 0x7b32 <strcpy>
			sprintf(lcd4_buf,">");
    1f62:	82 ef       	ldi	r24, 0xF2	; 242
    1f64:	99 e0       	ldi	r25, 0x09	; 9
    1f66:	60 e0       	ldi	r22, 0x00	; 0
    1f68:	72 e0       	ldi	r23, 0x02	; 2
    1f6a:	0e 94 99 3d 	call	0x7b32	; 0x7b32 <strcpy>
			break;
	}
	LCD_Display(LCDADD_LINE1_0, lcd1_buf);
    1f6e:	80 e0       	ldi	r24, 0x00	; 0
    1f70:	62 e0       	ldi	r22, 0x02	; 2
    1f72:	7a e0       	ldi	r23, 0x0A	; 10
    1f74:	0e 94 e2 0e 	call	0x1dc4	; 0x1dc4 <LCD_Display>
	LCD_Display(LCDADD_LINE2_0, lcd2_buf);
    1f78:	80 e4       	ldi	r24, 0x40	; 64
    1f7a:	62 e1       	ldi	r22, 0x12	; 18
    1f7c:	7a e0       	ldi	r23, 0x0A	; 10
    1f7e:	0e 94 e2 0e 	call	0x1dc4	; 0x1dc4 <LCD_Display>
	LCD_Display(LCDADD_LINE3_0, lcd3_buf);
    1f82:	80 e1       	ldi	r24, 0x10	; 16
    1f84:	64 e2       	ldi	r22, 0x24	; 36
    1f86:	7a e0       	ldi	r23, 0x0A	; 10
    1f88:	0e 94 e2 0e 	call	0x1dc4	; 0x1dc4 <LCD_Display>
	LCD_Display(LCDADD_LINE4_0, lcd4_buf);
    1f8c:	80 e5       	ldi	r24, 0x50	; 80
    1f8e:	62 ef       	ldi	r22, 0xF2	; 242
    1f90:	79 e0       	ldi	r23, 0x09	; 9
    1f92:	0e 94 e2 0e 	call	0x1dc4	; 0x1dc4 <LCD_Display>
}
    1f96:	08 95       	ret

00001f98 <Initialize_LCD>:

U8 dis_blink_evt;
U8 dis_blink_sta;

void Initialize_LCD(void)
{
    1f98:	0f 93       	push	r16
    1f9a:	1f 93       	push	r17
	dis_blink_evt=0;
    1f9c:	10 92 22 0a 	sts	0x0A22, r1
	dis_blink_sta=0;
    1fa0:	10 92 f1 09 	sts	0x09F1, r1
	
	memset( lcd1_buf,0,sizeof( lcd1_buf));
    1fa4:	80 e1       	ldi	r24, 0x10	; 16
    1fa6:	e2 e0       	ldi	r30, 0x02	; 2
    1fa8:	fa e0       	ldi	r31, 0x0A	; 10
    1faa:	df 01       	movw	r26, r30
    1fac:	98 2f       	mov	r25, r24
    1fae:	1d 92       	st	X+, r1
    1fb0:	9a 95       	dec	r25
    1fb2:	e9 f7       	brne	.-6      	; 0x1fae <Initialize_LCD+0x16>
	memset( lcd2_buf,0,sizeof( lcd2_buf));
    1fb4:	e2 e1       	ldi	r30, 0x12	; 18
    1fb6:	fa e0       	ldi	r31, 0x0A	; 10
    1fb8:	df 01       	movw	r26, r30
    1fba:	98 2f       	mov	r25, r24
    1fbc:	1d 92       	st	X+, r1
    1fbe:	9a 95       	dec	r25
    1fc0:	e9 f7       	brne	.-6      	; 0x1fbc <Initialize_LCD+0x24>
	memset( lcd3_buf,0,sizeof( lcd3_buf));
    1fc2:	e4 e2       	ldi	r30, 0x24	; 36
    1fc4:	fa e0       	ldi	r31, 0x0A	; 10
    1fc6:	df 01       	movw	r26, r30
    1fc8:	98 2f       	mov	r25, r24
    1fca:	1d 92       	st	X+, r1
    1fcc:	9a 95       	dec	r25
    1fce:	e9 f7       	brne	.-6      	; 0x1fca <Initialize_LCD+0x32>
	memset( lcd4_buf,0,sizeof( lcd4_buf));
    1fd0:	e2 ef       	ldi	r30, 0xF2	; 242
    1fd2:	f9 e0       	ldi	r31, 0x09	; 9
    1fd4:	df 01       	movw	r26, r30
    1fd6:	1d 92       	st	X+, r1
    1fd8:	8a 95       	dec	r24
    1fda:	e9 f7       	brne	.-6      	; 0x1fd6 <Initialize_LCD+0x3e>
	
	LCD_cmd_nibble_set((U8)0x30);		//Function set
    1fdc:	80 e3       	ldi	r24, 0x30	; 48
    1fde:	0e 94 1e 0f 	call	0x1e3c	; 0x1e3c <LCD_cmd_nibble_set>
    1fe2:	00 e4       	ldi	r16, 0x40	; 64
    1fe4:	1c e9       	ldi	r17, 0x9C	; 156
    1fe6:	c8 01       	movw	r24, r16
    1fe8:	01 97       	sbiw	r24, 0x01	; 1
    1fea:	f1 f7       	brne	.-4      	; 0x1fe8 <Initialize_LCD+0x50>
	_delay_ms(10);
	LCD_cmd_nibble_set((U8)0x30);		//Function set
    1fec:	80 e3       	ldi	r24, 0x30	; 48
    1fee:	0e 94 1e 0f 	call	0x1e3c	; 0x1e3c <LCD_cmd_nibble_set>
    1ff2:	c8 01       	movw	r24, r16
    1ff4:	01 97       	sbiw	r24, 0x01	; 1
    1ff6:	f1 f7       	brne	.-4      	; 0x1ff4 <Initialize_LCD+0x5c>
	_delay_ms(10);
	LCD_cmd_nibble_set((U8)0x30);		//Function set
    1ff8:	80 e3       	ldi	r24, 0x30	; 48
    1ffa:	0e 94 1e 0f 	call	0x1e3c	; 0x1e3c <LCD_cmd_nibble_set>
    1ffe:	80 ee       	ldi	r24, 0xE0	; 224
    2000:	9e e2       	ldi	r25, 0x2E	; 46
    2002:	01 97       	sbiw	r24, 0x01	; 1
    2004:	f1 f7       	brne	.-4      	; 0x2002 <Initialize_LCD+0x6a>
	_delay_ms(3);

	LCD_cmd_nibble_set((U8)0x20);		//Function set
    2006:	80 e2       	ldi	r24, 0x20	; 32
    2008:	0e 94 1e 0f 	call	0x1e3c	; 0x1e3c <LCD_cmd_nibble_set>
    200c:	80 e0       	ldi	r24, 0x00	; 0
    can be achieved.
*/
void
_delay_loop_1(uint8_t __count)
{
	__asm__ volatile (
    200e:	2a e1       	ldi	r18, 0x1A	; 26
    2010:	92 2f       	mov	r25, r18
    2012:	9a 95       	dec	r25
    2014:	f1 f7       	brne	.-4      	; 0x2012 <Initialize_LCD+0x7a>
}

void LCD_busy_check(void)
{
	U8 Count;
	for (Count=0; Count < 25; Count++)
    2016:	8f 5f       	subi	r24, 0xFF	; 255
    2018:	89 31       	cpi	r24, 0x19	; 25
    201a:	d1 f7       	brne	.-12     	; 0x2010 <Initialize_LCD+0x78>
	LCD_cmd_nibble_set((U8)0x30);		//Function set
	_delay_ms(3);

	LCD_cmd_nibble_set((U8)0x20);		//Function set
	LCD_busy_check();					//LCD busy check svc
	LCD_cmd_byte_set((U8)0x28);			//Function set
    201c:	88 e2       	ldi	r24, 0x28	; 40
    201e:	0e 94 fd 0e 	call	0x1dfa	; 0x1dfa <LCD_cmd_byte_set>
    2022:	80 e0       	ldi	r24, 0x00	; 0
    2024:	2a e1       	ldi	r18, 0x1A	; 26
    2026:	92 2f       	mov	r25, r18
    2028:	9a 95       	dec	r25
    202a:	f1 f7       	brne	.-4      	; 0x2028 <Initialize_LCD+0x90>
}

void LCD_busy_check(void)
{
	U8 Count;
	for (Count=0; Count < 25; Count++)
    202c:	8f 5f       	subi	r24, 0xFF	; 255
    202e:	89 31       	cpi	r24, 0x19	; 25
    2030:	d1 f7       	brne	.-12     	; 0x2026 <Initialize_LCD+0x8e>

	LCD_cmd_nibble_set((U8)0x20);		//Function set
	LCD_busy_check();					//LCD busy check svc
	LCD_cmd_byte_set((U8)0x28);			//Function set
	LCD_busy_check();					//LCD busy check svc
	LCD_cmd_byte_set((U8)0x0c);			//Display on, Cursor off
    2032:	8c e0       	ldi	r24, 0x0C	; 12
    2034:	0e 94 fd 0e 	call	0x1dfa	; 0x1dfa <LCD_cmd_byte_set>
    2038:	80 e0       	ldi	r24, 0x00	; 0
    203a:	2a e1       	ldi	r18, 0x1A	; 26
    203c:	92 2f       	mov	r25, r18
    203e:	9a 95       	dec	r25
    2040:	f1 f7       	brne	.-4      	; 0x203e <Initialize_LCD+0xa6>
}

void LCD_busy_check(void)
{
	U8 Count;
	for (Count=0; Count < 25; Count++)
    2042:	8f 5f       	subi	r24, 0xFF	; 255
    2044:	89 31       	cpi	r24, 0x19	; 25
    2046:	d1 f7       	brne	.-12     	; 0x203c <Initialize_LCD+0xa4>
	LCD_busy_check();					//LCD busy check svc
	LCD_cmd_byte_set((U8)0x28);			//Function set
	LCD_busy_check();					//LCD busy check svc
	LCD_cmd_byte_set((U8)0x0c);			//Display on, Cursor off
	LCD_busy_check();					//LCD busy check svc
	LCD_cmd_byte_set((U8)0x1c);			//Shift display, Shift right
    2048:	8c e1       	ldi	r24, 0x1C	; 28
    204a:	0e 94 fd 0e 	call	0x1dfa	; 0x1dfa <LCD_cmd_byte_set>
    204e:	80 e0       	ldi	r24, 0x00	; 0
    2050:	2a e1       	ldi	r18, 0x1A	; 26
    2052:	92 2f       	mov	r25, r18
    2054:	9a 95       	dec	r25
    2056:	f1 f7       	brne	.-4      	; 0x2054 <Initialize_LCD+0xbc>
}

void LCD_busy_check(void)
{
	U8 Count;
	for (Count=0; Count < 25; Count++)
    2058:	8f 5f       	subi	r24, 0xFF	; 255
    205a:	89 31       	cpi	r24, 0x19	; 25
    205c:	d1 f7       	brne	.-12     	; 0x2052 <Initialize_LCD+0xba>
	LCD_busy_check();					//LCD busy check svc
	LCD_cmd_byte_set((U8)0x0c);			//Display on, Cursor off
	LCD_busy_check();					//LCD busy check svc
	LCD_cmd_byte_set((U8)0x1c);			//Shift display, Shift right
	LCD_busy_check();					//LCD busy check svc
	LCD_cmd_byte_set((U8)0x06);			//Increment, Freeze display
    205e:	86 e0       	ldi	r24, 0x06	; 6
    2060:	0e 94 fd 0e 	call	0x1dfa	; 0x1dfa <LCD_cmd_byte_set>
    2064:	80 e0       	ldi	r24, 0x00	; 0
    2066:	2a e1       	ldi	r18, 0x1A	; 26
    2068:	92 2f       	mov	r25, r18
    206a:	9a 95       	dec	r25
    206c:	f1 f7       	brne	.-4      	; 0x206a <Initialize_LCD+0xd2>
}

void LCD_busy_check(void)
{
	U8 Count;
	for (Count=0; Count < 25; Count++)
    206e:	8f 5f       	subi	r24, 0xFF	; 255
    2070:	89 31       	cpi	r24, 0x19	; 25
    2072:	d1 f7       	brne	.-12     	; 0x2068 <Initialize_LCD+0xd0>
	LCD_busy_check();					//LCD busy check svc
	LCD_cmd_byte_set((U8)0x1c);			//Shift display, Shift right
	LCD_busy_check();					//LCD busy check svc
	LCD_cmd_byte_set((U8)0x06);			//Increment, Freeze display
	LCD_busy_check();					//LCD busy check svc
	LCD_cmd_byte_set((U8)0x01);			//Display clear
    2074:	81 e0       	ldi	r24, 0x01	; 1
    2076:	0e 94 fd 0e 	call	0x1dfa	; 0x1dfa <LCD_cmd_byte_set>
    207a:	80 e0       	ldi	r24, 0x00	; 0
    207c:	2a e1       	ldi	r18, 0x1A	; 26
    207e:	92 2f       	mov	r25, r18
    2080:	9a 95       	dec	r25
    2082:	f1 f7       	brne	.-4      	; 0x2080 <Initialize_LCD+0xe8>
}

void LCD_busy_check(void)
{
	U8 Count;
	for (Count=0; Count < 25; Count++)
    2084:	8f 5f       	subi	r24, 0xFF	; 255
    2086:	89 31       	cpi	r24, 0x19	; 25
    2088:	d1 f7       	brne	.-12     	; 0x207e <Initialize_LCD+0xe6>
    milliseconds can be achieved.
 */
void
_delay_loop_2(uint16_t __count)
{
	__asm__ volatile (
    208a:	80 e2       	ldi	r24, 0x20	; 32
    208c:	9e e4       	ldi	r25, 0x4E	; 78
    208e:	01 97       	sbiw	r24, 0x01	; 1
    2090:	f1 f7       	brne	.-4      	; 0x208e <Initialize_LCD+0xf6>
	LCD_busy_check();					//LCD busy check svc
	LCD_cmd_byte_set((U8)0x01);			//Display clear
	LCD_busy_check();					//LCD busy check svc
	_delay_ms(5);
	
	LCD_BL_T();
    2092:	80 91 08 01 	lds	r24, 0x0108
    2096:	80 58       	subi	r24, 0x80	; 128
    2098:	80 93 08 01 	sts	0x0108, r24
}
    209c:	1f 91       	pop	r17
    209e:	0f 91       	pop	r16
    20a0:	08 95       	ret

000020a2 <main>:
}

int main(void)
{
	/* Replace with your application code */
	stdout =& Put_Device;		// printf  DBG 
    20a2:	8a e1       	ldi	r24, 0x1A	; 26
    20a4:	92 e0       	ldi	r25, 0x02	; 2
    20a6:	90 93 3e 1f 	sts	0x1F3E, r25
    20aa:	80 93 3d 1f 	sts	0x1F3D, r24
	
	wdt_disable();
    20ae:	88 e1       	ldi	r24, 0x18	; 24
    20b0:	0f b6       	in	r0, 0x3f	; 63
    20b2:	f8 94       	cli
    20b4:	80 93 60 00 	sts	0x0060, r24
    20b8:	10 92 60 00 	sts	0x0060, r1
    20bc:	0f be       	out	0x3f, r0	; 63
	
	Initialize_System();
    20be:	0e 94 c2 21 	call	0x4384	; 0x4384 <Initialize_System>
	Initialize_GPIO();
    20c2:	0e 94 19 0e 	call	0x1c32	; 0x1c32 <Initialize_GPIO>
	Initailize_Eeprom();
    20c6:	0e 94 bf 0d 	call	0x1b7e	; 0x1b7e <Initailize_Eeprom>
	Initialize_Timer();
    20ca:	0e 94 3d 2b 	call	0x567a	; 0x567a <Initialize_Timer>
	Initialize_ADC();
    20ce:	0e 94 4c 0b 	call	0x1698	; 0x1698 <Initialize_ADC>
	Initialize_UARTBps();
    20d2:	0e 94 ae 2e 	call	0x5d5c	; 0x5d5c <Initialize_UARTBps>
	Initialize_LCD();
    20d6:	0e 94 cc 0f 	call	0x1f98	; 0x1f98 <Initialize_LCD>
	Initialize_MODBUS();
    20da:	0e 94 4b 2a 	call	0x5496	; 0x5496 <Initialize_MODBUS>
	Initialize_Mkey();
    20de:	0e 94 b8 10 	call	0x2170	; 0x2170 <Initialize_Mkey>
	Initialize_Potentiometer();
    20e2:	0e 94 5e 2a 	call	0x54bc	; 0x54bc <Initialize_Potentiometer>

	wdt_enable( WDTO_1S );
    20e6:	2e e0       	ldi	r18, 0x0E	; 14
    20e8:	88 e1       	ldi	r24, 0x18	; 24
    20ea:	90 e0       	ldi	r25, 0x00	; 0
    20ec:	0f b6       	in	r0, 0x3f	; 63
    20ee:	f8 94       	cli
    20f0:	a8 95       	wdr
    20f2:	80 93 60 00 	sts	0x0060, r24
    20f6:	0f be       	out	0x3f, r0	; 63
    20f8:	20 93 60 00 	sts	0x0060, r18
	
	sei();			// global interrupt enable
    20fc:	78 94       	sei
	
	DPRINT2("GTJ-1000F Vev%d.%02d\n", _FW_VERSION_MA, _FW_VERSION_MI);
    20fe:	00 d0       	rcall	.+0      	; 0x2100 <main+0x5e>
    2100:	00 d0       	rcall	.+0      	; 0x2102 <main+0x60>
    2102:	ed b7       	in	r30, 0x3d	; 61
    2104:	fe b7       	in	r31, 0x3e	; 62
    2106:	31 96       	adiw	r30, 0x01	; 1
    2108:	84 e0       	ldi	r24, 0x04	; 4
    210a:	92 e0       	ldi	r25, 0x02	; 2
    210c:	ad b7       	in	r26, 0x3d	; 61
    210e:	be b7       	in	r27, 0x3e	; 62
    2110:	12 96       	adiw	r26, 0x02	; 2
    2112:	9c 93       	st	X, r25
    2114:	8e 93       	st	-X, r24
    2116:	11 97       	sbiw	r26, 0x01	; 1
    2118:	13 82       	std	Z+3, r1	; 0x03
    211a:	12 82       	std	Z+2, r1	; 0x02
    211c:	87 e0       	ldi	r24, 0x07	; 7
    211e:	90 e0       	ldi	r25, 0x00	; 0
    2120:	95 83       	std	Z+5, r25	; 0x05
    2122:	84 83       	std	Z+4, r24	; 0x04
    2124:	0e 94 a0 3d 	call	0x7b40	; 0x7b40 <printf>
	
	dac7571_dac_wr(dac_data);
    2128:	8d b7       	in	r24, 0x3d	; 61
    212a:	9e b7       	in	r25, 0x3e	; 62
    212c:	06 96       	adiw	r24, 0x06	; 6
    212e:	0f b6       	in	r0, 0x3f	; 63
    2130:	f8 94       	cli
    2132:	9e bf       	out	0x3e, r25	; 62
    2134:	0f be       	out	0x3f, r0	; 63
    2136:	8d bf       	out	0x3d, r24	; 61
    2138:	80 91 7e 0a 	lds	r24, 0x0A7E
    213c:	90 91 7f 0a 	lds	r25, 0x0A7F
    2140:	0e 94 4d 36 	call	0x6c9a	; 0x6c9a <dac7571_dac_wr>
	
	while (1) 
	{
		ADC_Task();
    2144:	0e 94 c1 0b 	call	0x1782	; 0x1782 <ADC_Task>
		Key_Task();
    2148:	0e 94 04 17 	call	0x2e08	; 0x2e08 <Key_Task>
		Communication_Handler();
    214c:	0e 94 5f 31 	call	0x62be	; 0x62be <Communication_Handler>
		USART1_Rx_Handler();
    2150:	0e 94 e9 35 	call	0x6bd2	; 0x6bd2 <USART1_Rx_Handler>
		USART2_RX_Handler();
    2154:	0e 94 3b 34 	call	0x6876	; 0x6876 <USART2_RX_Handler>
		modbus_mapping();
    2158:	0e 94 ac 30 	call	0x6158	; 0x6158 <modbus_mapping>
		LCD_Operating();
    215c:	0e 94 2f 27 	call	0x4e5e	; 0x4e5e <LCD_Operating>
		Det_Power_Task();
    2160:	0e 94 d3 18 	call	0x31a6	; 0x31a6 <Det_Power_Task>
		LED_Indicator();
    2164:	0e 94 7e 17 	call	0x2efc	; 0x2efc <LED_Indicator>
		Log_Handler();
    2168:	0e 94 26 18 	call	0x304c	; 0x304c <Log_Handler>
		wdt_reset();
    216c:	a8 95       	wdr
    216e:	ea cf       	rjmp	.-44     	; 0x2144 <main+0xa2>

00002170 <Initialize_Mkey>:
U16	det_ir_reponsivity_466;
U16	mmi_tmp[line_max];

void Initialize_Mkey( void )
{
	key_cnt = 0;
    2170:	10 92 3d 0a 	sts	0x0A3D, r1
    2174:	10 92 3c 0a 	sts	0x0A3C, r1
	key_push_check = 0;
    2178:	10 92 38 0a 	sts	0x0A38, r1
	KeyData = 0xff;
    217c:	8f ef       	ldi	r24, 0xFF	; 255
    217e:	80 93 49 0a 	sts	0x0A49, r24
	Key_long_flag = 0;
    2182:	10 92 39 0a 	sts	0x0A39, r1
	setting_mode_cursor = 0;
    2186:	10 92 35 0a 	sts	0x0A35, r1
	character_cousor = 0;
    218a:	10 92 3b 0a 	sts	0x0A3B, r1
	key_func_select_flag = 0;
    218e:	10 92 3a 0a 	sts	0x0A3A, r1
	
	alm_relay_chk = 0;
    2192:	10 92 4b 0a 	sts	0x0A4B, r1
	trb_relay_chk = 0;
    2196:	10 92 36 0a 	sts	0x0A36, r1
	relay_chk_cnt = 0;
    219a:	10 92 4a 0a 	sts	0x0A4A, r1
}
    219e:	08 95       	ret

000021a0 <Key_Check>:
	//	return;
	//}
	
	//sTimerFlag[TMR_KEY_CNK] = 0;
	
	dat = (PINE >> 2) & 0x3F;
    21a0:	4c b1       	in	r20, 0x0c	; 12
	cop = dat ^ 0x3f;
    21a2:	46 95       	lsr	r20
    21a4:	46 95       	lsr	r20
    21a6:	8f e3       	ldi	r24, 0x3F	; 63
    21a8:	48 27       	eor	r20, r24
	
	if(cop != 0){
    21aa:	09 f4       	brne	.+2      	; 0x21ae <Key_Check+0xe>
    21ac:	41 c0       	rjmp	.+130    	; 0x2230 <__stack+0x31>
		if( (mmi_mode != FMODE_ADDRESS_SET) & (mmi_mode != FMODE_DET_IR_RESPONSIVITY_SET) ){
    21ae:	80 91 cf 0a 	lds	r24, 0x0ACF
    21b2:	8e 30       	cpi	r24, 0x0E	; 14
    21b4:	e1 f0       	breq	.+56     	; 0x21ee <Key_Check+0x4e>
    21b6:	80 31       	cpi	r24, 0x10	; 16
    21b8:	d1 f0       	breq	.+52     	; 0x21ee <Key_Check+0x4e>
			if(key_push_check != 2){
    21ba:	20 91 38 0a 	lds	r18, 0x0A38
    21be:	22 30       	cpi	r18, 0x02	; 2
    21c0:	09 f4       	brne	.+2      	; 0x21c4 <Key_Check+0x24>
    21c2:	4c c0       	rjmp	.+152    	; 0x225c <__stack+0x5d>
				if(key_cnt == 1000){
    21c4:	80 91 3c 0a 	lds	r24, 0x0A3C
    21c8:	90 91 3d 0a 	lds	r25, 0x0A3D
    21cc:	33 e0       	ldi	r19, 0x03	; 3
    21ce:	88 3e       	cpi	r24, 0xE8	; 232
    21d0:	93 07       	cpc	r25, r19
    21d2:	29 f4       	brne	.+10     	; 0x21de <Key_Check+0x3e>
					key_push_check = 1;
    21d4:	81 e0       	ldi	r24, 0x01	; 1
    21d6:	80 93 38 0a 	sts	0x0A38, r24
					Key_long_flag = 2;
    21da:	82 e0       	ldi	r24, 0x02	; 2
    21dc:	14 c0       	rjmp	.+40     	; 0x2206 <__stack+0x7>
				}
				else{
					if(key_push_check == 0){
    21de:	22 23       	and	r18, r18
    21e0:	01 f5       	brne	.+64     	; 0x2222 <__stack+0x23>
						key_cnt++;	
    21e2:	01 96       	adiw	r24, 0x01	; 1
    21e4:	90 93 3d 0a 	sts	0x0A3D, r25
    21e8:	80 93 3c 0a 	sts	0x0A3C, r24
    21ec:	1e c0       	rjmp	.+60     	; 0x222a <__stack+0x2b>
				}
				KeyBuf = cop;
			}
		}
		else{
			if(key_cnt == 1000){
    21ee:	20 91 3c 0a 	lds	r18, 0x0A3C
    21f2:	30 91 3d 0a 	lds	r19, 0x0A3D
    21f6:	83 e0       	ldi	r24, 0x03	; 3
    21f8:	28 3e       	cpi	r18, 0xE8	; 232
    21fa:	38 07       	cpc	r19, r24
    21fc:	39 f4       	brne	.+14     	; 0x220c <__stack+0xd>
				key_push_check = 1;
    21fe:	81 e0       	ldi	r24, 0x01	; 1
    2200:	80 93 38 0a 	sts	0x0A38, r24
				Key_long_flag = 3;
    2204:	83 e0       	ldi	r24, 0x03	; 3
    2206:	80 93 39 0a 	sts	0x0A39, r24
    220a:	0f c0       	rjmp	.+30     	; 0x222a <__stack+0x2b>
				key_cnt = 1000;
			}
			else{
				if(key_push_check == 0){
    220c:	80 91 38 0a 	lds	r24, 0x0A38
    2210:	88 23       	and	r24, r24
    2212:	39 f4       	brne	.+14     	; 0x2222 <__stack+0x23>
					key_cnt++;	
    2214:	2f 5f       	subi	r18, 0xFF	; 255
    2216:	3f 4f       	sbci	r19, 0xFF	; 255
    2218:	30 93 3d 0a 	sts	0x0A3D, r19
    221c:	20 93 3c 0a 	sts	0x0A3C, r18
    2220:	04 c0       	rjmp	.+8      	; 0x222a <__stack+0x2b>
				}
				else{
					key_cnt = 0;
    2222:	10 92 3d 0a 	sts	0x0A3D, r1
    2226:	10 92 3c 0a 	sts	0x0A3C, r1
				}
			}
			KeyBuf = cop;
    222a:	40 93 40 0a 	sts	0x0A40, r20
    222e:	08 95       	ret
		}
		
	}
	else{
		if(key_cnt == 0){
    2230:	80 91 3c 0a 	lds	r24, 0x0A3C
    2234:	90 91 3d 0a 	lds	r25, 0x0A3D
    2238:	00 97       	sbiw	r24, 0x00	; 0
    223a:	39 f4       	brne	.+14     	; 0x224a <__stack+0x4b>
			KeyBuf = 0;
    223c:	10 92 40 0a 	sts	0x0A40, r1
			Key_long_flag = 0;
    2240:	10 92 39 0a 	sts	0x0A39, r1
			key_push_check = 0;
    2244:	10 92 38 0a 	sts	0x0A38, r1
    2248:	08 95       	ret
		}
		else if( (key_cnt < KEY_LONG_CNT) && (key_cnt > KEY_SHORT_CNT) ){
    224a:	c3 97       	sbiw	r24, 0x33	; 51
    224c:	85 5b       	subi	r24, 0xB5	; 181
    224e:	93 40       	sbci	r25, 0x03	; 3
    2250:	28 f4       	brcc	.+10     	; 0x225c <__stack+0x5d>
			Key_long_flag = 1;
    2252:	81 e0       	ldi	r24, 0x01	; 1
    2254:	80 93 39 0a 	sts	0x0A39, r24
			key_push_check = 1;
    2258:	80 93 38 0a 	sts	0x0A38, r24
    225c:	08 95       	ret

0000225e <Relay_Check>:

void Relay_Check(void)
{
	U8 	dat, cop;
	
	dat = (PINJ >> 3) & 0x0F;
    225e:	90 91 03 01 	lds	r25, 0x0103
	cop = dat ^ 0x0F;
    2262:	96 95       	lsr	r25
    2264:	96 95       	lsr	r25
    2266:	96 95       	lsr	r25
    2268:	90 95       	com	r25
    226a:	9f 70       	andi	r25, 0x0F	; 15
	
	if( (cop & 0x03) == 0x03 ){
    226c:	89 2f       	mov	r24, r25
    226e:	83 70       	andi	r24, 0x03	; 3
    2270:	83 30       	cpi	r24, 0x03	; 3
    2272:	19 f4       	brne	.+6      	; 0x227a <Relay_Check+0x1c>
		alm_relay_chk = 0;
    2274:	10 92 4b 0a 	sts	0x0A4B, r1
    2278:	03 c0       	rjmp	.+6      	; 0x2280 <Relay_Check+0x22>
	}
	else{
		alm_relay_chk = 1;
    227a:	81 e0       	ldi	r24, 0x01	; 1
    227c:	80 93 4b 0a 	sts	0x0A4B, r24
	}
	
	if( ((cop >> 2) & 0x03) == 0x03){
    2280:	96 95       	lsr	r25
    2282:	96 95       	lsr	r25
    2284:	93 30       	cpi	r25, 0x03	; 3
    2286:	19 f4       	brne	.+6      	; 0x228e <Relay_Check+0x30>
		trb_relay_chk = 0;
    2288:	10 92 36 0a 	sts	0x0A36, r1
    228c:	08 95       	ret
	}
	else{
		trb_relay_chk = 1;
    228e:	81 e0       	ldi	r24, 0x01	; 1
    2290:	80 93 36 0a 	sts	0x0A36, r24
    2294:	08 95       	ret

00002296 <Func_Normal_Key>:
	}
}

void Func_Normal_Key(void)
{
	switch(KeyData){
    2296:	80 91 49 0a 	lds	r24, 0x0A49
    229a:	84 30       	cpi	r24, 0x04	; 4
    229c:	51 f0       	breq	.+20     	; 0x22b2 <Func_Normal_Key+0x1c>
    229e:	85 30       	cpi	r24, 0x05	; 5
    22a0:	18 f4       	brcc	.+6      	; 0x22a8 <Func_Normal_Key+0x12>
    22a2:	81 30       	cpi	r24, 0x01	; 1
    22a4:	39 f5       	brne	.+78     	; 0x22f4 <Func_Normal_Key+0x5e>
    22a6:	1d c0       	rjmp	.+58     	; 0x22e2 <Func_Normal_Key+0x4c>
    22a8:	85 30       	cpi	r24, 0x05	; 5
    22aa:	f9 f0       	breq	.+62     	; 0x22ea <Func_Normal_Key+0x54>
    22ac:	88 30       	cpi	r24, 0x08	; 8
    22ae:	11 f5       	brne	.+68     	; 0x22f4 <Func_Normal_Key+0x5e>
    22b0:	11 c0       	rjmp	.+34     	; 0x22d4 <Func_Normal_Key+0x3e>
		case KEY_FU_S:
			break;
		case KEY_UP_S:
			break;
		case KEY_DW_S:
			if(det_power_control & Det_Power_Control_Bit){
    22b2:	80 91 da 0a 	lds	r24, 0x0ADA
    22b6:	80 ff       	sbrs	r24, 0
    22b8:	1d c0       	rjmp	.+58     	; 0x22f4 <Func_Normal_Key+0x5e>
				det_power_control |= BIT1;
    22ba:	82 60       	ori	r24, 0x02	; 2
    22bc:	80 93 da 0a 	sts	0x0ADA, r24
				det_power_out++;
    22c0:	80 91 81 0a 	lds	r24, 0x0A81
    22c4:	8f 5f       	subi	r24, 0xFF	; 255
    22c6:	80 93 81 0a 	sts	0x0A81, r24
				if(det_power_out == Det_Power_MAX){
    22ca:	84 30       	cpi	r24, 0x04	; 4
    22cc:	99 f4       	brne	.+38     	; 0x22f4 <Func_Normal_Key+0x5e>
					det_power_out = Det_Power_24V;
    22ce:	10 92 81 0a 	sts	0x0A81, r1
    22d2:	08 95       	ret
			}
			break;
		case KEY_RE_S:
			break;
		case KEY_TE_S:
			mmi_mode = FMODE_DET_TEST_MODE;
    22d4:	8a e0       	ldi	r24, 0x0A	; 10
    22d6:	80 93 cf 0a 	sts	0x0ACF, r24
			ModeSetFlow[FMODE_DET_TEST_MODE] = 1;
    22da:	81 e0       	ldi	r24, 0x01	; 1
    22dc:	80 93 e5 0a 	sts	0x0AE5, r24
    22e0:	08 95       	ret
			break;
		case KEY_FU_L:
			mmi_mode = FMODE_CONFIGIURATION;
    22e2:	8b e0       	ldi	r24, 0x0B	; 11
    22e4:	80 93 cf 0a 	sts	0x0ACF, r24
    22e8:	08 95       	ret
		case KEY_UP_L:	
			//mmi_mode = FMODE_DET_MA_CAL_SET;
			//ModeSetFlow[FMODE_DET_MA_CAL_SET] = 1;
			break;
		case KEY_DW_L:
			mmi_mode = FMODE_DET_EEP_CLEAR_MODE;
    22ea:	80 93 cf 0a 	sts	0x0ACF, r24
			ModeSetFlow[FMODE_DET_EEP_CLEAR_MODE] = 1;
    22ee:	81 e0       	ldi	r24, 0x01	; 1
    22f0:	80 93 e0 0a 	sts	0x0AE0, r24
    22f4:	08 95       	ret

000022f6 <Cousor_Location>:
		case KEY_TE_L:	break;
	}
}

U8 Cousor_Location(U8 start, U8 end)
{
    22f6:	98 2f       	mov	r25, r24
	if(KeyData == KEY_UP_S){
    22f8:	80 91 49 0a 	lds	r24, 0x0A49
    22fc:	82 30       	cpi	r24, 0x02	; 2
    22fe:	69 f4       	brne	.+26     	; 0x231a <Cousor_Location+0x24>
		if(key_func_select_flag == 0){
    2300:	80 91 3a 0a 	lds	r24, 0x0A3A
    2304:	88 23       	and	r24, r24
    2306:	c9 f4       	brne	.+50     	; 0x233a <Cousor_Location+0x44>
			if(setting_mode_cursor != start){
    2308:	80 91 35 0a 	lds	r24, 0x0A35
    230c:	89 17       	cp	r24, r25
    230e:	11 f0       	breq	.+4      	; 0x2314 <Cousor_Location+0x1e>
				setting_mode_cursor--;
    2310:	81 50       	subi	r24, 0x01	; 1
    2312:	0e c0       	rjmp	.+28     	; 0x2330 <Cousor_Location+0x3a>
			}
			else{
				setting_mode_cursor = end;
    2314:	60 93 35 0a 	sts	0x0A35, r22
    2318:	10 c0       	rjmp	.+32     	; 0x233a <Cousor_Location+0x44>
			}
		}
	}
	else if(KeyData == KEY_DW_S){
    231a:	84 30       	cpi	r24, 0x04	; 4
    231c:	71 f4       	brne	.+28     	; 0x233a <Cousor_Location+0x44>
		if(key_func_select_flag == 0){
    231e:	80 91 3a 0a 	lds	r24, 0x0A3A
    2322:	88 23       	and	r24, r24
    2324:	51 f4       	brne	.+20     	; 0x233a <Cousor_Location+0x44>
			if(setting_mode_cursor != end){
    2326:	80 91 35 0a 	lds	r24, 0x0A35
    232a:	86 17       	cp	r24, r22
    232c:	21 f0       	breq	.+8      	; 0x2336 <Cousor_Location+0x40>
				setting_mode_cursor++;
    232e:	8f 5f       	subi	r24, 0xFF	; 255
    2330:	80 93 35 0a 	sts	0x0A35, r24
    2334:	02 c0       	rjmp	.+4      	; 0x233a <Cousor_Location+0x44>
			}
			else{
				setting_mode_cursor = start;
    2336:	90 93 35 0a 	sts	0x0A35, r25
			}
		}
	}
	
	if(setting_mode_cursor < start){
    233a:	80 91 35 0a 	lds	r24, 0x0A35
    233e:	89 17       	cp	r24, r25
    2340:	10 f4       	brcc	.+4      	; 0x2346 <Cousor_Location+0x50>
		setting_mode_cursor = start;
    2342:	90 93 35 0a 	sts	0x0A35, r25
	}
	
	return setting_mode_cursor;
}
    2346:	80 91 35 0a 	lds	r24, 0x0A35
    234a:	08 95       	ret

0000234c <LCD_Character_Cousor_Location>:

U8 LCD_Character_Cousor_Location(U8 cnt, U8 data)
{
    234c:	98 2f       	mov	r25, r24
	switch(KeyData){
    234e:	80 91 49 0a 	lds	r24, 0x0A49
    2352:	82 30       	cpi	r24, 0x02	; 2
    2354:	d9 f0       	breq	.+54     	; 0x238c <LCD_Character_Cousor_Location+0x40>
    2356:	83 30       	cpi	r24, 0x03	; 3
    2358:	18 f4       	brcc	.+6      	; 0x2360 <LCD_Character_Cousor_Location+0x14>
    235a:	88 23       	and	r24, r24
    235c:	31 f0       	breq	.+12     	; 0x236a <LCD_Character_Cousor_Location+0x1e>
    235e:	29 c0       	rjmp	.+82     	; 0x23b2 <LCD_Character_Cousor_Location+0x66>
    2360:	84 30       	cpi	r24, 0x04	; 4
    2362:	c9 f0       	breq	.+50     	; 0x2396 <LCD_Character_Cousor_Location+0x4a>
    2364:	86 30       	cpi	r24, 0x06	; 6
    2366:	29 f5       	brne	.+74     	; 0x23b2 <LCD_Character_Cousor_Location+0x66>
    2368:	1b c0       	rjmp	.+54     	; 0x23a0 <LCD_Character_Cousor_Location+0x54>
		case KEY_FU_S:
			character_cousor++;
    236a:	80 91 3b 0a 	lds	r24, 0x0A3B
    236e:	8f 5f       	subi	r24, 0xFF	; 255
    2370:	80 93 3b 0a 	sts	0x0A3B, r24
			if(character_cousor == cnt){
    2374:	89 17       	cp	r24, r25
    2376:	e9 f4       	brne	.+58     	; 0x23b2 <LCD_Character_Cousor_Location+0x66>
				character_cousor = 0;
    2378:	10 92 3b 0a 	sts	0x0A3B, r1
				if(Calibration_Mode_Flow == 1){
    237c:	80 91 82 0a 	lds	r24, 0x0A82
    2380:	81 30       	cpi	r24, 0x01	; 1
    2382:	b9 f4       	brne	.+46     	; 0x23b2 <LCD_Character_Cousor_Location+0x66>
					Calibration_Mode_Flow = 2;
    2384:	82 e0       	ldi	r24, 0x02	; 2
    2386:	80 93 82 0a 	sts	0x0A82, r24
    238a:	13 c0       	rjmp	.+38     	; 0x23b2 <LCD_Character_Cousor_Location+0x66>
				}
			}
			break;
		case KEY_UP_S:
			data++;
    238c:	6f 5f       	subi	r22, 0xFF	; 255
			if(data > 9){
    238e:	6a 30       	cpi	r22, 0x0A	; 10
    2390:	80 f0       	brcs	.+32     	; 0x23b2 <LCD_Character_Cousor_Location+0x66>
    2392:	60 e0       	ldi	r22, 0x00	; 0
    2394:	0e c0       	rjmp	.+28     	; 0x23b2 <LCD_Character_Cousor_Location+0x66>
				data = 0;
			}
			break;
		case KEY_DW_S:
			data--;
    2396:	61 50       	subi	r22, 0x01	; 1
			if(data > 10){
    2398:	6b 30       	cpi	r22, 0x0B	; 11
    239a:	58 f0       	brcs	.+22     	; 0x23b2 <LCD_Character_Cousor_Location+0x66>
    239c:	69 e0       	ldi	r22, 0x09	; 9
    239e:	09 c0       	rjmp	.+18     	; 0x23b2 <LCD_Character_Cousor_Location+0x66>
				data = 9;
			}
			break;
		case KEY_RE_S:
			character_cousor--;
    23a0:	80 91 3b 0a 	lds	r24, 0x0A3B
    23a4:	81 50       	subi	r24, 0x01	; 1
    23a6:	80 93 3b 0a 	sts	0x0A3B, r24
			if(character_cousor == 0xff){
    23aa:	8f 3f       	cpi	r24, 0xFF	; 255
    23ac:	11 f4       	brne	.+4      	; 0x23b2 <LCD_Character_Cousor_Location+0x66>
				character_cousor = 0;
    23ae:	10 92 3b 0a 	sts	0x0A3B, r1
			}
			break;			
	}
	
	return data;
}
    23b2:	86 2f       	mov	r24, r22
    23b4:	08 95       	ret

000023b6 <Func_U_Calibration_Mode_Key>:
	}
}

void Func_U_Calibration_Mode_Key(void)
{
	switch(KeyData){
    23b6:	80 91 49 0a 	lds	r24, 0x0A49
    23ba:	82 30       	cpi	r24, 0x02	; 2
    23bc:	81 f0       	breq	.+32     	; 0x23de <Func_U_Calibration_Mode_Key+0x28>
    23be:	83 30       	cpi	r24, 0x03	; 3
    23c0:	28 f4       	brcc	.+10     	; 0x23cc <Func_U_Calibration_Mode_Key+0x16>
    23c2:	88 23       	and	r24, r24
    23c4:	39 f0       	breq	.+14     	; 0x23d4 <Func_U_Calibration_Mode_Key+0x1e>
    23c6:	81 30       	cpi	r24, 0x01	; 1
    23c8:	c1 f5       	brne	.+112    	; 0x243a <Func_U_Calibration_Mode_Key+0x84>
    23ca:	34 c0       	rjmp	.+104    	; 0x2434 <Func_U_Calibration_Mode_Key+0x7e>
    23cc:	84 30       	cpi	r24, 0x04	; 4
    23ce:	39 f0       	breq	.+14     	; 0x23de <Func_U_Calibration_Mode_Key+0x28>
    23d0:	86 30       	cpi	r24, 0x06	; 6
    23d2:	99 f5       	brne	.+102    	; 0x243a <Func_U_Calibration_Mode_Key+0x84>
		case KEY_FU_S:
		case KEY_RE_S:
			LCD_Character_Cousor_Location(IR_RESPONSIVITY_CHARACTOR,0);
    23d4:	84 e0       	ldi	r24, 0x04	; 4
    23d6:	60 e0       	ldi	r22, 0x00	; 0
    23d8:	0e 94 a6 11 	call	0x234c	; 0x234c <LCD_Character_Cousor_Location>
    23dc:	08 95       	ret
			break;
		case KEY_UP_S:
		case KEY_DW_S:
			switch(character_cousor){
    23de:	80 91 3b 0a 	lds	r24, 0x0A3B
    23e2:	81 30       	cpi	r24, 0x01	; 1
    23e4:	79 f0       	breq	.+30     	; 0x2404 <Func_U_Calibration_Mode_Key+0x4e>
    23e6:	81 30       	cpi	r24, 0x01	; 1
    23e8:	28 f0       	brcs	.+10     	; 0x23f4 <Func_U_Calibration_Mode_Key+0x3e>
    23ea:	82 30       	cpi	r24, 0x02	; 2
    23ec:	99 f0       	breq	.+38     	; 0x2414 <Func_U_Calibration_Mode_Key+0x5e>
    23ee:	83 30       	cpi	r24, 0x03	; 3
    23f0:	21 f5       	brne	.+72     	; 0x243a <Func_U_Calibration_Mode_Key+0x84>
    23f2:	18 c0       	rjmp	.+48     	; 0x2424 <Func_U_Calibration_Mode_Key+0x6e>
				case 0:
					Det_IR_Responsivity_Cal_Data_1 = LCD_Character_Cousor_Location(IR_RESPONSIVITY_CHARACTOR, Det_IR_Responsivity_Cal_Data_1);
    23f4:	84 e0       	ldi	r24, 0x04	; 4
    23f6:	60 91 d7 0a 	lds	r22, 0x0AD7
    23fa:	0e 94 a6 11 	call	0x234c	; 0x234c <LCD_Character_Cousor_Location>
    23fe:	80 93 d7 0a 	sts	0x0AD7, r24
    2402:	08 95       	ret
					break;
				case 1:
					Det_IR_Responsivity_Cal_Data_2 = LCD_Character_Cousor_Location(IR_RESPONSIVITY_CHARACTOR, Det_IR_Responsivity_Cal_Data_2);
    2404:	84 e0       	ldi	r24, 0x04	; 4
    2406:	60 91 b2 0a 	lds	r22, 0x0AB2
    240a:	0e 94 a6 11 	call	0x234c	; 0x234c <LCD_Character_Cousor_Location>
    240e:	80 93 b2 0a 	sts	0x0AB2, r24
    2412:	08 95       	ret
					break;
				case 2:
					Det_IR_Responsivity_Cal_Data_3 = LCD_Character_Cousor_Location(IR_RESPONSIVITY_CHARACTOR, Det_IR_Responsivity_Cal_Data_3);
    2414:	84 e0       	ldi	r24, 0x04	; 4
    2416:	60 91 b8 0a 	lds	r22, 0x0AB8
    241a:	0e 94 a6 11 	call	0x234c	; 0x234c <LCD_Character_Cousor_Location>
    241e:	80 93 b8 0a 	sts	0x0AB8, r24
    2422:	08 95       	ret
					break;
				case 3:
					Det_IR_Responsivity_Cal_Data_4 = LCD_Character_Cousor_Location(IR_RESPONSIVITY_CHARACTOR, Det_IR_Responsivity_Cal_Data_4);
    2424:	84 e0       	ldi	r24, 0x04	; 4
    2426:	60 91 f4 0a 	lds	r22, 0x0AF4
    242a:	0e 94 a6 11 	call	0x234c	; 0x234c <LCD_Character_Cousor_Location>
    242e:	80 93 f4 0a 	sts	0x0AF4, r24
    2432:	08 95       	ret
			}
			break;
		case KEY_TE_S:
			break;
		case KEY_FU_L:
			mmi_mode = FMODE_CONFIGIURATION;
    2434:	8b e0       	ldi	r24, 0x0B	; 11
    2436:	80 93 cf 0a 	sts	0x0ACF, r24
    243a:	08 95       	ret

0000243c <Long_Key>:
	
	return data;
}

U16 Long_Key(U16 cnt)
{
    243c:	9c 01       	movw	r18, r24
	//if(key_func_select_flag == 1){
		if( (KeyData == KEY_UP_S) | (KeyData == KEY_UP_L) ){
    243e:	90 91 49 0a 	lds	r25, 0x0A49
    2442:	89 2f       	mov	r24, r25
    2444:	82 50       	subi	r24, 0x02	; 2
    2446:	82 30       	cpi	r24, 0x02	; 2
    2448:	18 f4       	brcc	.+6      	; 0x2450 <Long_Key+0x14>
			cnt++;
    244a:	2f 5f       	subi	r18, 0xFF	; 255
    244c:	3f 4f       	sbci	r19, 0xFF	; 255
    244e:	05 c0       	rjmp	.+10     	; 0x245a <Long_Key+0x1e>
		}
		else if( (KeyData == KEY_DW_S) | (KeyData == KEY_DW_L) ){
    2450:	94 50       	subi	r25, 0x04	; 4
    2452:	92 30       	cpi	r25, 0x02	; 2
    2454:	10 f4       	brcc	.+4      	; 0x245a <Long_Key+0x1e>
			cnt--;
    2456:	21 50       	subi	r18, 0x01	; 1
    2458:	30 40       	sbci	r19, 0x00	; 0
		}
	//}
	
	return cnt;
}
    245a:	c9 01       	movw	r24, r18
    245c:	08 95       	ret

0000245e <Normal_Return_Check>:

void Normal_Return_Check(void)
{
	if(KeyData != 0xff){
    245e:	80 91 49 0a 	lds	r24, 0x0A49
    2462:	8f 3f       	cpi	r24, 0xFF	; 255
    2464:	b9 f0       	breq	.+46     	; 0x2494 <Normal_Return_Check+0x36>
		sTimerFlag[TMR_NORMAL_RETURN] = 1;
    2466:	81 e0       	ldi	r24, 0x01	; 1
    2468:	90 e0       	ldi	r25, 0x00	; 0
    246a:	90 93 42 0f 	sts	0x0F42, r25
    246e:	80 93 41 0f 	sts	0x0F41, r24
		if(mmi_mode >= FMODE_DEV_MA_CAL_SET){
    2472:	80 91 cf 0a 	lds	r24, 0x0ACF
    2476:	82 31       	cpi	r24, 0x12	; 18
    2478:	38 f0       	brcs	.+14     	; 0x2488 <Normal_Return_Check+0x2a>
			sTimerTick[TMR_NORMAL_RETURN] = LONG_RETURN_CNT;
    247a:	8e e1       	ldi	r24, 0x1E	; 30
    247c:	90 e0       	ldi	r25, 0x00	; 0
    247e:	90 93 18 0f 	sts	0x0F18, r25
    2482:	80 93 17 0f 	sts	0x0F17, r24
    2486:	08 95       	ret
		}
		else{
			sTimerTick[TMR_NORMAL_RETURN] = NORMAL_RETURN_CNT;
    2488:	8e e1       	ldi	r24, 0x1E	; 30
    248a:	90 e0       	ldi	r25, 0x00	; 0
    248c:	90 93 18 0f 	sts	0x0F18, r25
    2490:	80 93 17 0f 	sts	0x0F17, r24
    2494:	08 95       	ret

00002496 <Func_Warm_Up_Key>:
	KeyData = 0xff;
}

void Func_Warm_Up_Key(void)
{
	switch(KeyData){
    2496:	80 91 49 0a 	lds	r24, 0x0A49
    249a:	86 30       	cpi	r24, 0x06	; 6
    249c:	31 f4       	brne	.+12     	; 0x24aa <Func_Warm_Up_Key+0x14>
		case KEY_FU_S:	break;
		case KEY_UP_S:	break;
		case KEY_DW_S:	break;
		case KEY_RE_S:
			Mode_Select();
    249e:	0e 94 57 17 	call	0x2eae	; 0x2eae <Mode_Select>
			sTimerTick[TMR_SELFTEST] = 0;
    24a2:	10 92 16 0f 	sts	0x0F16, r1
    24a6:	10 92 15 0f 	sts	0x0F15, r1
    24aa:	08 95       	ret

000024ac <Key_scan>:
	}
}

void Key_scan(void)
{	
	if(mmi_mode == FMODE_WARM_UP){
    24ac:	40 91 cf 0a 	lds	r20, 0x0ACF
    24b0:	44 23       	and	r20, r20
    24b2:	21 f4       	brne	.+8      	; 0x24bc <Key_scan+0x10>
		KeyBuf = 0xff;
    24b4:	8f ef       	ldi	r24, 0xFF	; 255
    24b6:	80 93 40 0a 	sts	0x0A40, r24
    24ba:	08 95       	ret
		return;
	}
	
	if(key_push_check == 1)
    24bc:	80 91 38 0a 	lds	r24, 0x0A38
    24c0:	81 30       	cpi	r24, 0x01	; 1
    24c2:	09 f0       	breq	.+2      	; 0x24c6 <Key_scan+0x1a>
    24c4:	93 c0       	rjmp	.+294    	; 0x25ec <Key_scan+0x140>
	{
		if( (mmi_mode != FMODE_ADDRESS_SET) & (mmi_mode != FMODE_DET_IR_RESPONSIVITY_SET) & (mmi_mode != FMODE_T_CALIBRATION_MODE) ){
    24c6:	80 e0       	ldi	r24, 0x00	; 0
    24c8:	4e 30       	cpi	r20, 0x0E	; 14
    24ca:	09 f0       	breq	.+2      	; 0x24ce <Key_scan+0x22>
    24cc:	81 e0       	ldi	r24, 0x01	; 1
    24ce:	90 e0       	ldi	r25, 0x00	; 0
    24d0:	40 31       	cpi	r20, 0x10	; 16
    24d2:	09 f0       	breq	.+2      	; 0x24d6 <Key_scan+0x2a>
    24d4:	91 e0       	ldi	r25, 0x01	; 1
    24d6:	89 23       	and	r24, r25
    24d8:	90 e0       	ldi	r25, 0x00	; 0
    24da:	20 e0       	ldi	r18, 0x00	; 0
    24dc:	30 e0       	ldi	r19, 0x00	; 0
    24de:	44 30       	cpi	r20, 0x04	; 4
    24e0:	11 f0       	breq	.+4      	; 0x24e6 <Key_scan+0x3a>
    24e2:	21 e0       	ldi	r18, 0x01	; 1
    24e4:	30 e0       	ldi	r19, 0x00	; 0
    24e6:	82 23       	and	r24, r18
    24e8:	93 23       	and	r25, r19
    24ea:	89 2b       	or	r24, r25
    24ec:	19 f0       	breq	.+6      	; 0x24f4 <Key_scan+0x48>
			key_push_check = 2;
    24ee:	82 e0       	ldi	r24, 0x02	; 2
    24f0:	80 93 38 0a 	sts	0x0A38, r24
		}
		if(Key_long_flag == 1){
    24f4:	90 91 39 0a 	lds	r25, 0x0A39
    24f8:	91 30       	cpi	r25, 0x01	; 1
    24fa:	09 f0       	breq	.+2      	; 0x24fe <Key_scan+0x52>
    24fc:	54 c0       	rjmp	.+168    	; 0x25a6 <Key_scan+0xfa>
			switch(KeyBuf){
    24fe:	80 91 40 0a 	lds	r24, 0x0A40
    2502:	84 30       	cpi	r24, 0x04	; 4
    2504:	91 f0       	breq	.+36     	; 0x252a <Key_scan+0x7e>
    2506:	85 30       	cpi	r24, 0x05	; 5
    2508:	30 f4       	brcc	.+12     	; 0x2516 <Key_scan+0x6a>
    250a:	81 30       	cpi	r24, 0x01	; 1
    250c:	59 f0       	breq	.+22     	; 0x2524 <Key_scan+0x78>
    250e:	82 30       	cpi	r24, 0x02	; 2
    2510:	09 f0       	breq	.+2      	; 0x2514 <Key_scan+0x68>
    2512:	44 c0       	rjmp	.+136    	; 0x259c <Key_scan+0xf0>
    2514:	12 c0       	rjmp	.+36     	; 0x253a <Key_scan+0x8e>
    2516:	80 31       	cpi	r24, 0x10	; 16
    2518:	71 f0       	breq	.+28     	; 0x2536 <Key_scan+0x8a>
    251a:	80 32       	cpi	r24, 0x20	; 32
    251c:	81 f0       	breq	.+32     	; 0x253e <Key_scan+0x92>
    251e:	88 30       	cpi	r24, 0x08	; 8
    2520:	e9 f5       	brne	.+122    	; 0x259c <Key_scan+0xf0>
    2522:	05 c0       	rjmp	.+10     	; 0x252e <Key_scan+0x82>
				case _KEY_FU:
					KeyData = KEY_FU_S;
    2524:	10 92 49 0a 	sts	0x0A49, r1
    2528:	39 c0       	rjmp	.+114    	; 0x259c <Key_scan+0xf0>
					break;
				case _KEY_UP:
					KeyData = KEY_UP_S;
    252a:	82 e0       	ldi	r24, 0x02	; 2
    252c:	01 c0       	rjmp	.+2      	; 0x2530 <Key_scan+0x84>
					break;
				case _KEY_DW:
					KeyData = KEY_DW_S;
    252e:	84 e0       	ldi	r24, 0x04	; 4
    2530:	80 93 49 0a 	sts	0x0A49, r24
    2534:	33 c0       	rjmp	.+102    	; 0x259c <Key_scan+0xf0>
					break;
				case _KEY_RST:
					KeyData = KEY_RE_S;
    2536:	86 e0       	ldi	r24, 0x06	; 6
    2538:	fb cf       	rjmp	.-10     	; 0x2530 <Key_scan+0x84>
					break;
				case _KEY_TEST:
					KeyData = KEY_TE_S;
    253a:	88 e0       	ldi	r24, 0x08	; 8
    253c:	f9 cf       	rjmp	.-14     	; 0x2530 <Key_scan+0x84>
					break;
				case _KEY_PWR:
					KeyData = KEY_PW_S;
    253e:	8a e0       	ldi	r24, 0x0A	; 10
    2540:	80 93 49 0a 	sts	0x0A49, r24
					if( !(det_power_control & Det_Power_Control_Bit) ){
    2544:	80 91 da 0a 	lds	r24, 0x0ADA
    2548:	80 fd       	sbrc	r24, 0
    254a:	12 c0       	rjmp	.+36     	; 0x2570 <Key_scan+0xc4>
						det_power_control = ( Det_Power_Control_Bit | Det_Power_System_Check_Bit );
    254c:	85 e0       	ldi	r24, 0x05	; 5
    254e:	80 93 da 0a 	sts	0x0ADA, r24
						mmi_mode = FMODE_DET_SYSTEM_CHECK;
    2552:	90 93 cf 0a 	sts	0x0ACF, r25
						P24V_OUT_ON();
    2556:	80 91 05 01 	lds	r24, 0x0105
    255a:	80 68       	ori	r24, 0x80	; 128
    255c:	80 93 05 01 	sts	0x0105, r24
						PWR_LED_ON();
    2560:	46 9a       	sbi	0x08, 6	; 8
						
						if(!FullScaleMode){
    2562:	80 91 d0 0a 	lds	r24, 0x0AD0
    2566:	88 23       	and	r24, r24
    2568:	c9 f4       	brne	.+50     	; 0x259c <Key_scan+0xf0>
							FullScaleMode = 1;
    256a:	90 93 d0 0a 	sts	0x0AD0, r25
    256e:	16 c0       	rjmp	.+44     	; 0x259c <Key_scan+0xf0>
						}
					}
					else{
						Mode_Select();
    2570:	0e 94 57 17 	call	0x2eae	; 0x2eae <Mode_Select>
						det_power_control = 0;
    2574:	10 92 da 0a 	sts	0x0ADA, r1
						det_power_out = 0;
    2578:	10 92 81 0a 	sts	0x0A81, r1
						Calibration_Mode_Flow = 0;
    257c:	10 92 82 0a 	sts	0x0A82, r1
						sTimerFlag[TMR_DET_SYSTEM_CHECK] = 0;
    2580:	10 92 50 0f 	sts	0x0F50, r1
    2584:	10 92 4f 0f 	sts	0x0F4F, r1
						Det_System_Fault_Flag = 0;
    2588:	10 92 f5 0a 	sts	0x0AF5, r1
						reg_data_flag = 0;
    258c:	10 92 83 0a 	sts	0x0A83, r1
						
						if(FullScaleMode){
    2590:	80 91 d0 0a 	lds	r24, 0x0AD0
    2594:	88 23       	and	r24, r24
    2596:	11 f0       	breq	.+4      	; 0x259c <Key_scan+0xf0>
							FullScaleMode = 0;
    2598:	10 92 d0 0a 	sts	0x0AD0, r1
						}
					}
					break;
			}
			key_cnt = 0;
    259c:	10 92 3d 0a 	sts	0x0A3D, r1
    25a0:	10 92 3c 0a 	sts	0x0A3C, r1
    25a4:	08 95       	ret
		}
		else if(Key_long_flag > 1){
    25a6:	92 30       	cpi	r25, 0x02	; 2
    25a8:	08 f1       	brcs	.+66     	; 0x25ec <Key_scan+0x140>
			switch(KeyBuf){
    25aa:	80 91 40 0a 	lds	r24, 0x0A40
    25ae:	84 30       	cpi	r24, 0x04	; 4
    25b0:	71 f0       	breq	.+28     	; 0x25ce <Key_scan+0x122>
    25b2:	85 30       	cpi	r24, 0x05	; 5
    25b4:	28 f4       	brcc	.+10     	; 0x25c0 <Key_scan+0x114>
    25b6:	81 30       	cpi	r24, 0x01	; 1
    25b8:	99 f0       	breq	.+38     	; 0x25e0 <Key_scan+0x134>
    25ba:	82 30       	cpi	r24, 0x02	; 2
    25bc:	99 f4       	brne	.+38     	; 0x25e4 <Key_scan+0x138>
    25be:	0d c0       	rjmp	.+26     	; 0x25da <Key_scan+0x12e>
    25c0:	80 31       	cpi	r24, 0x10	; 16
    25c2:	49 f0       	breq	.+18     	; 0x25d6 <Key_scan+0x12a>
    25c4:	80 32       	cpi	r24, 0x20	; 32
    25c6:	59 f0       	breq	.+22     	; 0x25de <Key_scan+0x132>
    25c8:	88 30       	cpi	r24, 0x08	; 8
    25ca:	61 f4       	brne	.+24     	; 0x25e4 <Key_scan+0x138>
    25cc:	02 c0       	rjmp	.+4      	; 0x25d2 <Key_scan+0x126>
				case _KEY_FU:
					KeyData = KEY_FU_L;
					break;
				case _KEY_UP:
					KeyData = KEY_UP_L;
    25ce:	83 e0       	ldi	r24, 0x03	; 3
    25d0:	07 c0       	rjmp	.+14     	; 0x25e0 <Key_scan+0x134>
					break;
				case _KEY_DW:
					KeyData = KEY_DW_L;
    25d2:	85 e0       	ldi	r24, 0x05	; 5
    25d4:	05 c0       	rjmp	.+10     	; 0x25e0 <Key_scan+0x134>
					break;
				case _KEY_RST:
					KeyData = KEY_RE_L;
    25d6:	87 e0       	ldi	r24, 0x07	; 7
    25d8:	03 c0       	rjmp	.+6      	; 0x25e0 <Key_scan+0x134>
					break;
				case _KEY_TEST:
					KeyData = KEY_TE_L;
    25da:	89 e0       	ldi	r24, 0x09	; 9
    25dc:	01 c0       	rjmp	.+2      	; 0x25e0 <Key_scan+0x134>
					break;
				case _KEY_PWR:
					KeyData = KEY_PW_L;
    25de:	8b e0       	ldi	r24, 0x0B	; 11
    25e0:	80 93 49 0a 	sts	0x0A49, r24
					break;			}
			key_cnt = 0;
    25e4:	10 92 3d 0a 	sts	0x0A3D, r1
    25e8:	10 92 3c 0a 	sts	0x0A3C, r1
    25ec:	08 95       	ret

000025ee <Reset_Key_Check>:
	}
}

void Reset_Key_Check(void)
{
	if(mmi_mode <= FMODE_CONFIGIURATION){
    25ee:	80 91 cf 0a 	lds	r24, 0x0ACF
    25f2:	8c 30       	cpi	r24, 0x0C	; 12
    25f4:	18 f4       	brcc	.+6      	; 0x25fc <Reset_Key_Check+0xe>
		Mode_Select();
    25f6:	0e 94 57 17 	call	0x2eae	; 0x2eae <Mode_Select>
    25fa:	0d c0       	rjmp	.+26     	; 0x2616 <Reset_Key_Check+0x28>
	}
	else if(mmi_mode <= FMODE_ADDRESS_SET){
    25fc:	8f 30       	cpi	r24, 0x0F	; 15
    25fe:	10 f4       	brcc	.+4      	; 0x2604 <Reset_Key_Check+0x16>
		mmi_mode = FMODE_CONFIGIURATION;
    2600:	8b e0       	ldi	r24, 0x0B	; 11
    2602:	07 c0       	rjmp	.+14     	; 0x2612 <Reset_Key_Check+0x24>
	}
	else if(mmi_mode <= FMODE_DET_FUNCTION_SET){
    2604:	82 31       	cpi	r24, 0x12	; 18
    2606:	10 f4       	brcc	.+4      	; 0x260c <Reset_Key_Check+0x1e>
		mmi_mode = FMODE_DET_CONFIGIURATION;
    2608:	8c e0       	ldi	r24, 0x0C	; 12
    260a:	03 c0       	rjmp	.+6      	; 0x2612 <Reset_Key_Check+0x24>
	}
	else if(mmi_mode <= FMODE_DEV_MODE_SET){
    260c:	84 31       	cpi	r24, 0x14	; 20
    260e:	18 f4       	brcc	.+6      	; 0x2616 <Reset_Key_Check+0x28>
		mmi_mode = FMODE_DEV_CONFIGIURATION;
    2610:	8d e0       	ldi	r24, 0x0D	; 13
    2612:	80 93 cf 0a 	sts	0x0ACF, r24
	}
	
	reg_data_old = 0xff;
    2616:	8f ef       	ldi	r24, 0xFF	; 255
    2618:	80 93 b5 0a 	sts	0x0AB5, r24
	setting_mode_cursor = 0;
    261c:	10 92 35 0a 	sts	0x0A35, r1
	key_func_select_flag = 0;
    2620:	10 92 3a 0a 	sts	0x0A3A, r1
	
	Initialize_ModeFlag();
    2624:	0e 94 bb 20 	call	0x4176	; 0x4176 <Initialize_ModeFlag>
}
    2628:	08 95       	ret

0000262a <Func_Det_Test_Mode_Key>:
	}	
}

void Func_Det_Test_Mode_Key(void)
{
	switch(KeyData){
    262a:	80 91 49 0a 	lds	r24, 0x0A49
    262e:	86 30       	cpi	r24, 0x06	; 6
    2630:	11 f4       	brne	.+4      	; 0x2636 <Func_Det_Test_Mode_Key+0xc>
		case KEY_RE_S:
			Reset_Key_Check();
    2632:	0e 94 f7 12 	call	0x25ee	; 0x25ee <Reset_Key_Check>
    2636:	08 95       	ret

00002638 <Func_Dev_Configiuration_Key>:
	}
}

void Func_Dev_Configiuration_Key(void)
{
	Cousor_Location(line_1, line_2);
    2638:	80 e0       	ldi	r24, 0x00	; 0
    263a:	61 e0       	ldi	r22, 0x01	; 1
    263c:	0e 94 7b 11 	call	0x22f6	; 0x22f6 <Cousor_Location>
		
	switch(KeyData){
    2640:	80 91 49 0a 	lds	r24, 0x0A49
    2644:	88 23       	and	r24, r24
    2646:	19 f0       	breq	.+6      	; 0x264e <Func_Dev_Configiuration_Key+0x16>
    2648:	86 30       	cpi	r24, 0x06	; 6
    264a:	d1 f4       	brne	.+52     	; 0x2680 <Func_Dev_Configiuration_Key+0x48>
    264c:	17 c0       	rjmp	.+46     	; 0x267c <Func_Dev_Configiuration_Key+0x44>
		case KEY_FU_S:
			switch(setting_mode_cursor){
    264e:	80 91 35 0a 	lds	r24, 0x0A35
    2652:	88 23       	and	r24, r24
    2654:	19 f0       	breq	.+6      	; 0x265c <Func_Dev_Configiuration_Key+0x24>
    2656:	81 30       	cpi	r24, 0x01	; 1
    2658:	71 f4       	brne	.+28     	; 0x2676 <Func_Dev_Configiuration_Key+0x3e>
    265a:	04 c0       	rjmp	.+8      	; 0x2664 <Func_Dev_Configiuration_Key+0x2c>
				case line_1:
					mmi_mode = FMODE_DEV_MA_CAL_SET;
    265c:	82 e1       	ldi	r24, 0x12	; 18
    265e:	80 93 cf 0a 	sts	0x0ACF, r24
    2662:	09 c0       	rjmp	.+18     	; 0x2676 <Func_Dev_Configiuration_Key+0x3e>
					break;
				case line_2:
					mmi_mode = FMODE_DEV_MODE_SET;
    2664:	83 e1       	ldi	r24, 0x13	; 19
    2666:	80 93 cf 0a 	sts	0x0ACF, r24
					mmi_tmp[line_1] = Device_Mode_Select;
    266a:	80 91 d9 0a 	lds	r24, 0x0AD9
    266e:	80 93 41 0a 	sts	0x0A41, r24
    2672:	10 92 42 0a 	sts	0x0A42, r1
					break;
			}
			setting_mode_cursor = 0;
    2676:	10 92 35 0a 	sts	0x0A35, r1
    267a:	08 95       	ret
			break;
		case KEY_UP_S:
		case KEY_DW_S:
			break;
		case KEY_RE_S:
			Reset_Key_Check();
    267c:	0e 94 f7 12 	call	0x25ee	; 0x25ee <Reset_Key_Check>
    2680:	08 95       	ret

00002682 <Func_Det_Configiuration_Key>:
	}
}

void Func_Det_Configiuration_Key(void)
{
	Cousor_Location(line_1, line_4);
    2682:	80 e0       	ldi	r24, 0x00	; 0
    2684:	63 e0       	ldi	r22, 0x03	; 3
    2686:	0e 94 7b 11 	call	0x22f6	; 0x22f6 <Cousor_Location>
		
	switch(KeyData){
    268a:	80 91 49 0a 	lds	r24, 0x0A49
    268e:	88 23       	and	r24, r24
    2690:	21 f0       	breq	.+8      	; 0x269a <Func_Det_Configiuration_Key+0x18>
    2692:	86 30       	cpi	r24, 0x06	; 6
    2694:	09 f0       	breq	.+2      	; 0x2698 <Func_Det_Configiuration_Key+0x16>
    2696:	40 c0       	rjmp	.+128    	; 0x2718 <Func_Det_Configiuration_Key+0x96>
    2698:	3d c0       	rjmp	.+122    	; 0x2714 <Func_Det_Configiuration_Key+0x92>
		case KEY_FU_S:
			switch(setting_mode_cursor){
    269a:	80 91 35 0a 	lds	r24, 0x0A35
    269e:	81 30       	cpi	r24, 0x01	; 1
    26a0:	89 f0       	breq	.+34     	; 0x26c4 <Func_Det_Configiuration_Key+0x42>
    26a2:	81 30       	cpi	r24, 0x01	; 1
    26a4:	18 f0       	brcs	.+6      	; 0x26ac <Func_Det_Configiuration_Key+0x2a>
    26a6:	82 30       	cpi	r24, 0x02	; 2
    26a8:	91 f5       	brne	.+100    	; 0x270e <Func_Det_Configiuration_Key+0x8c>
    26aa:	1c c0       	rjmp	.+56     	; 0x26e4 <Func_Det_Configiuration_Key+0x62>
				case line_1:
					mmi_mode = FMODE_DET_IR_RESPONSIVITY_SET;
    26ac:	80 e1       	ldi	r24, 0x10	; 16
    26ae:	80 93 cf 0a 	sts	0x0ACF, r24
					//det_ir_reponsivity_466 = Det_Holding_Reg_Data[DET_EEP_CAL_BUF_IR430_RESPONSIVITY];
					mmi_tmp[line_1] = det_ir_reponsivity_466;
    26b2:	80 91 3e 0a 	lds	r24, 0x0A3E
    26b6:	90 91 3f 0a 	lds	r25, 0x0A3F
    26ba:	90 93 42 0a 	sts	0x0A42, r25
    26be:	80 93 41 0a 	sts	0x0A41, r24
    26c2:	25 c0       	rjmp	.+74     	; 0x270e <Func_Det_Configiuration_Key+0x8c>
					break;
				case line_2:
					mmi_mode = FMODE_DET_RELAY_SET;
    26c4:	8f e0       	ldi	r24, 0x0F	; 15
    26c6:	80 93 cf 0a 	sts	0x0ACF, r24
					//alm_relay_operation = Det_Holding_Reg_Data[DET_EEP_ALM_RLY_OPERATION];
					//trb_relay_operation = Det_Holding_Reg_Data[DET_EEP_TRB_RLY_OPERATION];
					mmi_tmp[line_1] = alm_relay_operation;
    26ca:	80 91 37 0a 	lds	r24, 0x0A37
    26ce:	80 93 41 0a 	sts	0x0A41, r24
    26d2:	10 92 42 0a 	sts	0x0A42, r1
					mmi_tmp[line_2] = trb_relay_operation;
    26d6:	80 91 34 0a 	lds	r24, 0x0A34
    26da:	80 93 43 0a 	sts	0x0A43, r24
    26de:	10 92 44 0a 	sts	0x0A44, r1
    26e2:	15 c0       	rjmp	.+42     	; 0x270e <Func_Det_Configiuration_Key+0x8c>
					break;
				case line_3:
					mmi_mode = FMODE_DET_FUNCTION_SET;
    26e4:	81 e1       	ldi	r24, 0x11	; 17
    26e6:	80 93 cf 0a 	sts	0x0ACF, r24
					//bit_operation = Det_Holding_Reg_Data[DET_EEP_BIT_MODE];
					//det_pwr_ctr_value = Det_Holding_Reg_Data[DET_EEP_UV_PWR_CTRL];
					//det_log_mode_value = Det_Holding_Reg_Data[DET_EEP_LOG_MODE];
					mmi_tmp[line_1] = bit_operation;
    26ea:	e1 e4       	ldi	r30, 0x41	; 65
    26ec:	fa e0       	ldi	r31, 0x0A	; 10
    26ee:	80 91 b0 0a 	lds	r24, 0x0AB0
    26f2:	80 93 41 0a 	sts	0x0A41, r24
    26f6:	10 92 42 0a 	sts	0x0A42, r1
					mmi_tmp[line_2] = det_pwr_ctr_value;
    26fa:	80 91 80 0a 	lds	r24, 0x0A80
    26fe:	80 93 43 0a 	sts	0x0A43, r24
    2702:	13 82       	std	Z+3, r1	; 0x03
					mmi_tmp[line_3] = det_log_mode_value;
    2704:	80 91 f6 0a 	lds	r24, 0x0AF6
    2708:	80 93 45 0a 	sts	0x0A45, r24
    270c:	15 82       	std	Z+5, r1	; 0x05
				break;
			}
			setting_mode_cursor = 0;
    270e:	10 92 35 0a 	sts	0x0A35, r1
    2712:	08 95       	ret
			break;
		case KEY_UP_S:
		case KEY_DW_S:
			break;
		case KEY_RE_S:
			Reset_Key_Check();
    2714:	0e 94 f7 12 	call	0x25ee	; 0x25ee <Reset_Key_Check>
    2718:	08 95       	ret

0000271a <Func_Configiuration_Key>:
	}
}

void Func_Configiuration_Key(void)
{
	Cousor_Location(line_1, line_3);
    271a:	80 e0       	ldi	r24, 0x00	; 0
    271c:	62 e0       	ldi	r22, 0x02	; 2
    271e:	0e 94 7b 11 	call	0x22f6	; 0x22f6 <Cousor_Location>
		
	switch(KeyData){
    2722:	80 91 49 0a 	lds	r24, 0x0A49
    2726:	88 23       	and	r24, r24
    2728:	19 f0       	breq	.+6      	; 0x2730 <Func_Configiuration_Key+0x16>
    272a:	86 30       	cpi	r24, 0x06	; 6
    272c:	21 f5       	brne	.+72     	; 0x2776 <Func_Configiuration_Key+0x5c>
    272e:	21 c0       	rjmp	.+66     	; 0x2772 <Func_Configiuration_Key+0x58>
		case KEY_FU_S:
			switch(setting_mode_cursor){
    2730:	80 91 35 0a 	lds	r24, 0x0A35
    2734:	81 30       	cpi	r24, 0x01	; 1
    2736:	39 f0       	breq	.+14     	; 0x2746 <Func_Configiuration_Key+0x2c>
    2738:	81 30       	cpi	r24, 0x01	; 1
    273a:	18 f0       	brcs	.+6      	; 0x2742 <Func_Configiuration_Key+0x28>
    273c:	82 30       	cpi	r24, 0x02	; 2
    273e:	b1 f4       	brne	.+44     	; 0x276c <Func_Configiuration_Key+0x52>
    2740:	06 c0       	rjmp	.+12     	; 0x274e <Func_Configiuration_Key+0x34>
				case line_1:
					mmi_mode = FMODE_DET_CONFIGIURATION;
    2742:	8c e0       	ldi	r24, 0x0C	; 12
    2744:	01 c0       	rjmp	.+2      	; 0x2748 <Func_Configiuration_Key+0x2e>
					break;
				case line_2:
					mmi_mode = FMODE_DEV_CONFIGIURATION;
    2746:	8d e0       	ldi	r24, 0x0D	; 13
    2748:	80 93 cf 0a 	sts	0x0ACF, r24
    274c:	0f c0       	rjmp	.+30     	; 0x276c <Func_Configiuration_Key+0x52>
					break;
				case line_3:
					mmi_mode = FMODE_ADDRESS_SET;
    274e:	8e e0       	ldi	r24, 0x0E	; 14
    2750:	80 93 cf 0a 	sts	0x0ACF, r24
					mmi_tmp[line_1] = Det_Address;
    2754:	80 91 f9 0e 	lds	r24, 0x0EF9
    2758:	80 93 41 0a 	sts	0x0A41, r24
    275c:	10 92 42 0a 	sts	0x0A42, r1
					mmi_tmp[line_2] = Dvc_Address;
    2760:	80 91 fa 0e 	lds	r24, 0x0EFA
    2764:	80 93 43 0a 	sts	0x0A43, r24
    2768:	10 92 44 0a 	sts	0x0A44, r1
			}
			setting_mode_cursor = 0;
    276c:	10 92 35 0a 	sts	0x0A35, r1
    2770:	08 95       	ret
			break;
		case KEY_UP_S:
		case KEY_DW_S:
			break;
		case KEY_RE_S:
			Reset_Key_Check();
    2772:	0e 94 f7 12 	call	0x25ee	; 0x25ee <Reset_Key_Check>
    2776:	08 95       	ret

00002778 <Func_Det_Eep_Clear_Mode_Key>:
			break;
	}
}

void Func_Det_Eep_Clear_Mode_Key(void)
{
    2778:	1f 93       	push	r17
	//Cousor_Location(line_2, line_4);
	Cousor_Location(line_2, line_2);
    277a:	81 e0       	ldi	r24, 0x01	; 1
    277c:	61 e0       	ldi	r22, 0x01	; 1
    277e:	0e 94 7b 11 	call	0x22f6	; 0x22f6 <Cousor_Location>

	switch(KeyData){
    2782:	80 91 49 0a 	lds	r24, 0x0A49
    2786:	88 23       	and	r24, r24
    2788:	19 f0       	breq	.+6      	; 0x2790 <Func_Det_Eep_Clear_Mode_Key+0x18>
    278a:	86 30       	cpi	r24, 0x06	; 6
    278c:	f1 f4       	brne	.+60     	; 0x27ca <Func_Det_Eep_Clear_Mode_Key+0x52>
    278e:	1b c0       	rjmp	.+54     	; 0x27c6 <Func_Det_Eep_Clear_Mode_Key+0x4e>
		case KEY_FU_S:
			switch(setting_mode_cursor){
    2790:	10 91 35 0a 	lds	r17, 0x0A35
    2794:	12 30       	cpi	r17, 0x02	; 2
    2796:	49 f0       	breq	.+18     	; 0x27aa <Func_Det_Eep_Clear_Mode_Key+0x32>
    2798:	13 30       	cpi	r17, 0x03	; 3
    279a:	69 f0       	breq	.+26     	; 0x27b6 <Func_Det_Eep_Clear_Mode_Key+0x3e>
    279c:	11 30       	cpi	r17, 0x01	; 1
    279e:	69 f4       	brne	.+26     	; 0x27ba <Func_Det_Eep_Clear_Mode_Key+0x42>
				case line_2:
					Det_Write_Multi_Func(DET_EEP_EVT_BIT_IR430_1S_PTOP_MIN, DET_EEP_EVT_IR530_DRIFT_T_MAX_H);
    27a0:	85 e5       	ldi	r24, 0x55	; 85
    27a2:	90 e0       	ldi	r25, 0x00	; 0
    27a4:	66 ed       	ldi	r22, 0xD6	; 214
    27a6:	70 e0       	ldi	r23, 0x00	; 0
    27a8:	04 c0       	rjmp	.+8      	; 0x27b2 <Func_Det_Eep_Clear_Mode_Key+0x3a>
					ModeSetFlag[FMODE_DET_EEP_CLEAR_MODE] = 1;
					break;
				case line_3:
					Det_Write_Multi_Func(DET_EEP_CAL_BUF_IR430_RESPONSIVITY,DET_EEP_CAL_VAL_IR530_07);
    27aa:	88 e2       	ldi	r24, 0x28	; 40
    27ac:	90 e0       	ldi	r25, 0x00	; 0
    27ae:	62 e5       	ldi	r22, 0x52	; 82
    27b0:	70 e0       	ldi	r23, 0x00	; 0
    27b2:	0e 94 bc 33 	call	0x6778	; 0x6778 <Det_Write_Multi_Func>
					ModeSetFlag[FMODE_DET_EEP_CLEAR_MODE] = 2;
					break;
				case line_4:
					//Det_Write_Multi_Func(DET_EEP_CLEAR_MODE,3);
					ModeSetFlag[FMODE_DET_EEP_CLEAR_MODE] = 3;
    27b6:	10 93 be 0a 	sts	0x0ABE, r17
					break;
			}
			ModeSetFlow[FMODE_DET_EEP_CLEAR_MODE] = 2;
    27ba:	82 e0       	ldi	r24, 0x02	; 2
    27bc:	80 93 e0 0a 	sts	0x0AE0, r24
			setting_mode_cursor = 0;
    27c0:	10 92 35 0a 	sts	0x0A35, r1
    27c4:	02 c0       	rjmp	.+4      	; 0x27ca <Func_Det_Eep_Clear_Mode_Key+0x52>
			break;
		case KEY_UP_S:
		case KEY_DW_S:
			break;
		case KEY_RE_S:
			Reset_Key_Check();
    27c6:	0e 94 f7 12 	call	0x25ee	; 0x25ee <Reset_Key_Check>
		case KEY_UP_L:	break;
		case KEY_DW_L:	break;
		case KEY_RE_L:	break;
		case KEY_TE_L:	break;
	}
}
    27ca:	1f 91       	pop	r17
    27cc:	08 95       	ret

000027ce <Func_Det_Function_Set_Key>:
	}	
}

void Func_Det_Function_Set_Key(void)
{
	Cousor_Location(line_1, line_3);
    27ce:	80 e0       	ldi	r24, 0x00	; 0
    27d0:	62 e0       	ldi	r22, 0x02	; 2
    27d2:	0e 94 7b 11 	call	0x22f6	; 0x22f6 <Cousor_Location>

	switch(KeyData){
    27d6:	90 91 49 0a 	lds	r25, 0x0A49
    27da:	92 30       	cpi	r25, 0x02	; 2
    27dc:	09 f4       	brne	.+2      	; 0x27e0 <Func_Det_Function_Set_Key+0x12>
    27de:	4e c0       	rjmp	.+156    	; 0x287c <Func_Det_Function_Set_Key+0xae>
    27e0:	93 30       	cpi	r25, 0x03	; 3
    27e2:	18 f4       	brcc	.+6      	; 0x27ea <Func_Det_Function_Set_Key+0x1c>
    27e4:	99 23       	and	r25, r25
    27e6:	41 f0       	breq	.+16     	; 0x27f8 <Func_Det_Function_Set_Key+0x2a>
    27e8:	08 95       	ret
    27ea:	94 30       	cpi	r25, 0x04	; 4
    27ec:	09 f4       	brne	.+2      	; 0x27f0 <Func_Det_Function_Set_Key+0x22>
    27ee:	46 c0       	rjmp	.+140    	; 0x287c <Func_Det_Function_Set_Key+0xae>
    27f0:	96 30       	cpi	r25, 0x06	; 6
    27f2:	09 f0       	breq	.+2      	; 0x27f6 <Func_Det_Function_Set_Key+0x28>
    27f4:	a2 c0       	rjmp	.+324    	; 0x293a <Func_Det_Function_Set_Key+0x16c>
    27f6:	98 c0       	rjmp	.+304    	; 0x2928 <Func_Det_Function_Set_Key+0x15a>
		case KEY_FU_S:
			if(key_func_select_flag){
    27f8:	80 91 3a 0a 	lds	r24, 0x0A3A
    27fc:	88 23       	and	r24, r24
    27fe:	41 f1       	breq	.+80     	; 0x2850 <Func_Det_Function_Set_Key+0x82>
				key_func_select_flag = 0;
    2800:	10 92 3a 0a 	sts	0x0A3A, r1
				
				switch(setting_mode_cursor){
    2804:	80 91 35 0a 	lds	r24, 0x0A35
    2808:	81 30       	cpi	r24, 0x01	; 1
    280a:	61 f0       	breq	.+24     	; 0x2824 <Func_Det_Function_Set_Key+0x56>
    280c:	81 30       	cpi	r24, 0x01	; 1
    280e:	18 f0       	brcs	.+6      	; 0x2816 <Func_Det_Function_Set_Key+0x48>
    2810:	82 30       	cpi	r24, 0x02	; 2
    2812:	b9 f4       	brne	.+46     	; 0x2842 <Func_Det_Function_Set_Key+0x74>
    2814:	0e c0       	rjmp	.+28     	; 0x2832 <Func_Det_Function_Set_Key+0x64>
					case line_1:
						Det_Write_Single_Func(DET_EEP_BIT_MODE, mmi_tmp[line_1]);
    2816:	60 91 41 0a 	lds	r22, 0x0A41
    281a:	70 91 42 0a 	lds	r23, 0x0A42
    281e:	86 e0       	ldi	r24, 0x06	; 6
    2820:	90 e0       	ldi	r25, 0x00	; 0
    2822:	0d c0       	rjmp	.+26     	; 0x283e <Func_Det_Function_Set_Key+0x70>
						break;
					case line_2:
						Det_Write_Single_Func(DET_EEP_UV_PWR_CTRL, mmi_tmp[line_2]);
    2824:	60 91 43 0a 	lds	r22, 0x0A43
    2828:	70 91 44 0a 	lds	r23, 0x0A44
    282c:	87 e0       	ldi	r24, 0x07	; 7
    282e:	90 e0       	ldi	r25, 0x00	; 0
    2830:	06 c0       	rjmp	.+12     	; 0x283e <Func_Det_Function_Set_Key+0x70>
						break;
					case line_3:
						Det_Write_Single_Func(DET_EEP_LOG_MODE, mmi_tmp[line_3]);
    2832:	60 91 45 0a 	lds	r22, 0x0A45
    2836:	70 91 46 0a 	lds	r23, 0x0A46
    283a:	85 e0       	ldi	r24, 0x05	; 5
    283c:	90 e0       	ldi	r25, 0x00	; 0
    283e:	0e 94 ad 33 	call	0x675a	; 0x675a <Det_Write_Single_Func>
						break;
				}
				Det_Modbus_Buf[Det_Comm_Flow] = Commnication_Data_Set;
    2842:	88 e0       	ldi	r24, 0x08	; 8
    2844:	90 e0       	ldi	r25, 0x00	; 0
    2846:	90 93 1f 15 	sts	0x151F, r25
    284a:	80 93 1e 15 	sts	0x151E, r24
    284e:	08 95       	ret
			}
			else{
				key_func_select_flag = 1;
    2850:	81 e0       	ldi	r24, 0x01	; 1
    2852:	80 93 3a 0a 	sts	0x0A3A, r24
				mmi_tmp[line_1] = bit_operation;
    2856:	e1 e4       	ldi	r30, 0x41	; 65
    2858:	fa e0       	ldi	r31, 0x0A	; 10
    285a:	80 91 b0 0a 	lds	r24, 0x0AB0
    285e:	80 93 41 0a 	sts	0x0A41, r24
    2862:	10 92 42 0a 	sts	0x0A42, r1
				mmi_tmp[line_2] = det_pwr_ctr_value;
    2866:	80 91 80 0a 	lds	r24, 0x0A80
    286a:	80 93 43 0a 	sts	0x0A43, r24
    286e:	13 82       	std	Z+3, r1	; 0x03
				mmi_tmp[line_3] = det_log_mode_value;
    2870:	80 91 f6 0a 	lds	r24, 0x0AF6
    2874:	80 93 45 0a 	sts	0x0A45, r24
    2878:	15 82       	std	Z+5, r1	; 0x05
    287a:	08 95       	ret
			}
			break;
		case KEY_UP_S:
		case KEY_DW_S:
			if(!key_func_select_flag){
    287c:	80 91 3a 0a 	lds	r24, 0x0A3A
    2880:	88 23       	and	r24, r24
    2882:	09 f4       	brne	.+2      	; 0x2886 <Func_Det_Function_Set_Key+0xb8>
    2884:	5a c0       	rjmp	.+180    	; 0x293a <Func_Det_Function_Set_Key+0x16c>
				//Cousor_Location(line_1, line_3);
			}
			else{
				if(setting_mode_cursor == line_1){
    2886:	80 91 35 0a 	lds	r24, 0x0A35
    288a:	88 23       	and	r24, r24
    288c:	91 f4       	brne	.+36     	; 0x28b2 <Func_Det_Function_Set_Key+0xe4>
					if(mmi_tmp[line_1])	mmi_tmp[line_1] = 0;
    288e:	80 91 41 0a 	lds	r24, 0x0A41
    2892:	90 91 42 0a 	lds	r25, 0x0A42
    2896:	89 2b       	or	r24, r25
    2898:	29 f0       	breq	.+10     	; 0x28a4 <Func_Det_Function_Set_Key+0xd6>
    289a:	10 92 42 0a 	sts	0x0A42, r1
    289e:	10 92 41 0a 	sts	0x0A41, r1
    28a2:	08 95       	ret
					else				mmi_tmp[line_1] = 1;
    28a4:	81 e0       	ldi	r24, 0x01	; 1
    28a6:	90 e0       	ldi	r25, 0x00	; 0
    28a8:	90 93 42 0a 	sts	0x0A42, r25
    28ac:	80 93 41 0a 	sts	0x0A41, r24
    28b0:	08 95       	ret
				}
				else if(setting_mode_cursor == line_2){
    28b2:	81 30       	cpi	r24, 0x01	; 1
    28b4:	91 f4       	brne	.+36     	; 0x28da <Func_Det_Function_Set_Key+0x10c>
					if(mmi_tmp[line_2])	mmi_tmp[line_2] = 0;
    28b6:	80 91 43 0a 	lds	r24, 0x0A43
    28ba:	90 91 44 0a 	lds	r25, 0x0A44
    28be:	89 2b       	or	r24, r25
    28c0:	29 f0       	breq	.+10     	; 0x28cc <Func_Det_Function_Set_Key+0xfe>
    28c2:	10 92 44 0a 	sts	0x0A44, r1
    28c6:	10 92 43 0a 	sts	0x0A43, r1
    28ca:	08 95       	ret
					else				mmi_tmp[line_2] = 1;
    28cc:	81 e0       	ldi	r24, 0x01	; 1
    28ce:	90 e0       	ldi	r25, 0x00	; 0
    28d0:	90 93 44 0a 	sts	0x0A44, r25
    28d4:	80 93 43 0a 	sts	0x0A43, r24
    28d8:	08 95       	ret
				}
				else if(setting_mode_cursor == line_3){
    28da:	82 30       	cpi	r24, 0x02	; 2
    28dc:	71 f5       	brne	.+92     	; 0x293a <Func_Det_Function_Set_Key+0x16c>
					if(KeyData == KEY_UP_S){
    28de:	92 30       	cpi	r25, 0x02	; 2
    28e0:	81 f4       	brne	.+32     	; 0x2902 <Func_Det_Function_Set_Key+0x134>
						mmi_tmp[line_3]++;
    28e2:	80 91 45 0a 	lds	r24, 0x0A45
    28e6:	90 91 46 0a 	lds	r25, 0x0A46
    28ea:	01 96       	adiw	r24, 0x01	; 1
    28ec:	90 93 46 0a 	sts	0x0A46, r25
    28f0:	80 93 45 0a 	sts	0x0A45, r24
						if(mmi_tmp[line_3] > 3){
    28f4:	04 97       	sbiw	r24, 0x04	; 4
    28f6:	08 f1       	brcs	.+66     	; 0x293a <Func_Det_Function_Set_Key+0x16c>
							mmi_tmp[line_3] = 0;
    28f8:	10 92 46 0a 	sts	0x0A46, r1
    28fc:	10 92 45 0a 	sts	0x0A45, r1
    2900:	08 95       	ret
						}
					}
					else{
						mmi_tmp[line_3]--;
    2902:	80 91 45 0a 	lds	r24, 0x0A45
    2906:	90 91 46 0a 	lds	r25, 0x0A46
    290a:	01 97       	sbiw	r24, 0x01	; 1
    290c:	90 93 46 0a 	sts	0x0A46, r25
    2910:	80 93 45 0a 	sts	0x0A45, r24
						if(mmi_tmp[line_3] == 0xff){
    2914:	8f 3f       	cpi	r24, 0xFF	; 255
    2916:	91 05       	cpc	r25, r1
    2918:	81 f4       	brne	.+32     	; 0x293a <Func_Det_Function_Set_Key+0x16c>
							mmi_tmp[line_3] = 3;
    291a:	83 e0       	ldi	r24, 0x03	; 3
    291c:	90 e0       	ldi	r25, 0x00	; 0
    291e:	90 93 46 0a 	sts	0x0A46, r25
    2922:	80 93 45 0a 	sts	0x0A45, r24
    2926:	08 95       	ret
					
				}
			}
			break;
		case KEY_RE_S:
			if(key_func_select_flag){
    2928:	80 91 3a 0a 	lds	r24, 0x0A3A
    292c:	88 23       	and	r24, r24
    292e:	19 f0       	breq	.+6      	; 0x2936 <Func_Det_Function_Set_Key+0x168>
				key_func_select_flag = 0;
    2930:	10 92 3a 0a 	sts	0x0A3A, r1
    2934:	08 95       	ret
			}
			else{
				Reset_Key_Check();
    2936:	0e 94 f7 12 	call	0x25ee	; 0x25ee <Reset_Key_Check>
    293a:	08 95       	ret

0000293c <Func_Det_Ir_Responsivity_Set_Key>:
	}
}

void Func_Det_Ir_Responsivity_Set_Key(void)
{
	Cousor_Location(line_1, line_3);
    293c:	80 e0       	ldi	r24, 0x00	; 0
    293e:	62 e0       	ldi	r22, 0x02	; 2
    2940:	0e 94 7b 11 	call	0x22f6	; 0x22f6 <Cousor_Location>
		
	switch(KeyData){
    2944:	80 91 49 0a 	lds	r24, 0x0A49
    2948:	83 30       	cpi	r24, 0x03	; 3
    294a:	09 f4       	brne	.+2      	; 0x294e <Func_Det_Ir_Responsivity_Set_Key+0x12>
    294c:	59 c0       	rjmp	.+178    	; 0x2a00 <Func_Det_Ir_Responsivity_Set_Key+0xc4>
    294e:	84 30       	cpi	r24, 0x04	; 4
    2950:	30 f4       	brcc	.+12     	; 0x295e <Func_Det_Ir_Responsivity_Set_Key+0x22>
    2952:	88 23       	and	r24, r24
    2954:	69 f0       	breq	.+26     	; 0x2970 <Func_Det_Ir_Responsivity_Set_Key+0x34>
    2956:	82 30       	cpi	r24, 0x02	; 2
    2958:	09 f0       	breq	.+2      	; 0x295c <Func_Det_Ir_Responsivity_Set_Key+0x20>
    295a:	77 c0       	rjmp	.+238    	; 0x2a4a <Func_Det_Ir_Responsivity_Set_Key+0x10e>
    295c:	2a c0       	rjmp	.+84     	; 0x29b2 <Func_Det_Ir_Responsivity_Set_Key+0x76>
    295e:	85 30       	cpi	r24, 0x05	; 5
    2960:	09 f4       	brne	.+2      	; 0x2964 <Func_Det_Ir_Responsivity_Set_Key+0x28>
    2962:	4e c0       	rjmp	.+156    	; 0x2a00 <Func_Det_Ir_Responsivity_Set_Key+0xc4>
    2964:	85 30       	cpi	r24, 0x05	; 5
    2966:	28 f1       	brcs	.+74     	; 0x29b2 <Func_Det_Ir_Responsivity_Set_Key+0x76>
    2968:	86 30       	cpi	r24, 0x06	; 6
    296a:	09 f0       	breq	.+2      	; 0x296e <Func_Det_Ir_Responsivity_Set_Key+0x32>
    296c:	6e c0       	rjmp	.+220    	; 0x2a4a <Func_Det_Ir_Responsivity_Set_Key+0x10e>
    296e:	3e c0       	rjmp	.+124    	; 0x29ec <Func_Det_Ir_Responsivity_Set_Key+0xb0>
		case KEY_FU_S:
			if(key_func_select_flag){
    2970:	80 91 3a 0a 	lds	r24, 0x0A3A
    2974:	88 23       	and	r24, r24
    2976:	a9 f0       	breq	.+42     	; 0x29a2 <Func_Det_Ir_Responsivity_Set_Key+0x66>
				key_func_select_flag = 0;
    2978:	10 92 3a 0a 	sts	0x0A3A, r1
				
				if(setting_mode_cursor == line_1){
    297c:	80 91 35 0a 	lds	r24, 0x0A35
    2980:	88 23       	and	r24, r24
    2982:	41 f4       	brne	.+16     	; 0x2994 <Func_Det_Ir_Responsivity_Set_Key+0x58>
					Det_Write_Single_Func(DET_EEP_CAL_BUF_IR430_RESPONSIVITY, mmi_tmp[line_1]);
    2984:	60 91 41 0a 	lds	r22, 0x0A41
    2988:	70 91 42 0a 	lds	r23, 0x0A42
    298c:	88 e2       	ldi	r24, 0x28	; 40
    298e:	90 e0       	ldi	r25, 0x00	; 0
    2990:	0e 94 ad 33 	call	0x675a	; 0x675a <Det_Write_Single_Func>
				}
				else if(setting_mode_cursor == line_3){
					Det_Write_Single_Func(DET_EEP_CAL_BUF_IR430_RESPONSIVITY, det_ir_reponsivity_466);
				}
				*/
				Det_Modbus_Buf[Det_Comm_Flow] = Commnication_Data_Set;
    2994:	88 e0       	ldi	r24, 0x08	; 8
    2996:	90 e0       	ldi	r25, 0x00	; 0
    2998:	90 93 1f 15 	sts	0x151F, r25
    299c:	80 93 1e 15 	sts	0x151E, r24
    29a0:	08 95       	ret
			}
			else{
				key_func_select_flag = 1;
    29a2:	81 e0       	ldi	r24, 0x01	; 1
    29a4:	80 93 3a 0a 	sts	0x0A3A, r24
				mmi_tmp[line_1] = det_ir_reponsivity_466;
    29a8:	80 91 3e 0a 	lds	r24, 0x0A3E
    29ac:	90 91 3f 0a 	lds	r25, 0x0A3F
    29b0:	3f c0       	rjmp	.+126    	; 0x2a30 <Func_Det_Ir_Responsivity_Set_Key+0xf4>
			}
			break;
		case KEY_UP_S:
		case KEY_DW_S:
			if(!key_func_select_flag){
    29b2:	80 91 3a 0a 	lds	r24, 0x0A3A
    29b6:	88 23       	and	r24, r24
    29b8:	09 f4       	brne	.+2      	; 0x29bc <Func_Det_Ir_Responsivity_Set_Key+0x80>
    29ba:	47 c0       	rjmp	.+142    	; 0x2a4a <Func_Det_Ir_Responsivity_Set_Key+0x10e>
				//Cousor_Location(line_1, line_3);
			}
			else{
				if(setting_mode_cursor == line_1){
    29bc:	80 91 35 0a 	lds	r24, 0x0A35
    29c0:	88 23       	and	r24, r24
    29c2:	09 f0       	breq	.+2      	; 0x29c6 <Func_Det_Ir_Responsivity_Set_Key+0x8a>
    29c4:	42 c0       	rjmp	.+132    	; 0x2a4a <Func_Det_Ir_Responsivity_Set_Key+0x10e>
					mmi_tmp[line_1] = Long_Key(mmi_tmp[line_1]);
    29c6:	80 91 41 0a 	lds	r24, 0x0A41
    29ca:	90 91 42 0a 	lds	r25, 0x0A42
    29ce:	0e 94 1e 12 	call	0x243c	; 0x243c <Long_Key>
    29d2:	90 93 42 0a 	sts	0x0A42, r25
    29d6:	80 93 41 0a 	sts	0x0A41, r24
				
					if(mmi_tmp[line_1] > 2000){
    29da:	27 e0       	ldi	r18, 0x07	; 7
    29dc:	81 3d       	cpi	r24, 0xD1	; 209
    29de:	92 07       	cpc	r25, r18
    29e0:	28 f5       	brcc	.+74     	; 0x2a2c <Func_Det_Ir_Responsivity_Set_Key+0xf0>
						mmi_tmp[line_1] = 2000;
					}
					else if(mmi_tmp[line_1] < 1){
    29e2:	89 2b       	or	r24, r25
    29e4:	91 f5       	brne	.+100    	; 0x2a4a <Func_Det_Ir_Responsivity_Set_Key+0x10e>
						mmi_tmp[line_1] = 1;
    29e6:	81 e0       	ldi	r24, 0x01	; 1
    29e8:	90 e0       	ldi	r25, 0x00	; 0
    29ea:	22 c0       	rjmp	.+68     	; 0x2a30 <Func_Det_Ir_Responsivity_Set_Key+0xf4>
				}
				*/
			}
			break;
		case KEY_RE_S:
			if(key_func_select_flag){
    29ec:	80 91 3a 0a 	lds	r24, 0x0A3A
    29f0:	88 23       	and	r24, r24
    29f2:	19 f0       	breq	.+6      	; 0x29fa <Func_Det_Ir_Responsivity_Set_Key+0xbe>
				key_func_select_flag = 0;
    29f4:	10 92 3a 0a 	sts	0x0A3A, r1
    29f8:	08 95       	ret
			}
			else{
				Reset_Key_Check();
    29fa:	0e 94 f7 12 	call	0x25ee	; 0x25ee <Reset_Key_Check>
    29fe:	08 95       	ret
			break;
		case KEY_TE_S:	break;
		case KEY_FU_L:	break;
		case KEY_UP_L:
		case KEY_DW_L:
			if(!key_func_select_flag){
    2a00:	80 91 3a 0a 	lds	r24, 0x0A3A
    2a04:	88 23       	and	r24, r24
    2a06:	09 f1       	breq	.+66     	; 0x2a4a <Func_Det_Ir_Responsivity_Set_Key+0x10e>
				//Cousor_Location(line_1, line_3);
			}
			else{
				if(setting_mode_cursor == line_1){
    2a08:	80 91 35 0a 	lds	r24, 0x0A35
    2a0c:	88 23       	and	r24, r24
    2a0e:	e9 f4       	brne	.+58     	; 0x2a4a <Func_Det_Ir_Responsivity_Set_Key+0x10e>
					mmi_tmp[line_1] = Long_Key(mmi_tmp[line_1]);
    2a10:	80 91 41 0a 	lds	r24, 0x0A41
    2a14:	90 91 42 0a 	lds	r25, 0x0A42
    2a18:	0e 94 1e 12 	call	0x243c	; 0x243c <Long_Key>
    2a1c:	90 93 42 0a 	sts	0x0A42, r25
    2a20:	80 93 41 0a 	sts	0x0A41, r24
				
					if(mmi_tmp[line_1] > 2000){
    2a24:	27 e0       	ldi	r18, 0x07	; 7
    2a26:	81 3d       	cpi	r24, 0xD1	; 209
    2a28:	92 07       	cpc	r25, r18
    2a2a:	38 f0       	brcs	.+14     	; 0x2a3a <Func_Det_Ir_Responsivity_Set_Key+0xfe>
						mmi_tmp[line_1] = 2000;
    2a2c:	80 ed       	ldi	r24, 0xD0	; 208
    2a2e:	97 e0       	ldi	r25, 0x07	; 7
    2a30:	90 93 42 0a 	sts	0x0A42, r25
    2a34:	80 93 41 0a 	sts	0x0A41, r24
    2a38:	08 95       	ret
					}
					else if(mmi_tmp[line_1] < 1){
    2a3a:	89 2b       	or	r24, r25
    2a3c:	31 f4       	brne	.+12     	; 0x2a4a <Func_Det_Ir_Responsivity_Set_Key+0x10e>
						mmi_tmp[line_1] = 1;
    2a3e:	81 e0       	ldi	r24, 0x01	; 1
    2a40:	90 e0       	ldi	r25, 0x00	; 0
    2a42:	90 93 42 0a 	sts	0x0A42, r25
    2a46:	80 93 41 0a 	sts	0x0A41, r24
    2a4a:	08 95       	ret

00002a4c <Func_Det_Relay_Set_Key>:
	}
}

void Func_Det_Relay_Set_Key(void)
{
	Cousor_Location(line_1, line_2);
    2a4c:	80 e0       	ldi	r24, 0x00	; 0
    2a4e:	61 e0       	ldi	r22, 0x01	; 1
    2a50:	0e 94 7b 11 	call	0x22f6	; 0x22f6 <Cousor_Location>
		
	switch(KeyData){
    2a54:	80 91 49 0a 	lds	r24, 0x0A49
    2a58:	82 30       	cpi	r24, 0x02	; 2
    2a5a:	e9 f1       	breq	.+122    	; 0x2ad6 <Func_Det_Relay_Set_Key+0x8a>
    2a5c:	83 30       	cpi	r24, 0x03	; 3
    2a5e:	18 f4       	brcc	.+6      	; 0x2a66 <Func_Det_Relay_Set_Key+0x1a>
    2a60:	88 23       	and	r24, r24
    2a62:	39 f0       	breq	.+14     	; 0x2a72 <Func_Det_Relay_Set_Key+0x26>
    2a64:	08 95       	ret
    2a66:	84 30       	cpi	r24, 0x04	; 4
    2a68:	b1 f1       	breq	.+108    	; 0x2ad6 <Func_Det_Relay_Set_Key+0x8a>
    2a6a:	86 30       	cpi	r24, 0x06	; 6
    2a6c:	09 f0       	breq	.+2      	; 0x2a70 <Func_Det_Relay_Set_Key+0x24>
    2a6e:	6c c0       	rjmp	.+216    	; 0x2b48 <Func_Det_Relay_Set_Key+0xfc>
    2a70:	62 c0       	rjmp	.+196    	; 0x2b36 <Func_Det_Relay_Set_Key+0xea>
		case KEY_FU_S:
			if(key_func_select_flag == 1){
    2a72:	80 91 3a 0a 	lds	r24, 0x0A3A
    2a76:	81 30       	cpi	r24, 0x01	; 1
    2a78:	f1 f4       	brne	.+60     	; 0x2ab6 <Func_Det_Relay_Set_Key+0x6a>
				key_func_select_flag = 0;
    2a7a:	10 92 3a 0a 	sts	0x0A3A, r1
				
				if(setting_mode_cursor == line_1){
    2a7e:	80 91 35 0a 	lds	r24, 0x0A35
    2a82:	88 23       	and	r24, r24
    2a84:	39 f4       	brne	.+14     	; 0x2a94 <Func_Det_Relay_Set_Key+0x48>
					Det_Write_Single_Func(DET_EEP_ALM_RLY_OPERATION, mmi_tmp[line_1]);
    2a86:	60 91 41 0a 	lds	r22, 0x0A41
    2a8a:	70 91 42 0a 	lds	r23, 0x0A42
    2a8e:	85 e2       	ldi	r24, 0x25	; 37
    2a90:	90 e0       	ldi	r25, 0x00	; 0
    2a92:	08 c0       	rjmp	.+16     	; 0x2aa4 <Func_Det_Relay_Set_Key+0x58>
					//if(alm_relay_operation == 0)	Det_Write_Single_Func(DET_EEP_ALM_RLY_OPERATION, 0);
					//else				Det_Write_Single_Func(DET_EEP_ALM_RLY_OPERATION, 1);
				}
				else if(setting_mode_cursor == line_2){
    2a94:	81 30       	cpi	r24, 0x01	; 1
    2a96:	41 f4       	brne	.+16     	; 0x2aa8 <Func_Det_Relay_Set_Key+0x5c>
					Det_Write_Single_Func(DET_EEP_TRB_RLY_OPERATION, mmi_tmp[line_2]);
    2a98:	60 91 43 0a 	lds	r22, 0x0A43
    2a9c:	70 91 44 0a 	lds	r23, 0x0A44
    2aa0:	86 e2       	ldi	r24, 0x26	; 38
    2aa2:	90 e0       	ldi	r25, 0x00	; 0
    2aa4:	0e 94 ad 33 	call	0x675a	; 0x675a <Det_Write_Single_Func>
					//if(trb_relay_operation == 0)	Det_Write_Single_Func(DET_EEP_TRB_RLY_OPERATION, 0);
					//else				Det_Write_Single_Func(DET_EEP_TRB_RLY_OPERATION, 1);
				}
				
				Det_Modbus_Buf[Det_Comm_Flow] = Commnication_Data_Set;
    2aa8:	88 e0       	ldi	r24, 0x08	; 8
    2aaa:	90 e0       	ldi	r25, 0x00	; 0
    2aac:	90 93 1f 15 	sts	0x151F, r25
    2ab0:	80 93 1e 15 	sts	0x151E, r24
    2ab4:	08 95       	ret
			}
			else{
				key_func_select_flag = 1;
    2ab6:	81 e0       	ldi	r24, 0x01	; 1
    2ab8:	80 93 3a 0a 	sts	0x0A3A, r24
				mmi_tmp[line_1] = alm_relay_operation;
    2abc:	80 91 37 0a 	lds	r24, 0x0A37
    2ac0:	80 93 41 0a 	sts	0x0A41, r24
    2ac4:	10 92 42 0a 	sts	0x0A42, r1
				mmi_tmp[line_2] = trb_relay_operation;
    2ac8:	80 91 34 0a 	lds	r24, 0x0A34
    2acc:	80 93 43 0a 	sts	0x0A43, r24
    2ad0:	10 92 44 0a 	sts	0x0A44, r1
    2ad4:	08 95       	ret
			}
			break;
		case KEY_UP_S:
		case KEY_DW_S:
			if(key_func_select_flag == 0){
    2ad6:	80 91 3a 0a 	lds	r24, 0x0A3A
    2ada:	88 23       	and	r24, r24
    2adc:	a9 f1       	breq	.+106    	; 0x2b48 <Func_Det_Relay_Set_Key+0xfc>
				//Cousor_Location(line_1, line_2);
			}
			else if(key_func_select_flag == 1){
    2ade:	81 30       	cpi	r24, 0x01	; 1
    2ae0:	99 f5       	brne	.+102    	; 0x2b48 <Func_Det_Relay_Set_Key+0xfc>
				if(setting_mode_cursor == line_1){
    2ae2:	80 91 35 0a 	lds	r24, 0x0A35
    2ae6:	88 23       	and	r24, r24
    2ae8:	91 f4       	brne	.+36     	; 0x2b0e <Func_Det_Relay_Set_Key+0xc2>
					//alm_relay_operation != alm_relay_operation;
					//mmi_tmp[line_1] != mmi_tmp[line_1];
					if(mmi_tmp[line_1])	mmi_tmp[line_1] = 0;
    2aea:	80 91 41 0a 	lds	r24, 0x0A41
    2aee:	90 91 42 0a 	lds	r25, 0x0A42
    2af2:	89 2b       	or	r24, r25
    2af4:	29 f0       	breq	.+10     	; 0x2b00 <Func_Det_Relay_Set_Key+0xb4>
    2af6:	10 92 42 0a 	sts	0x0A42, r1
    2afa:	10 92 41 0a 	sts	0x0A41, r1
    2afe:	08 95       	ret
					else				mmi_tmp[line_1] = 1;
    2b00:	81 e0       	ldi	r24, 0x01	; 1
    2b02:	90 e0       	ldi	r25, 0x00	; 0
    2b04:	90 93 42 0a 	sts	0x0A42, r25
    2b08:	80 93 41 0a 	sts	0x0A41, r24
    2b0c:	08 95       	ret
				}
				else if(setting_mode_cursor == line_2){
    2b0e:	81 30       	cpi	r24, 0x01	; 1
    2b10:	d9 f4       	brne	.+54     	; 0x2b48 <Func_Det_Relay_Set_Key+0xfc>
					//trb_relay_operation != trb_relay_operation;
					//mmi_tmp[line_2] != mmi_tmp[line_2];
					if(mmi_tmp[line_2])	mmi_tmp[line_2] = 0;
    2b12:	80 91 43 0a 	lds	r24, 0x0A43
    2b16:	90 91 44 0a 	lds	r25, 0x0A44
    2b1a:	89 2b       	or	r24, r25
    2b1c:	29 f0       	breq	.+10     	; 0x2b28 <Func_Det_Relay_Set_Key+0xdc>
    2b1e:	10 92 44 0a 	sts	0x0A44, r1
    2b22:	10 92 43 0a 	sts	0x0A43, r1
    2b26:	08 95       	ret
					else				mmi_tmp[line_2] = 1;
    2b28:	81 e0       	ldi	r24, 0x01	; 1
    2b2a:	90 e0       	ldi	r25, 0x00	; 0
    2b2c:	90 93 44 0a 	sts	0x0A44, r25
    2b30:	80 93 43 0a 	sts	0x0A43, r24
    2b34:	08 95       	ret
				}
			}
			break;
		case KEY_RE_S:
			if(key_func_select_flag){
    2b36:	80 91 3a 0a 	lds	r24, 0x0A3A
    2b3a:	88 23       	and	r24, r24
    2b3c:	19 f0       	breq	.+6      	; 0x2b44 <Func_Det_Relay_Set_Key+0xf8>
				key_func_select_flag = 0;
    2b3e:	10 92 3a 0a 	sts	0x0A3A, r1
    2b42:	08 95       	ret
			}
			else{
				Reset_Key_Check();
    2b44:	0e 94 f7 12 	call	0x25ee	; 0x25ee <Reset_Key_Check>
    2b48:	08 95       	ret

00002b4a <Fnuc_Dev_Mode_Set_Key>:
	}
}

void Fnuc_Dev_Mode_Set_Key(void)
{
	switch(KeyData){
    2b4a:	80 91 49 0a 	lds	r24, 0x0A49
    2b4e:	82 30       	cpi	r24, 0x02	; 2
    2b50:	19 f1       	breq	.+70     	; 0x2b98 <Fnuc_Dev_Mode_Set_Key+0x4e>
    2b52:	83 30       	cpi	r24, 0x03	; 3
    2b54:	18 f4       	brcc	.+6      	; 0x2b5c <Fnuc_Dev_Mode_Set_Key+0x12>
    2b56:	88 23       	and	r24, r24
    2b58:	31 f0       	breq	.+12     	; 0x2b66 <Fnuc_Dev_Mode_Set_Key+0x1c>
    2b5a:	08 95       	ret
    2b5c:	84 30       	cpi	r24, 0x04	; 4
    2b5e:	e1 f0       	breq	.+56     	; 0x2b98 <Fnuc_Dev_Mode_Set_Key+0x4e>
    2b60:	86 30       	cpi	r24, 0x06	; 6
    2b62:	b9 f5       	brne	.+110    	; 0x2bd2 <Fnuc_Dev_Mode_Set_Key+0x88>
    2b64:	2d c0       	rjmp	.+90     	; 0x2bc0 <Fnuc_Dev_Mode_Set_Key+0x76>
		case KEY_FU_S:
			if(key_func_select_flag){
    2b66:	80 91 3a 0a 	lds	r24, 0x0A3A
    2b6a:	88 23       	and	r24, r24
    2b6c:	59 f0       	breq	.+22     	; 0x2b84 <Fnuc_Dev_Mode_Set_Key+0x3a>
				key_func_select_flag = 0;
    2b6e:	10 92 3a 0a 	sts	0x0A3A, r1
				EEP_Sys_Wr(EEP_Device_Mode_Select, mmi_tmp[line_1]);
    2b72:	60 91 41 0a 	lds	r22, 0x0A41
    2b76:	70 91 42 0a 	lds	r23, 0x0A42
    2b7a:	8b e0       	ldi	r24, 0x0B	; 11
    2b7c:	90 e0       	ldi	r25, 0x00	; 0
    2b7e:	0e 94 c2 0d 	call	0x1b84	; 0x1b84 <EEP_Sys_Wr>
    2b82:	08 95       	ret
			}
			else{
				key_func_select_flag = 1;
    2b84:	81 e0       	ldi	r24, 0x01	; 1
    2b86:	80 93 3a 0a 	sts	0x0A3A, r24
				mmi_tmp[line_1] = Device_Mode_Select;
    2b8a:	80 91 d9 0a 	lds	r24, 0x0AD9
    2b8e:	80 93 41 0a 	sts	0x0A41, r24
    2b92:	10 92 42 0a 	sts	0x0A42, r1
    2b96:	08 95       	ret
			}
			break;
		case KEY_UP_S:
		case KEY_DW_S:
			if(key_func_select_flag == 1){
    2b98:	80 91 3a 0a 	lds	r24, 0x0A3A
    2b9c:	81 30       	cpi	r24, 0x01	; 1
    2b9e:	c9 f4       	brne	.+50     	; 0x2bd2 <Fnuc_Dev_Mode_Set_Key+0x88>
				if(KEY_UP_S){
					mmi_tmp[line_1]++;
    2ba0:	80 91 41 0a 	lds	r24, 0x0A41
    2ba4:	90 91 42 0a 	lds	r25, 0x0A42
    2ba8:	01 96       	adiw	r24, 0x01	; 1
    2baa:	90 93 42 0a 	sts	0x0A42, r25
    2bae:	80 93 41 0a 	sts	0x0A41, r24
					if(mmi_tmp[line_1] > 2){
    2bb2:	03 97       	sbiw	r24, 0x03	; 3
    2bb4:	70 f0       	brcs	.+28     	; 0x2bd2 <Fnuc_Dev_Mode_Set_Key+0x88>
						mmi_tmp[line_1] = 0;
    2bb6:	10 92 42 0a 	sts	0x0A42, r1
    2bba:	10 92 41 0a 	sts	0x0A41, r1
    2bbe:	08 95       	ret
					}
				}
			}
			break;
		case KEY_RE_S:
			if(key_func_select_flag){
    2bc0:	80 91 3a 0a 	lds	r24, 0x0A3A
    2bc4:	88 23       	and	r24, r24
    2bc6:	19 f0       	breq	.+6      	; 0x2bce <Fnuc_Dev_Mode_Set_Key+0x84>
				key_func_select_flag = 0;
    2bc8:	10 92 3a 0a 	sts	0x0A3A, r1
    2bcc:	08 95       	ret
			}
			else{
				Reset_Key_Check();
    2bce:	0e 94 f7 12 	call	0x25ee	; 0x25ee <Reset_Key_Check>
    2bd2:	08 95       	ret

00002bd4 <Func_Dev_Ma_Cal_Set_Key>:
}
*/

void Func_Dev_Ma_Cal_Set_Key(void)
{
	switch(KeyData){
    2bd4:	80 91 49 0a 	lds	r24, 0x0A49
    2bd8:	88 23       	and	r24, r24
    2bda:	19 f0       	breq	.+6      	; 0x2be2 <Func_Dev_Ma_Cal_Set_Key+0xe>
    2bdc:	86 30       	cpi	r24, 0x06	; 6
    2bde:	79 f5       	brne	.+94     	; 0x2c3e <Func_Dev_Ma_Cal_Set_Key+0x6a>
    2be0:	2c c0       	rjmp	.+88     	; 0x2c3a <Func_Dev_Ma_Cal_Set_Key+0x66>
		case KEY_FU_S:
			if(key_func_select_flag == 0){
    2be2:	80 91 3a 0a 	lds	r24, 0x0A3A
    2be6:	88 23       	and	r24, r24
    2be8:	79 f4       	brne	.+30     	; 0x2c08 <Func_Dev_Ma_Cal_Set_Key+0x34>
				EEP_Sys_Wr(EEP_4mA_Data, fADBuf[0]);
    2bea:	60 91 b7 09 	lds	r22, 0x09B7
    2bee:	70 91 b8 09 	lds	r23, 0x09B8
    2bf2:	80 91 b9 09 	lds	r24, 0x09B9
    2bf6:	90 91 ba 09 	lds	r25, 0x09BA
    2bfa:	0e 94 8c 3a 	call	0x7518	; 0x7518 <__fixsfsi>
    2bfe:	9b 01       	movw	r18, r22
    2c00:	ac 01       	movw	r20, r24
    2c02:	86 e0       	ldi	r24, 0x06	; 6
    2c04:	90 e0       	ldi	r25, 0x00	; 0
    2c06:	10 c0       	rjmp	.+32     	; 0x2c28 <Func_Dev_Ma_Cal_Set_Key+0x54>
			}
			else if(key_func_select_flag == 1){
    2c08:	81 30       	cpi	r24, 0x01	; 1
    2c0a:	89 f4       	brne	.+34     	; 0x2c2e <Func_Dev_Ma_Cal_Set_Key+0x5a>
				EEP_Sys_Wr(EEP_20mA_Data, fADBuf[0]);
    2c0c:	60 91 b7 09 	lds	r22, 0x09B7
    2c10:	70 91 b8 09 	lds	r23, 0x09B8
    2c14:	80 91 b9 09 	lds	r24, 0x09B9
    2c18:	90 91 ba 09 	lds	r25, 0x09BA
    2c1c:	0e 94 8c 3a 	call	0x7518	; 0x7518 <__fixsfsi>
    2c20:	9b 01       	movw	r18, r22
    2c22:	ac 01       	movw	r20, r24
    2c24:	87 e0       	ldi	r24, 0x07	; 7
    2c26:	90 e0       	ldi	r25, 0x00	; 0
    2c28:	b9 01       	movw	r22, r18
    2c2a:	0e 94 c2 0d 	call	0x1b84	; 0x1b84 <EEP_Sys_Wr>
			}
			else if(key_func_select_flag == 2){
			}
			key_func_select_flag++;
    2c2e:	80 91 3a 0a 	lds	r24, 0x0A3A
    2c32:	8f 5f       	subi	r24, 0xFF	; 255
    2c34:	80 93 3a 0a 	sts	0x0A3A, r24
    2c38:	08 95       	ret
			break;
		case KEY_UP_S:	break;
		case KEY_DW_S:	break;
		case KEY_RE_S:
				Reset_Key_Check();
    2c3a:	0e 94 f7 12 	call	0x25ee	; 0x25ee <Reset_Key_Check>
    2c3e:	08 95       	ret

00002c40 <Func_Address_Set_Key>:
	}
}

void Func_Address_Set_Key(void)
{
	Cousor_Location(line_1, line_2);
    2c40:	80 e0       	ldi	r24, 0x00	; 0
    2c42:	61 e0       	ldi	r22, 0x01	; 1
    2c44:	0e 94 7b 11 	call	0x22f6	; 0x22f6 <Cousor_Location>
		
	switch(KeyData){
    2c48:	80 91 49 0a 	lds	r24, 0x0A49
    2c4c:	83 30       	cpi	r24, 0x03	; 3
    2c4e:	09 f4       	brne	.+2      	; 0x2c52 <Func_Address_Set_Key+0x12>
    2c50:	6f c0       	rjmp	.+222    	; 0x2d30 <Func_Address_Set_Key+0xf0>
    2c52:	84 30       	cpi	r24, 0x04	; 4
    2c54:	30 f4       	brcc	.+12     	; 0x2c62 <Func_Address_Set_Key+0x22>
    2c56:	88 23       	and	r24, r24
    2c58:	69 f0       	breq	.+26     	; 0x2c74 <Func_Address_Set_Key+0x34>
    2c5a:	82 30       	cpi	r24, 0x02	; 2
    2c5c:	09 f0       	breq	.+2      	; 0x2c60 <Func_Address_Set_Key+0x20>
    2c5e:	a7 c0       	rjmp	.+334    	; 0x2dae <Func_Address_Set_Key+0x16e>
    2c60:	36 c0       	rjmp	.+108    	; 0x2cce <Func_Address_Set_Key+0x8e>
    2c62:	85 30       	cpi	r24, 0x05	; 5
    2c64:	09 f4       	brne	.+2      	; 0x2c68 <Func_Address_Set_Key+0x28>
    2c66:	64 c0       	rjmp	.+200    	; 0x2d30 <Func_Address_Set_Key+0xf0>
    2c68:	85 30       	cpi	r24, 0x05	; 5
    2c6a:	88 f1       	brcs	.+98     	; 0x2cce <Func_Address_Set_Key+0x8e>
    2c6c:	86 30       	cpi	r24, 0x06	; 6
    2c6e:	09 f0       	breq	.+2      	; 0x2c72 <Func_Address_Set_Key+0x32>
    2c70:	9e c0       	rjmp	.+316    	; 0x2dae <Func_Address_Set_Key+0x16e>
    2c72:	54 c0       	rjmp	.+168    	; 0x2d1c <Func_Address_Set_Key+0xdc>
		case KEY_FU_S:
			if(key_func_select_flag){
    2c74:	80 91 3a 0a 	lds	r24, 0x0A3A
    2c78:	88 23       	and	r24, r24
    2c7a:	c9 f0       	breq	.+50     	; 0x2cae <Func_Address_Set_Key+0x6e>
				key_func_select_flag = 0;
    2c7c:	10 92 3a 0a 	sts	0x0A3A, r1
				if(setting_mode_cursor == line_1){
    2c80:	80 91 35 0a 	lds	r24, 0x0A35
    2c84:	88 23       	and	r24, r24
    2c86:	39 f4       	brne	.+14     	; 0x2c96 <Func_Address_Set_Key+0x56>
					EEP_Sys_Wr(EEP_Detector_Address, mmi_tmp[line_1]);
    2c88:	60 91 41 0a 	lds	r22, 0x0A41
    2c8c:	70 91 42 0a 	lds	r23, 0x0A42
    2c90:	84 e0       	ldi	r24, 0x04	; 4
    2c92:	90 e0       	ldi	r25, 0x00	; 0
    2c94:	09 c0       	rjmp	.+18     	; 0x2ca8 <Func_Address_Set_Key+0x68>
				}
				else if(setting_mode_cursor == line_2){
    2c96:	81 30       	cpi	r24, 0x01	; 1
    2c98:	09 f0       	breq	.+2      	; 0x2c9c <Func_Address_Set_Key+0x5c>
    2c9a:	89 c0       	rjmp	.+274    	; 0x2dae <Func_Address_Set_Key+0x16e>
					EEP_Sys_Wr(EEP_Device_Address, mmi_tmp[line_2]);
    2c9c:	60 91 43 0a 	lds	r22, 0x0A43
    2ca0:	70 91 44 0a 	lds	r23, 0x0A44
    2ca4:	85 e0       	ldi	r24, 0x05	; 5
    2ca6:	90 e0       	ldi	r25, 0x00	; 0
    2ca8:	0e 94 c2 0d 	call	0x1b84	; 0x1b84 <EEP_Sys_Wr>
    2cac:	08 95       	ret
				}
			}
			else{
				key_func_select_flag = 1;
    2cae:	81 e0       	ldi	r24, 0x01	; 1
    2cb0:	80 93 3a 0a 	sts	0x0A3A, r24
				mmi_tmp[line_1] = Det_Address;
    2cb4:	80 91 f9 0e 	lds	r24, 0x0EF9
    2cb8:	80 93 41 0a 	sts	0x0A41, r24
    2cbc:	10 92 42 0a 	sts	0x0A42, r1
				mmi_tmp[line_2] = Dvc_Address;
    2cc0:	80 91 fa 0e 	lds	r24, 0x0EFA
    2cc4:	80 93 43 0a 	sts	0x0A43, r24
    2cc8:	10 92 44 0a 	sts	0x0A44, r1
    2ccc:	08 95       	ret
			}
			break;
		case KEY_UP_S:
		case KEY_DW_S:
			if(!key_func_select_flag){
    2cce:	80 91 3a 0a 	lds	r24, 0x0A3A
    2cd2:	88 23       	and	r24, r24
    2cd4:	09 f4       	brne	.+2      	; 0x2cd8 <Func_Address_Set_Key+0x98>
    2cd6:	6b c0       	rjmp	.+214    	; 0x2dae <Func_Address_Set_Key+0x16e>
				//Cousor_Location(line_1, line_2);
			}
			else{
				if(setting_mode_cursor == line_1){
    2cd8:	80 91 35 0a 	lds	r24, 0x0A35
    2cdc:	88 23       	and	r24, r24
    2cde:	39 f4       	brne	.+14     	; 0x2cee <Func_Address_Set_Key+0xae>
					mmi_tmp[line_1] = Long_Key(mmi_tmp[line_1]);
    2ce0:	80 91 41 0a 	lds	r24, 0x0A41
    2ce4:	90 91 42 0a 	lds	r25, 0x0A42
    2ce8:	0e 94 1e 12 	call	0x243c	; 0x243c <Long_Key>
    2cec:	2f c0       	rjmp	.+94     	; 0x2d4c <Func_Address_Set_Key+0x10c>
					}
					else if(mmi_tmp[line_1] < 1){
						mmi_tmp[line_1] = 1;
					}
				}
				else if(setting_mode_cursor == line_2){
    2cee:	81 30       	cpi	r24, 0x01	; 1
    2cf0:	09 f0       	breq	.+2      	; 0x2cf4 <Func_Address_Set_Key+0xb4>
    2cf2:	5d c0       	rjmp	.+186    	; 0x2dae <Func_Address_Set_Key+0x16e>
					mmi_tmp[line_2] = Long_Key(mmi_tmp[line_2]);
    2cf4:	80 91 43 0a 	lds	r24, 0x0A43
    2cf8:	90 91 44 0a 	lds	r25, 0x0A44
    2cfc:	0e 94 1e 12 	call	0x243c	; 0x243c <Long_Key>
    2d00:	90 93 44 0a 	sts	0x0A44, r25
    2d04:	80 93 43 0a 	sts	0x0A43, r24
				
					if(mmi_tmp[line_2] > 245){
    2d08:	86 3f       	cpi	r24, 0xF6	; 246
    2d0a:	91 05       	cpc	r25, r1
    2d0c:	08 f0       	brcs	.+2      	; 0x2d10 <Func_Address_Set_Key+0xd0>
    2d0e:	40 c0       	rjmp	.+128    	; 0x2d90 <Func_Address_Set_Key+0x150>
						mmi_tmp[line_2] = 245;
					}
					else if(mmi_tmp[line_2] < 1){
    2d10:	89 2b       	or	r24, r25
    2d12:	09 f0       	breq	.+2      	; 0x2d16 <Func_Address_Set_Key+0xd6>
    2d14:	4c c0       	rjmp	.+152    	; 0x2dae <Func_Address_Set_Key+0x16e>
						mmi_tmp[line_2] = 1;
    2d16:	81 e0       	ldi	r24, 0x01	; 1
    2d18:	90 e0       	ldi	r25, 0x00	; 0
    2d1a:	3c c0       	rjmp	.+120    	; 0x2d94 <Func_Address_Set_Key+0x154>
					}
				}
			}
			break;
		case KEY_RE_S:
			if(key_func_select_flag){
    2d1c:	80 91 3a 0a 	lds	r24, 0x0A3A
    2d20:	88 23       	and	r24, r24
    2d22:	19 f0       	breq	.+6      	; 0x2d2a <Func_Address_Set_Key+0xea>
				key_func_select_flag = 0;
    2d24:	10 92 3a 0a 	sts	0x0A3A, r1
    2d28:	08 95       	ret
			}
			else{
				Reset_Key_Check();
    2d2a:	0e 94 f7 12 	call	0x25ee	; 0x25ee <Reset_Key_Check>
    2d2e:	08 95       	ret
			break;
		case KEY_TE_S:	break;
		case KEY_FU_L:	break;
		case KEY_UP_L:
		case KEY_DW_L:
			if(!key_func_select_flag){
    2d30:	80 91 3a 0a 	lds	r24, 0x0A3A
    2d34:	88 23       	and	r24, r24
    2d36:	d9 f1       	breq	.+118    	; 0x2dae <Func_Address_Set_Key+0x16e>
				//Cousor_Location(line_1, line_2);
			}
			else{
				if(setting_mode_cursor == line_1){
    2d38:	80 91 35 0a 	lds	r24, 0x0A35
    2d3c:	88 23       	and	r24, r24
    2d3e:	c9 f4       	brne	.+50     	; 0x2d72 <Func_Address_Set_Key+0x132>
					mmi_tmp[line_1] = Long_Key(mmi_tmp[line_1]);
    2d40:	80 91 41 0a 	lds	r24, 0x0A41
    2d44:	90 91 42 0a 	lds	r25, 0x0A42
    2d48:	0e 94 1e 12 	call	0x243c	; 0x243c <Long_Key>
    2d4c:	90 93 42 0a 	sts	0x0A42, r25
    2d50:	80 93 41 0a 	sts	0x0A41, r24
				
					if(mmi_tmp[line_1] > 245){
    2d54:	86 3f       	cpi	r24, 0xF6	; 246
    2d56:	91 05       	cpc	r25, r1
    2d58:	18 f0       	brcs	.+6      	; 0x2d60 <Func_Address_Set_Key+0x120>
						mmi_tmp[line_1] = 245;
    2d5a:	85 ef       	ldi	r24, 0xF5	; 245
    2d5c:	90 e0       	ldi	r25, 0x00	; 0
    2d5e:	04 c0       	rjmp	.+8      	; 0x2d68 <Func_Address_Set_Key+0x128>
					}
					else if(mmi_tmp[line_1] < 1){
    2d60:	89 2b       	or	r24, r25
    2d62:	29 f5       	brne	.+74     	; 0x2dae <Func_Address_Set_Key+0x16e>
						mmi_tmp[line_1] = 1;
    2d64:	81 e0       	ldi	r24, 0x01	; 1
    2d66:	90 e0       	ldi	r25, 0x00	; 0
    2d68:	90 93 42 0a 	sts	0x0A42, r25
    2d6c:	80 93 41 0a 	sts	0x0A41, r24
    2d70:	08 95       	ret
					}
				}
				else if(setting_mode_cursor == line_2){
    2d72:	81 30       	cpi	r24, 0x01	; 1
    2d74:	e1 f4       	brne	.+56     	; 0x2dae <Func_Address_Set_Key+0x16e>
					mmi_tmp[line_2] = Long_Key(mmi_tmp[line_2]);
    2d76:	80 91 43 0a 	lds	r24, 0x0A43
    2d7a:	90 91 44 0a 	lds	r25, 0x0A44
    2d7e:	0e 94 1e 12 	call	0x243c	; 0x243c <Long_Key>
    2d82:	90 93 44 0a 	sts	0x0A44, r25
    2d86:	80 93 43 0a 	sts	0x0A43, r24
				
					if(mmi_tmp[line_2] > 245){
    2d8a:	86 3f       	cpi	r24, 0xF6	; 246
    2d8c:	91 05       	cpc	r25, r1
    2d8e:	38 f0       	brcs	.+14     	; 0x2d9e <Func_Address_Set_Key+0x15e>
						mmi_tmp[line_2] = 245;
    2d90:	85 ef       	ldi	r24, 0xF5	; 245
    2d92:	90 e0       	ldi	r25, 0x00	; 0
    2d94:	90 93 44 0a 	sts	0x0A44, r25
    2d98:	80 93 43 0a 	sts	0x0A43, r24
    2d9c:	08 95       	ret
					}
					else if(mmi_tmp[line_2] < 1){
    2d9e:	89 2b       	or	r24, r25
    2da0:	31 f4       	brne	.+12     	; 0x2dae <Func_Address_Set_Key+0x16e>
						mmi_tmp[line_2] = 1;
    2da2:	81 e0       	ldi	r24, 0x01	; 1
    2da4:	90 e0       	ldi	r25, 0x00	; 0
    2da6:	90 93 44 0a 	sts	0x0A44, r25
    2daa:	80 93 43 0a 	sts	0x0A43, r24
    2dae:	08 95       	ret

00002db0 <Func_T_Calibration_Mode_Key>:
	}
}

void Func_T_Calibration_Mode_Key(void)
{
	switch(KeyData){
    2db0:	80 91 49 0a 	lds	r24, 0x0A49
    2db4:	81 30       	cpi	r24, 0x01	; 1
    2db6:	21 f1       	breq	.+72     	; 0x2e00 <Func_T_Calibration_Mode_Key+0x50>
    2db8:	81 30       	cpi	r24, 0x01	; 1
    2dba:	18 f0       	brcs	.+6      	; 0x2dc2 <Func_T_Calibration_Mode_Key+0x12>
    2dbc:	86 30       	cpi	r24, 0x06	; 6
    2dbe:	19 f5       	brne	.+70     	; 0x2e06 <Func_T_Calibration_Mode_Key+0x56>
    2dc0:	12 c0       	rjmp	.+36     	; 0x2de6 <Func_T_Calibration_Mode_Key+0x36>
		case KEY_FU_S:
			Calibration_Mode_Flow = 1;
    2dc2:	81 e0       	ldi	r24, 0x01	; 1
    2dc4:	80 93 82 0a 	sts	0x0A82, r24
			dac_flag = 1;
    2dc8:	81 e0       	ldi	r24, 0x01	; 1
    2dca:	90 e0       	ldi	r25, 0x00	; 0
    2dcc:	90 93 b4 0a 	sts	0x0AB4, r25
    2dd0:	80 93 b3 0a 	sts	0x0AB3, r24
			EXT_BIT_OFF();
    2dd4:	80 91 05 01 	lds	r24, 0x0105
    2dd8:	8b 7f       	andi	r24, 0xFB	; 251
    2dda:	80 93 05 01 	sts	0x0105, r24
			Calibration_Mode_Count = Det_BlackBody_Delay_Count;
    2dde:	85 e0       	ldi	r24, 0x05	; 5
    2de0:	80 93 b1 0a 	sts	0x0AB1, r24
    2de4:	08 95       	ret
			break;
		case KEY_RE_S:
			Calibration_Mode_Flow = 0;
    2de6:	10 92 82 0a 	sts	0x0A82, r1
			dac_flag = 0;
    2dea:	10 92 b4 0a 	sts	0x0AB4, r1
    2dee:	10 92 b3 0a 	sts	0x0AB3, r1
			dac7571_dac_wr(dac_data);
    2df2:	80 91 7e 0a 	lds	r24, 0x0A7E
    2df6:	90 91 7f 0a 	lds	r25, 0x0A7F
    2dfa:	0e 94 4d 36 	call	0x6c9a	; 0x6c9a <dac7571_dac_wr>
    2dfe:	08 95       	ret
			*/
			break;
		case KEY_TE_S:
			break;
		case KEY_FU_L:
			mmi_mode = FMODE_CONFIGIURATION;
    2e00:	8b e0       	ldi	r24, 0x0B	; 11
    2e02:	80 93 cf 0a 	sts	0x0ACF, r24
    2e06:	08 95       	ret

00002e08 <Key_Task>:
		case KEY_DW_L:	break;
		case KEY_RE_L:	break;
		case KEY_TE_L:	break;
	}
	*/
	if(mmi_mode == FMODE_WARM_UP){
    2e08:	80 91 cf 0a 	lds	r24, 0x0ACF
    2e0c:	88 23       	and	r24, r24
    2e0e:	19 f4       	brne	.+6      	; 0x2e16 <Key_Task+0xe>
		Func_Warm_Up_Key();
    2e10:	0e 94 4b 12 	call	0x2496	; 0x2496 <Func_Warm_Up_Key>
    2e14:	45 c0       	rjmp	.+138    	; 0x2ea0 <Key_Task+0x98>
	}
	else if(mmi_mode == FMODE_NORMAL){
    2e16:	82 30       	cpi	r24, 0x02	; 2
    2e18:	19 f4       	brne	.+6      	; 0x2e20 <Key_Task+0x18>
		Func_Normal_Key();
    2e1a:	0e 94 4b 11 	call	0x2296	; 0x2296 <Func_Normal_Key>
    2e1e:	40 c0       	rjmp	.+128    	; 0x2ea0 <Key_Task+0x98>
	}
	else if(mmi_mode == FMODE_U_CALIBRATION_MODE){
    2e20:	83 30       	cpi	r24, 0x03	; 3
    2e22:	19 f4       	brne	.+6      	; 0x2e2a <Key_Task+0x22>
		Func_U_Calibration_Mode_Key();
    2e24:	0e 94 db 11 	call	0x23b6	; 0x23b6 <Func_U_Calibration_Mode_Key>
    2e28:	3b c0       	rjmp	.+118    	; 0x2ea0 <Key_Task+0x98>
	}
	else if(mmi_mode == FMODE_T_CALIBRATION_MODE){
    2e2a:	84 30       	cpi	r24, 0x04	; 4
    2e2c:	19 f4       	brne	.+6      	; 0x2e34 <Key_Task+0x2c>
		Func_T_Calibration_Mode_Key();
    2e2e:	0e 94 d8 16 	call	0x2db0	; 0x2db0 <Func_T_Calibration_Mode_Key>
    2e32:	36 c0       	rjmp	.+108    	; 0x2ea0 <Key_Task+0x98>
	}
	else if(mmi_mode == FMODE_CONFIGIURATION){
    2e34:	8b 30       	cpi	r24, 0x0B	; 11
    2e36:	19 f4       	brne	.+6      	; 0x2e3e <Key_Task+0x36>
		Func_Configiuration_Key();
    2e38:	0e 94 8d 13 	call	0x271a	; 0x271a <Func_Configiuration_Key>
    2e3c:	31 c0       	rjmp	.+98     	; 0x2ea0 <Key_Task+0x98>
	}
	else if(mmi_mode == FMODE_DET_CONFIGIURATION){
    2e3e:	8c 30       	cpi	r24, 0x0C	; 12
    2e40:	19 f4       	brne	.+6      	; 0x2e48 <Key_Task+0x40>
		Func_Det_Configiuration_Key();
    2e42:	0e 94 41 13 	call	0x2682	; 0x2682 <Func_Det_Configiuration_Key>
    2e46:	2c c0       	rjmp	.+88     	; 0x2ea0 <Key_Task+0x98>
	}
	else if(mmi_mode == FMODE_DEV_CONFIGIURATION){
    2e48:	8d 30       	cpi	r24, 0x0D	; 13
    2e4a:	19 f4       	brne	.+6      	; 0x2e52 <Key_Task+0x4a>
		Func_Dev_Configiuration_Key();
    2e4c:	0e 94 1c 13 	call	0x2638	; 0x2638 <Func_Dev_Configiuration_Key>
    2e50:	27 c0       	rjmp	.+78     	; 0x2ea0 <Key_Task+0x98>
	}
	else if(mmi_mode == FMODE_ADDRESS_SET){
    2e52:	8e 30       	cpi	r24, 0x0E	; 14
    2e54:	19 f4       	brne	.+6      	; 0x2e5c <Key_Task+0x54>
		Func_Address_Set_Key();
    2e56:	0e 94 20 16 	call	0x2c40	; 0x2c40 <Func_Address_Set_Key>
    2e5a:	22 c0       	rjmp	.+68     	; 0x2ea0 <Key_Task+0x98>
	/*
	else if(mmi_mode == FMODE_DET_MA_CAL_SET){
		Func_Det_Ma_Cal_Set_Key();
	}
	*/
	else if(mmi_mode == FMODE_DEV_MA_CAL_SET){
    2e5c:	82 31       	cpi	r24, 0x12	; 18
    2e5e:	19 f4       	brne	.+6      	; 0x2e66 <Key_Task+0x5e>
		Func_Dev_Ma_Cal_Set_Key();
    2e60:	0e 94 ea 15 	call	0x2bd4	; 0x2bd4 <Func_Dev_Ma_Cal_Set_Key>
    2e64:	1d c0       	rjmp	.+58     	; 0x2ea0 <Key_Task+0x98>
	}
	else if(mmi_mode == FMODE_DEV_MODE_SET){
    2e66:	83 31       	cpi	r24, 0x13	; 19
    2e68:	19 f4       	brne	.+6      	; 0x2e70 <Key_Task+0x68>
		Fnuc_Dev_Mode_Set_Key();
    2e6a:	0e 94 a5 15 	call	0x2b4a	; 0x2b4a <Fnuc_Dev_Mode_Set_Key>
    2e6e:	18 c0       	rjmp	.+48     	; 0x2ea0 <Key_Task+0x98>
	}
	else if(mmi_mode == FMODE_DET_RELAY_SET){
    2e70:	8f 30       	cpi	r24, 0x0F	; 15
    2e72:	19 f4       	brne	.+6      	; 0x2e7a <Key_Task+0x72>
		Func_Det_Relay_Set_Key();
    2e74:	0e 94 26 15 	call	0x2a4c	; 0x2a4c <Func_Det_Relay_Set_Key>
    2e78:	13 c0       	rjmp	.+38     	; 0x2ea0 <Key_Task+0x98>
	}
	else if(mmi_mode == FMODE_DET_IR_RESPONSIVITY_SET){
    2e7a:	80 31       	cpi	r24, 0x10	; 16
    2e7c:	19 f4       	brne	.+6      	; 0x2e84 <Key_Task+0x7c>
		Func_Det_Ir_Responsivity_Set_Key();	
    2e7e:	0e 94 9e 14 	call	0x293c	; 0x293c <Func_Det_Ir_Responsivity_Set_Key>
    2e82:	0e c0       	rjmp	.+28     	; 0x2ea0 <Key_Task+0x98>
	}
	else if(mmi_mode == FMODE_DET_FUNCTION_SET){
    2e84:	81 31       	cpi	r24, 0x11	; 17
    2e86:	19 f4       	brne	.+6      	; 0x2e8e <Key_Task+0x86>
		Func_Det_Function_Set_Key();	
    2e88:	0e 94 e7 13 	call	0x27ce	; 0x27ce <Func_Det_Function_Set_Key>
    2e8c:	09 c0       	rjmp	.+18     	; 0x2ea0 <Key_Task+0x98>
	}
	else if(mmi_mode == FMODE_DET_TEST_MODE){
    2e8e:	8a 30       	cpi	r24, 0x0A	; 10
    2e90:	19 f4       	brne	.+6      	; 0x2e98 <Key_Task+0x90>
		Func_Det_Test_Mode_Key();
    2e92:	0e 94 15 13 	call	0x262a	; 0x262a <Func_Det_Test_Mode_Key>
    2e96:	04 c0       	rjmp	.+8      	; 0x2ea0 <Key_Task+0x98>
	}
	else if(mmi_mode == FMODE_DET_EEP_CLEAR_MODE){
    2e98:	85 30       	cpi	r24, 0x05	; 5
    2e9a:	11 f4       	brne	.+4      	; 0x2ea0 <Key_Task+0x98>
		Func_Det_Eep_Clear_Mode_Key();
    2e9c:	0e 94 bc 13 	call	0x2778	; 0x2778 <Func_Det_Eep_Clear_Mode_Key>
	}
	Normal_Return_Check();
    2ea0:	0e 94 2f 12 	call	0x245e	; 0x245e <Normal_Return_Check>
	KeyData = 0xff;
    2ea4:	8f ef       	ldi	r24, 0xFF	; 255
    2ea6:	80 93 49 0a 	sts	0x0A49, r24
}
    2eaa:	08 95       	ret

00002eac <Func_U_Calibration_Mode>:
				Calibration_Mode_Flow = 7;
				break;
		}
	}
	*/
}
    2eac:	08 95       	ret

00002eae <Mode_Select>:
	}
}

void Mode_Select(void)
{
	if(!Device_Mode_Select){
    2eae:	80 91 d9 0a 	lds	r24, 0x0AD9
    2eb2:	88 23       	and	r24, r24
    2eb4:	11 f4       	brne	.+4      	; 0x2eba <Mode_Select+0xc>
		mmi_mode = FMODE_NORMAL;
    2eb6:	82 e0       	ldi	r24, 0x02	; 2
    2eb8:	03 c0       	rjmp	.+6      	; 0x2ec0 <Mode_Select+0x12>
	}
	else if(Device_Mode_Select == 1){
    2eba:	81 30       	cpi	r24, 0x01	; 1
    2ebc:	21 f4       	brne	.+8      	; 0x2ec6 <Mode_Select+0x18>
		mmi_mode = FMODE_U_CALIBRATION_MODE;
    2ebe:	83 e0       	ldi	r24, 0x03	; 3
    2ec0:	80 93 cf 0a 	sts	0x0ACF, r24
    2ec4:	08 95       	ret
	}
	else if(Device_Mode_Select == 2){
    2ec6:	82 30       	cpi	r24, 0x02	; 2
    2ec8:	19 f4       	brne	.+6      	; 0x2ed0 <Mode_Select+0x22>
		mmi_mode = FMODE_T_CALIBRATION_MODE;
    2eca:	84 e0       	ldi	r24, 0x04	; 4
    2ecc:	80 93 cf 0a 	sts	0x0ACF, r24
    2ed0:	08 95       	ret

00002ed2 <Func_Det_System_Check_Result>:
}

void Func_Det_System_Check_Result(void)
{
	det_power_control &= ~(Det_Power_System_Check_Bit |  Det_Default_Data_Check_Bit);
	det_power_control |= Det_System_Check_Complete;
    2ed2:	80 91 da 0a 	lds	r24, 0x0ADA
    2ed6:	8b 7e       	andi	r24, 0xEB	; 235
    2ed8:	80 62       	ori	r24, 0x20	; 32
    2eda:	80 93 da 0a 	sts	0x0ADA, r24
	sTimerFlag[TMR_DET_SYSTEM_CHECK] = 10;
    2ede:	8a e0       	ldi	r24, 0x0A	; 10
    2ee0:	90 e0       	ldi	r25, 0x00	; 0
    2ee2:	90 93 50 0f 	sts	0x0F50, r25
    2ee6:	80 93 4f 0f 	sts	0x0F4F, r24
	reg_data = Det_Input_Reg_Data[DET_InputReg_AlarmState];
    2eea:	80 91 9b 0f 	lds	r24, 0x0F9B
    2eee:	80 93 f1 0a 	sts	0x0AF1, r24
	Det_Reboot_Flag = 0;
    2ef2:	10 92 d6 0a 	sts	0x0AD6, r1
	Mode_Select();
    2ef6:	0e 94 57 17 	call	0x2eae	; 0x2eae <Mode_Select>
}
    2efa:	08 95       	ret

00002efc <LED_Indicator>:
	}
}

void LED_Indicator(void)
{
	if(det_power_control & Det_Power_Control_Bit){
    2efc:	80 91 da 0a 	lds	r24, 0x0ADA
    2f00:	80 ff       	sbrs	r24, 0
    2f02:	83 c0       	rjmp	.+262    	; 0x300a <LED_Indicator+0x10e>

		if(reg_data != ALARM_STATE_MODBUS_FAULT){
    2f04:	80 91 f1 0a 	lds	r24, 0x0AF1
    2f08:	8a 30       	cpi	r24, 0x0A	; 10
    2f0a:	21 f0       	breq	.+8      	; 0x2f14 <LED_Indicator+0x18>
			RS485_LED_ON();
    2f0c:	80 91 0b 01 	lds	r24, 0x010B
    2f10:	88 60       	ori	r24, 0x08	; 8
    2f12:	03 c0       	rjmp	.+6      	; 0x2f1a <LED_Indicator+0x1e>
		}
		else{
			RS485_LED_OFF();
    2f14:	80 91 0b 01 	lds	r24, 0x010B
    2f18:	87 7f       	andi	r24, 0xF7	; 247
    2f1a:	80 93 0b 01 	sts	0x010B, r24
		}
		
		if(alm_relay_chk){
    2f1e:	80 91 4b 0a 	lds	r24, 0x0A4B
    2f22:	88 23       	and	r24, r24
    2f24:	21 f0       	breq	.+8      	; 0x2f2e <LED_Indicator+0x32>
			ALARM_LED_ON();
    2f26:	80 91 0b 01 	lds	r24, 0x010B
    2f2a:	82 60       	ori	r24, 0x02	; 2
    2f2c:	03 c0       	rjmp	.+6      	; 0x2f34 <LED_Indicator+0x38>
		}
		else{
			ALARM_LED_OFF();
    2f2e:	80 91 0b 01 	lds	r24, 0x010B
    2f32:	8d 7f       	andi	r24, 0xFD	; 253
    2f34:	80 93 0b 01 	sts	0x010B, r24
		}
		
		if(trb_relay_chk){
    2f38:	80 91 36 0a 	lds	r24, 0x0A36
    2f3c:	88 23       	and	r24, r24
    2f3e:	21 f0       	breq	.+8      	; 0x2f48 <LED_Indicator+0x4c>
			TROUBLE_LED_ON();
    2f40:	80 91 0b 01 	lds	r24, 0x010B
    2f44:	84 60       	ori	r24, 0x04	; 4
    2f46:	03 c0       	rjmp	.+6      	; 0x2f4e <LED_Indicator+0x52>
		}
		else{
			TROUBLE_LED_OFF();
    2f48:	80 91 0b 01 	lds	r24, 0x010B
    2f4c:	8b 7f       	andi	r24, 0xFB	; 251
    2f4e:	80 93 0b 01 	sts	0x010B, r24
		}
		
		if( (Det_Input_Reg_Data[DET_InputReg_AlarmState] != ALARM_STATE_BIT_PROGRESS) && (Det_Input_Reg_Data[DET_InputReg_AlarmState] != ALARM_STATE_BIT_FAULT) ){
    2f52:	80 91 9b 0f 	lds	r24, 0x0F9B
    2f56:	90 91 9c 0f 	lds	r25, 0x0F9C
    2f5a:	81 30       	cpi	r24, 0x01	; 1
    2f5c:	91 05       	cpc	r25, r1
    2f5e:	51 f0       	breq	.+20     	; 0x2f74 <LED_Indicator+0x78>
    2f60:	07 97       	sbiw	r24, 0x07	; 7
    2f62:	e1 f0       	breq	.+56     	; 0x2f9c <LED_Indicator+0xa0>
			if(ModeSetFlow[FMODE_DET_TEST_MODE]){
    2f64:	80 91 e5 0a 	lds	r24, 0x0AE5
    2f68:	88 23       	and	r24, r24
    2f6a:	51 f4       	brne	.+20     	; 0x2f80 <LED_Indicator+0x84>
				TEST_GN_LED_OFF();
				TEST_RD_LED_OFF();
				TEST_BL_LED_ON();
			}
			else{
				TEST_LED_ALL_OFF();
    2f6c:	80 91 0b 01 	lds	r24, 0x010B
    2f70:	8f 78       	andi	r24, 0x8F	; 143
    2f72:	21 c0       	rjmp	.+66     	; 0x2fb6 <LED_Indicator+0xba>
			}
		}
		else if(Det_Input_Reg_Data[DET_InputReg_AlarmState] == ALARM_STATE_BIT_PROGRESS){
			if(ModeSetFlow[FMODE_DET_TEST_MODE]){
    2f74:	80 91 e5 0a 	lds	r24, 0x0AE5
    2f78:	88 23       	and	r24, r24
    2f7a:	11 f0       	breq	.+4      	; 0x2f80 <LED_Indicator+0x84>
				ModeSetFlow[FMODE_DET_TEST_MODE] = 0;
    2f7c:	10 92 e5 0a 	sts	0x0AE5, r1
			}
			TEST_GN_LED_OFF();
    2f80:	80 91 0b 01 	lds	r24, 0x010B
    2f84:	8f 7d       	andi	r24, 0xDF	; 223
    2f86:	80 93 0b 01 	sts	0x010B, r24
			TEST_RD_LED_OFF();
    2f8a:	80 91 0b 01 	lds	r24, 0x010B
    2f8e:	8f 7e       	andi	r24, 0xEF	; 239
    2f90:	80 93 0b 01 	sts	0x010B, r24
			TEST_BL_LED_ON();
    2f94:	80 91 0b 01 	lds	r24, 0x010B
    2f98:	80 64       	ori	r24, 0x40	; 64
    2f9a:	0d c0       	rjmp	.+26     	; 0x2fb6 <LED_Indicator+0xba>
		}
		else if(Det_Input_Reg_Data[DET_InputReg_AlarmState] == ALARM_STATE_BIT_FAULT){
			TEST_GN_LED_OFF();
    2f9c:	80 91 0b 01 	lds	r24, 0x010B
    2fa0:	8f 7d       	andi	r24, 0xDF	; 223
    2fa2:	80 93 0b 01 	sts	0x010B, r24
			TEST_RD_LED_ON();
    2fa6:	80 91 0b 01 	lds	r24, 0x010B
    2faa:	80 61       	ori	r24, 0x10	; 16
    2fac:	80 93 0b 01 	sts	0x010B, r24
			TEST_BL_LED_OFF();
    2fb0:	80 91 0b 01 	lds	r24, 0x010B
    2fb4:	8f 7b       	andi	r24, 0xBF	; 191
    2fb6:	80 93 0b 01 	sts	0x010B, r24
		}

		if(Det_Analog_Data < 350){
    2fba:	80 91 a1 09 	lds	r24, 0x09A1
    2fbe:	90 91 a2 09 	lds	r25, 0x09A2
    2fc2:	21 e0       	ldi	r18, 0x01	; 1
    2fc4:	8e 35       	cpi	r24, 0x5E	; 94
    2fc6:	92 07       	cpc	r25, r18
    2fc8:	18 f4       	brcc	.+6      	; 0x2fd0 <LED_Indicator+0xd4>
			ANALOG_RD_LED_ON();
    2fca:	40 9a       	sbi	0x08, 0	; 8
			ANALOG_GN_LED_OFF();
    2fcc:	41 98       	cbi	0x08, 1	; 8
    2fce:	05 c0       	rjmp	.+10     	; 0x2fda <LED_Indicator+0xde>
			ANALOG_BL_LED_OFF();
		}
		else if(Det_Analog_Data < 1950){
    2fd0:	8e 59       	subi	r24, 0x9E	; 158
    2fd2:	97 40       	sbci	r25, 0x07	; 7
    2fd4:	20 f4       	brcc	.+8      	; 0x2fde <LED_Indicator+0xe2>
			ANALOG_RD_LED_OFF();
    2fd6:	40 98       	cbi	0x08, 0	; 8
			ANALOG_GN_LED_ON();
    2fd8:	41 9a       	sbi	0x08, 1	; 8
			ANALOG_BL_LED_OFF();
    2fda:	42 98       	cbi	0x08, 2	; 8
    2fdc:	03 c0       	rjmp	.+6      	; 0x2fe4 <LED_Indicator+0xe8>
		}
		else{
			ANALOG_RD_LED_OFF();
    2fde:	40 98       	cbi	0x08, 0	; 8
			ANALOG_GN_LED_OFF();
    2fe0:	41 98       	cbi	0x08, 1	; 8
			ANALOG_BL_LED_ON();
    2fe2:	42 9a       	sbi	0x08, 2	; 8
		}
		
		if(det_power_out == Det_Power_16V){
    2fe4:	80 91 81 0a 	lds	r24, 0x0A81
    2fe8:	81 30       	cpi	r24, 0x01	; 1
    2fea:	19 f4       	brne	.+6      	; 0x2ff2 <LED_Indicator+0xf6>
			DET_OUT_RD_LED_ON();
    2fec:	43 9a       	sbi	0x08, 3	; 8
			DET_OUT_GN_LED_OFF();
    2fee:	44 98       	cbi	0x08, 4	; 8
    2ff0:	06 c0       	rjmp	.+12     	; 0x2ffe <LED_Indicator+0x102>
			DET_OUT_BL_LED_OFF();
		}
		else if( (det_power_out == Det_Power_24V) | (det_power_out == Det_Power_24V_RE) ){
    2ff2:	88 23       	and	r24, r24
    2ff4:	11 f0       	breq	.+4      	; 0x2ffa <LED_Indicator+0xfe>
    2ff6:	82 30       	cpi	r24, 0x02	; 2
    2ff8:	21 f4       	brne	.+8      	; 0x3002 <LED_Indicator+0x106>
			DET_OUT_RD_LED_OFF();
    2ffa:	43 98       	cbi	0x08, 3	; 8
			DET_OUT_GN_LED_ON();
    2ffc:	44 9a       	sbi	0x08, 4	; 8
			DET_OUT_BL_LED_OFF();
    2ffe:	45 98       	cbi	0x08, 5	; 8
    3000:	08 95       	ret
		}
		else{
			DET_OUT_RD_LED_OFF();
    3002:	43 98       	cbi	0x08, 3	; 8
			DET_OUT_GN_LED_OFF();
    3004:	44 98       	cbi	0x08, 4	; 8
			DET_OUT_BL_LED_ON();
    3006:	45 9a       	sbi	0x08, 5	; 8
    3008:	08 95       	ret
		}
	}
	else{
		P24V_OUT_OFF();
    300a:	80 91 05 01 	lds	r24, 0x0105
    300e:	8f 77       	andi	r24, 0x7F	; 127
    3010:	80 93 05 01 	sts	0x0105, r24
		PWR_LED_OFF();
    3014:	46 98       	cbi	0x08, 6	; 8
		ALARM_LED_OFF();
    3016:	80 91 0b 01 	lds	r24, 0x010B
    301a:	8d 7f       	andi	r24, 0xFD	; 253
    301c:	80 93 0b 01 	sts	0x010B, r24
		TROUBLE_LED_OFF();
    3020:	80 91 0b 01 	lds	r24, 0x010B
    3024:	8b 7f       	andi	r24, 0xFB	; 251
    3026:	80 93 0b 01 	sts	0x010B, r24
		RS485_LED_OFF();
    302a:	80 91 0b 01 	lds	r24, 0x010B
    302e:	87 7f       	andi	r24, 0xF7	; 247
    3030:	80 93 0b 01 	sts	0x010B, r24
		ANALOG_LED_ALL_OFF();
    3034:	88 b1       	in	r24, 0x08	; 8
    3036:	88 7f       	andi	r24, 0xF8	; 248
    3038:	88 b9       	out	0x08, r24	; 8
		DET_OUT_LED_ALL_OFF();
    303a:	88 b1       	in	r24, 0x08	; 8
    303c:	87 7c       	andi	r24, 0xC7	; 199
    303e:	88 b9       	out	0x08, r24	; 8
		TEST_LED_ALL_OFF();
    3040:	80 91 0b 01 	lds	r24, 0x010B
    3044:	8f 78       	andi	r24, 0x8F	; 143
    3046:	80 93 0b 01 	sts	0x010B, r24
    304a:	08 95       	ret

0000304c <Log_Handler>:
	}	
}

void Log_Handler(void)
{
    304c:	0f 93       	push	r16
    304e:	1f 93       	push	r17
#if 1
U8	i;

	if(sTimerFlag[TMR_1000MS_String] == 1){
    3050:	80 91 39 0f 	lds	r24, 0x0F39
    3054:	90 91 3a 0f 	lds	r25, 0x0F3A
    3058:	01 97       	sbiw	r24, 0x01	; 1
    305a:	09 f0       	breq	.+2      	; 0x305e <Log_Handler+0x12>
    305c:	a1 c0       	rjmp	.+322    	; 0x31a0 <Log_Handler+0x154>
		sTimerFlag[TMR_1000MS_String] = 0;
    305e:	10 92 3a 0f 	sts	0x0F3A, r1
    3062:	10 92 39 0f 	sts	0x0F39, r1
		
		if(FullScaleMode){
    3066:	80 91 d0 0a 	lds	r24, 0x0AD0
    306a:	88 23       	and	r24, r24
    306c:	09 f4       	brne	.+2      	; 0x3070 <Log_Handler+0x24>
    306e:	98 c0       	rjmp	.+304    	; 0x31a0 <Log_Handler+0x154>
			printf(",");
    3070:	8c e2       	ldi	r24, 0x2C	; 44
    3072:	90 e0       	ldi	r25, 0x00	; 0
    3074:	0e 94 b2 3d 	call	0x7b64	; 0x7b64 <putchar>
			printf("%4u, %5u, ", Det_Input_Reg_Data[DET_InputReg_DeviceCnt], blackbody_freq);
    3078:	00 d0       	rcall	.+0      	; 0x307a <Log_Handler+0x2e>
    307a:	00 d0       	rcall	.+0      	; 0x307c <Log_Handler+0x30>
    307c:	ed b7       	in	r30, 0x3d	; 61
    307e:	fe b7       	in	r31, 0x3e	; 62
    3080:	31 96       	adiw	r30, 0x01	; 1
    3082:	88 e2       	ldi	r24, 0x28	; 40
    3084:	92 e0       	ldi	r25, 0x02	; 2
    3086:	ad b7       	in	r26, 0x3d	; 61
    3088:	be b7       	in	r27, 0x3e	; 62
    308a:	12 96       	adiw	r26, 0x02	; 2
    308c:	9c 93       	st	X, r25
    308e:	8e 93       	st	-X, r24
    3090:	11 97       	sbiw	r26, 0x01	; 1
    3092:	80 91 bb 0f 	lds	r24, 0x0FBB
    3096:	90 91 bc 0f 	lds	r25, 0x0FBC
    309a:	93 83       	std	Z+3, r25	; 0x03
    309c:	82 83       	std	Z+2, r24	; 0x02
    309e:	80 91 84 0a 	lds	r24, 0x0A84
    30a2:	90 91 85 0a 	lds	r25, 0x0A85
    30a6:	95 83       	std	Z+5, r25	; 0x05
    30a8:	84 83       	std	Z+4, r24	; 0x04
    30aa:	0e 94 a0 3d 	call	0x7b40	; 0x7b40 <printf>
			printf("%4u, %4u, %4u, %4u, ", Det_Input_Reg_Data[DET_InputReg_Ir1sAvrg_466], Det_Input_Reg_Data[DET_InputReg_IrAvPtoP_466], Det_Input_Reg_Data[DET_InputReg_IrSize_466], Det_Input_Reg_Data[DET_InputReg_IrSizeRoc_466]);
    30ae:	00 d0       	rcall	.+0      	; 0x30b0 <Log_Handler+0x64>
    30b0:	0f 92       	push	r0
    30b2:	ed b7       	in	r30, 0x3d	; 61
    30b4:	fe b7       	in	r31, 0x3e	; 62
    30b6:	31 96       	adiw	r30, 0x01	; 1
    30b8:	03 e3       	ldi	r16, 0x33	; 51
    30ba:	12 e0       	ldi	r17, 0x02	; 2
    30bc:	ad b7       	in	r26, 0x3d	; 61
    30be:	be b7       	in	r27, 0x3e	; 62
    30c0:	12 96       	adiw	r26, 0x02	; 2
    30c2:	1c 93       	st	X, r17
    30c4:	0e 93       	st	-X, r16
    30c6:	11 97       	sbiw	r26, 0x01	; 1
    30c8:	80 91 cf 0f 	lds	r24, 0x0FCF
    30cc:	90 91 d0 0f 	lds	r25, 0x0FD0
    30d0:	93 83       	std	Z+3, r25	; 0x03
    30d2:	82 83       	std	Z+2, r24	; 0x02
    30d4:	80 91 d1 0f 	lds	r24, 0x0FD1
    30d8:	90 91 d2 0f 	lds	r25, 0x0FD2
    30dc:	95 83       	std	Z+5, r25	; 0x05
    30de:	84 83       	std	Z+4, r24	; 0x04
    30e0:	80 91 d3 0f 	lds	r24, 0x0FD3
    30e4:	90 91 d4 0f 	lds	r25, 0x0FD4
    30e8:	97 83       	std	Z+7, r25	; 0x07
    30ea:	86 83       	std	Z+6, r24	; 0x06
    30ec:	80 91 d5 0f 	lds	r24, 0x0FD5
    30f0:	90 91 d6 0f 	lds	r25, 0x0FD6
    30f4:	91 87       	std	Z+9, r25	; 0x09
    30f6:	80 87       	std	Z+8, r24	; 0x08
    30f8:	0e 94 a0 3d 	call	0x7b40	; 0x7b40 <printf>
			printf("%4u, %4u, %4u, %4u, ", Det_Input_Reg_Data[DET_InputReg_Ir1sAvrg_395], Det_Input_Reg_Data[DET_InputReg_IrAvPtoP_395], Det_Input_Reg_Data[DET_InputReg_IrSize_395], Det_Input_Reg_Data[DET_InputReg_IrSizeRoc_395]);
    30fc:	ed b7       	in	r30, 0x3d	; 61
    30fe:	fe b7       	in	r31, 0x3e	; 62
    3100:	31 96       	adiw	r30, 0x01	; 1
    3102:	ad b7       	in	r26, 0x3d	; 61
    3104:	be b7       	in	r27, 0x3e	; 62
    3106:	12 96       	adiw	r26, 0x02	; 2
    3108:	1c 93       	st	X, r17
    310a:	0e 93       	st	-X, r16
    310c:	11 97       	sbiw	r26, 0x01	; 1
    310e:	80 91 e7 0f 	lds	r24, 0x0FE7
    3112:	90 91 e8 0f 	lds	r25, 0x0FE8
    3116:	93 83       	std	Z+3, r25	; 0x03
    3118:	82 83       	std	Z+2, r24	; 0x02
    311a:	80 91 e9 0f 	lds	r24, 0x0FE9
    311e:	90 91 ea 0f 	lds	r25, 0x0FEA
    3122:	95 83       	std	Z+5, r25	; 0x05
    3124:	84 83       	std	Z+4, r24	; 0x04
    3126:	80 91 eb 0f 	lds	r24, 0x0FEB
    312a:	90 91 ec 0f 	lds	r25, 0x0FEC
    312e:	97 83       	std	Z+7, r25	; 0x07
    3130:	86 83       	std	Z+6, r24	; 0x06
    3132:	80 91 ed 0f 	lds	r24, 0x0FED
    3136:	90 91 ee 0f 	lds	r25, 0x0FEE
    313a:	91 87       	std	Z+9, r25	; 0x09
    313c:	80 87       	std	Z+8, r24	; 0x08
    313e:	0e 94 a0 3d 	call	0x7b40	; 0x7b40 <printf>
			printf("%4u, %4u, %4u, %4u, ", Det_Input_Reg_Data[DET_InputReg_Ir1sAvrg_530], Det_Input_Reg_Data[DET_InputReg_IrAvPtoP_530], Det_Input_Reg_Data[DET_InputReg_IrSize_530], Det_Input_Reg_Data[DET_InputReg_IrSizeRoc_530]);
    3142:	ed b7       	in	r30, 0x3d	; 61
    3144:	fe b7       	in	r31, 0x3e	; 62
    3146:	31 96       	adiw	r30, 0x01	; 1
    3148:	ad b7       	in	r26, 0x3d	; 61
    314a:	be b7       	in	r27, 0x3e	; 62
    314c:	12 96       	adiw	r26, 0x02	; 2
    314e:	1c 93       	st	X, r17
    3150:	0e 93       	st	-X, r16
    3152:	11 97       	sbiw	r26, 0x01	; 1
    3154:	80 91 ff 0f 	lds	r24, 0x0FFF
    3158:	90 91 00 10 	lds	r25, 0x1000
    315c:	93 83       	std	Z+3, r25	; 0x03
    315e:	82 83       	std	Z+2, r24	; 0x02
    3160:	80 91 01 10 	lds	r24, 0x1001
    3164:	90 91 02 10 	lds	r25, 0x1002
    3168:	95 83       	std	Z+5, r25	; 0x05
    316a:	84 83       	std	Z+4, r24	; 0x04
    316c:	80 91 03 10 	lds	r24, 0x1003
    3170:	90 91 04 10 	lds	r25, 0x1004
    3174:	97 83       	std	Z+7, r25	; 0x07
    3176:	86 83       	std	Z+6, r24	; 0x06
    3178:	80 91 05 10 	lds	r24, 0x1005
    317c:	90 91 06 10 	lds	r25, 0x1006
    3180:	91 87       	std	Z+9, r25	; 0x09
    3182:	80 87       	std	Z+8, r24	; 0x08
    3184:	0e 94 a0 3d 	call	0x7b40	; 0x7b40 <printf>
			printf("\n");
    3188:	8d b7       	in	r24, 0x3d	; 61
    318a:	9e b7       	in	r25, 0x3e	; 62
    318c:	0a 96       	adiw	r24, 0x0a	; 10
    318e:	0f b6       	in	r0, 0x3f	; 63
    3190:	f8 94       	cli
    3192:	9e bf       	out	0x3e, r25	; 62
    3194:	0f be       	out	0x3f, r0	; 63
    3196:	8d bf       	out	0x3d, r24	; 61
    3198:	8a e0       	ldi	r24, 0x0A	; 10
    319a:	90 e0       	ldi	r25, 0x00	; 0
    319c:	0e 94 b2 3d 	call	0x7b64	; 0x7b64 <putchar>
		//printf("C: %d, %d, %d, %d, ", Det_com_cnt, Det_com_warning, Det_com_flag, Det_com_cnt_2);
		//printf("CR: %u, %u, %u, %u ", uv_cpm, uv_cps, uv_det_limit, Det_UV_Calibration_Count_MAX);
		//printf("\n");
	}
#endif
    31a0:	1f 91       	pop	r17
    31a2:	0f 91       	pop	r16
    31a4:	08 95       	ret

000031a6 <Det_Power_Task>:
	}
}

void Det_Power_Task(void)
{
	if( ( det_power_control >> 1 ) & Det_Power_Control_Bit){
    31a6:	90 91 da 0a 	lds	r25, 0x0ADA
    31aa:	89 2f       	mov	r24, r25
    31ac:	86 95       	lsr	r24
    31ae:	80 ff       	sbrs	r24, 0
    31b0:	31 c0       	rjmp	.+98     	; 0x3214 <Det_Power_Task+0x6e>
		det_power_control &= ~BIT1;
    31b2:	9d 7f       	andi	r25, 0xFD	; 253
    31b4:	90 93 da 0a 	sts	0x0ADA, r25

		if( (det_power_out == Det_Power_24V) | (det_power_out == Det_Power_24V_RE) ){
    31b8:	80 91 81 0a 	lds	r24, 0x0A81
    31bc:	88 23       	and	r24, r24
    31be:	11 f0       	breq	.+4      	; 0x31c4 <Det_Power_Task+0x1e>
    31c0:	82 30       	cpi	r24, 0x02	; 2
    31c2:	59 f4       	brne	.+22     	; 0x31da <Det_Power_Task+0x34>
			Potentiometer_Wr(0x00, 0xFF);
    31c4:	80 e0       	ldi	r24, 0x00	; 0
    31c6:	6f ef       	ldi	r22, 0xFF	; 255
    31c8:	0e 94 f3 2a 	call	0x55e6	; 0x55e6 <Potentiometer_Wr>
			Delay_ms(100);
    31cc:	84 e6       	ldi	r24, 0x64	; 100
    31ce:	90 e0       	ldi	r25, 0x00	; 0
    31d0:	0e 94 1d 2b 	call	0x563a	; 0x563a <Delay_ms>
			Potentiometer_Wr(0x01, 0x5b);
    31d4:	81 e0       	ldi	r24, 0x01	; 1
    31d6:	6b e5       	ldi	r22, 0x5B	; 91
    31d8:	0c c0       	rjmp	.+24     	; 0x31f2 <Det_Power_Task+0x4c>
		}
		else if( det_power_out == Det_Power_16V){
    31da:	81 30       	cpi	r24, 0x01	; 1
    31dc:	69 f4       	brne	.+26     	; 0x31f8 <Det_Power_Task+0x52>
			Potentiometer_Wr(0x00, 0x1F);
    31de:	80 e0       	ldi	r24, 0x00	; 0
    31e0:	6f e1       	ldi	r22, 0x1F	; 31
    31e2:	0e 94 f3 2a 	call	0x55e6	; 0x55e6 <Potentiometer_Wr>
			Delay_ms(100);
    31e6:	84 e6       	ldi	r24, 0x64	; 100
    31e8:	90 e0       	ldi	r25, 0x00	; 0
    31ea:	0e 94 1d 2b 	call	0x563a	; 0x563a <Delay_ms>
			Potentiometer_Wr(0x01, 0x03);
    31ee:	81 e0       	ldi	r24, 0x01	; 1
    31f0:	63 e0       	ldi	r22, 0x03	; 3
    31f2:	0e 94 f3 2a 	call	0x55e6	; 0x55e6 <Potentiometer_Wr>
    31f6:	08 95       	ret
		}
		else if( det_power_out == Det_Power_32V){
    31f8:	83 30       	cpi	r24, 0x03	; 3
    31fa:	61 f4       	brne	.+24     	; 0x3214 <Det_Power_Task+0x6e>
			Potentiometer_Wr(0x00, 0xFF);
    31fc:	80 e0       	ldi	r24, 0x00	; 0
    31fe:	6f ef       	ldi	r22, 0xFF	; 255
    3200:	0e 94 f3 2a 	call	0x55e6	; 0x55e6 <Potentiometer_Wr>
			Delay_ms(100);
    3204:	84 e6       	ldi	r24, 0x64	; 100
    3206:	90 e0       	ldi	r25, 0x00	; 0
    3208:	0e 94 1d 2b 	call	0x563a	; 0x563a <Delay_ms>
			Potentiometer_Wr(0x01, 0x81);
    320c:	81 e0       	ldi	r24, 0x01	; 1
    320e:	61 e8       	ldi	r22, 0x81	; 129
    3210:	0e 94 f3 2a 	call	0x55e6	; 0x55e6 <Potentiometer_Wr>
    3214:	08 95       	ret

00003216 <Func_Det_Test_Mode>:
			Initialize_ModeFlag();
	}
}

void Func_Det_Test_Mode(void)
{
    3216:	0f 93       	push	r16
    3218:	1f 93       	push	r17
	EXT_BIT_ON();
    321a:	05 e0       	ldi	r16, 0x05	; 5
    321c:	11 e0       	ldi	r17, 0x01	; 1
    321e:	f8 01       	movw	r30, r16
    3220:	80 81       	ld	r24, Z
    3222:	84 60       	ori	r24, 0x04	; 4
    3224:	80 83       	st	Z, r24
	Delay_ms(50);
    3226:	82 e3       	ldi	r24, 0x32	; 50
    3228:	90 e0       	ldi	r25, 0x00	; 0
    322a:	0e 94 1d 2b 	call	0x563a	; 0x563a <Delay_ms>
	EXT_BIT_OFF();
    322e:	f8 01       	movw	r30, r16
    3230:	80 81       	ld	r24, Z
    3232:	8b 7f       	andi	r24, 0xFB	; 251
    3234:	80 83       	st	Z, r24
	Mode_Select();
    3236:	0e 94 57 17 	call	0x2eae	; 0x2eae <Mode_Select>
				ModeSetFlow[FMODE_DET_TEST_MODE] = 0;
				break;
		}
	}
#endif
}
    323a:	1f 91       	pop	r17
    323c:	0f 91       	pop	r16
    323e:	08 95       	ret

00003240 <Det_Status>:
	Mode_Select();
}

void Det_Status(void)
{
	if( !(det_power_control & Det_Power_Control_Bit) ){
    3240:	80 91 da 0a 	lds	r24, 0x0ADA
    3244:	80 fd       	sbrc	r24, 0
    3246:	02 c0       	rjmp	.+4      	; 0x324c <Det_Status+0xc>
		reg_data = ALAMR_STATE_DET_POWER_OFF;
    3248:	8c e0       	ldi	r24, 0x0C	; 12
    324a:	0b c0       	rjmp	.+22     	; 0x3262 <Det_Status+0x22>
		if(!reg_data_flag){
			reg_data_flag = 1;
			Det_Reg_Clear();
		}
	}
	else if(det_power_control & Det_Power_System_Check_Bit){
    324c:	82 ff       	sbrs	r24, 2
    324e:	04 c0       	rjmp	.+8      	; 0x3258 <Det_Status+0x18>
		reg_data = ALAMR_STATE_DET_SYSTEM_CHECK;
    3250:	8d e0       	ldi	r24, 0x0D	; 13
    3252:	80 93 f1 0a 	sts	0x0AF1, r24
    3256:	17 c0       	rjmp	.+46     	; 0x3286 <Det_Status+0x46>
	}
	else if(Det_com_flag == 0){
    3258:	80 91 b0 18 	lds	r24, 0x18B0
    325c:	88 23       	and	r24, r24
    325e:	69 f4       	brne	.+26     	; 0x327a <Det_Status+0x3a>
		reg_data = ALARM_STATE_MODBUS_FAULT;
    3260:	8a e0       	ldi	r24, 0x0A	; 10
    3262:	80 93 f1 0a 	sts	0x0AF1, r24
		if(!reg_data_flag){
    3266:	80 91 83 0a 	lds	r24, 0x0A83
    326a:	88 23       	and	r24, r24
    326c:	61 f4       	brne	.+24     	; 0x3286 <Det_Status+0x46>
			reg_data_flag = 1;
    326e:	81 e0       	ldi	r24, 0x01	; 1
    3270:	80 93 83 0a 	sts	0x0A83, r24
			Det_Reg_Clear();
    3274:	0e 94 cd 33 	call	0x679a	; 0x679a <Det_Reg_Clear>
    3278:	06 c0       	rjmp	.+12     	; 0x3286 <Det_Status+0x46>
		}
	}
	else{
		reg_data = Det_Input_Reg_Data[DET_InputReg_AlarmState];
    327a:	80 91 9b 0f 	lds	r24, 0x0F9B
    327e:	80 93 f1 0a 	sts	0x0AF1, r24
		reg_data_flag = 0;
    3282:	10 92 83 0a 	sts	0x0A83, r1
	}
	
	if(reg_data == ALAMR_STATE_DET_POWER_OFF){
    3286:	80 91 f1 0a 	lds	r24, 0x0AF1
    328a:	8c 30       	cpi	r24, 0x0C	; 12
    328c:	e1 f4       	brne	.+56     	; 0x32c6 <Det_Status+0x86>
		LCD_Clear_Line(LCD_LINE1);
    328e:	80 e0       	ldi	r24, 0x00	; 0
    3290:	0e 94 2c 0f 	call	0x1e58	; 0x1e58 <LCD_Clear_Line>
		sprintf(lcd2_buf,"[   Detector   ]");
    3294:	82 e1       	ldi	r24, 0x12	; 18
    3296:	9a e0       	ldi	r25, 0x0A	; 10
    3298:	68 e4       	ldi	r22, 0x48	; 72
    329a:	72 e0       	ldi	r23, 0x02	; 2
    329c:	0e 94 99 3d 	call	0x7b32	; 0x7b32 <strcpy>
		LCD_Display(LCDADD_LINE2_0, lcd2_buf);
    32a0:	80 e4       	ldi	r24, 0x40	; 64
    32a2:	62 e1       	ldi	r22, 0x12	; 18
    32a4:	7a e0       	ldi	r23, 0x0A	; 10
    32a6:	0e 94 e2 0e 	call	0x1dc4	; 0x1dc4 <LCD_Display>
		sprintf(lcd3_buf,"[   Power OFF  ]");
    32aa:	84 e2       	ldi	r24, 0x24	; 36
    32ac:	9a e0       	ldi	r25, 0x0A	; 10
    32ae:	69 e5       	ldi	r22, 0x59	; 89
    32b0:	72 e0       	ldi	r23, 0x02	; 2
    32b2:	0e 94 99 3d 	call	0x7b32	; 0x7b32 <strcpy>
		LCD_Display(LCDADD_LINE3_0, lcd3_buf);
    32b6:	80 e1       	ldi	r24, 0x10	; 16
    32b8:	64 e2       	ldi	r22, 0x24	; 36
    32ba:	7a e0       	ldi	r23, 0x0A	; 10
    32bc:	0e 94 e2 0e 	call	0x1dc4	; 0x1dc4 <LCD_Display>
		LCD_Clear_Line(LCD_LINE4);
    32c0:	80 e5       	ldi	r24, 0x50	; 80
    32c2:	0e 94 2c 0f 	call	0x1e58	; 0x1e58 <LCD_Clear_Line>
    32c6:	08 95       	ret

000032c8 <Func_Det_System_Check_Mode>:
	Initialize_ModeFlag();
}
*/

void Func_Det_System_Check_Mode(void)
{
    32c8:	cf 93       	push	r28
    32ca:	df 93       	push	r29
	if(det_power_control & Det_Power_System_Check_Bit){
    32cc:	80 91 da 0a 	lds	r24, 0x0ADA
    32d0:	82 ff       	sbrs	r24, 2
    32d2:	59 c1       	rjmp	.+690    	; 0x3586 <Func_Det_System_Check_Mode+0x2be>
		sprintf(lcd1_buf,"[ Det Checking ]");
    32d4:	82 e0       	ldi	r24, 0x02	; 2
    32d6:	9a e0       	ldi	r25, 0x0A	; 10
    32d8:	6a e6       	ldi	r22, 0x6A	; 106
    32da:	72 e0       	ldi	r23, 0x02	; 2
    32dc:	0e 94 99 3d 	call	0x7b32	; 0x7b32 <strcpy>
		LCD_Display(LCDADD_LINE1_0, lcd1_buf);
    32e0:	80 e0       	ldi	r24, 0x00	; 0
    32e2:	62 e0       	ldi	r22, 0x02	; 2
    32e4:	7a e0       	ldi	r23, 0x0A	; 10
    32e6:	0e 94 e2 0e 	call	0x1dc4	; 0x1dc4 <LCD_Display>
		sprintf(lcd2_buf,"Check Time  [%02d]", sTimerFlag[TMR_DET_SYSTEM_CHECK]);
    32ea:	00 d0       	rcall	.+0      	; 0x32ec <Func_Det_System_Check_Mode+0x24>
    32ec:	00 d0       	rcall	.+0      	; 0x32ee <Func_Det_System_Check_Mode+0x26>
    32ee:	ed b7       	in	r30, 0x3d	; 61
    32f0:	fe b7       	in	r31, 0x3e	; 62
    32f2:	31 96       	adiw	r30, 0x01	; 1
    32f4:	c2 e1       	ldi	r28, 0x12	; 18
    32f6:	da e0       	ldi	r29, 0x0A	; 10
    32f8:	ad b7       	in	r26, 0x3d	; 61
    32fa:	be b7       	in	r27, 0x3e	; 62
    32fc:	12 96       	adiw	r26, 0x02	; 2
    32fe:	dc 93       	st	X, r29
    3300:	ce 93       	st	-X, r28
    3302:	11 97       	sbiw	r26, 0x01	; 1
    3304:	8b e7       	ldi	r24, 0x7B	; 123
    3306:	92 e0       	ldi	r25, 0x02	; 2
    3308:	93 83       	std	Z+3, r25	; 0x03
    330a:	82 83       	std	Z+2, r24	; 0x02
    330c:	80 91 4f 0f 	lds	r24, 0x0F4F
    3310:	90 91 50 0f 	lds	r25, 0x0F50
    3314:	95 83       	std	Z+5, r25	; 0x05
    3316:	84 83       	std	Z+4, r24	; 0x04
    3318:	0e 94 ee 3d 	call	0x7bdc	; 0x7bdc <sprintf>
		LCD_Display(LCDADD_LINE2_0, lcd2_buf);
    331c:	8d b7       	in	r24, 0x3d	; 61
    331e:	9e b7       	in	r25, 0x3e	; 62
    3320:	06 96       	adiw	r24, 0x06	; 6
    3322:	0f b6       	in	r0, 0x3f	; 63
    3324:	f8 94       	cli
    3326:	9e bf       	out	0x3e, r25	; 62
    3328:	0f be       	out	0x3f, r0	; 63
    332a:	8d bf       	out	0x3d, r24	; 61
    332c:	80 e4       	ldi	r24, 0x40	; 64
    332e:	be 01       	movw	r22, r28
    3330:	0e 94 e2 0e 	call	0x1dc4	; 0x1dc4 <LCD_Display>

		switch(sTimerFlag[TMR_DET_SYSTEM_CHECK]){
    3334:	80 91 4f 0f 	lds	r24, 0x0F4F
    3338:	90 91 50 0f 	lds	r25, 0x0F50
    333c:	88 30       	cpi	r24, 0x08	; 8
    333e:	91 05       	cpc	r25, r1
    3340:	09 f4       	brne	.+2      	; 0x3344 <Func_Det_System_Check_Mode+0x7c>
    3342:	74 c0       	rjmp	.+232    	; 0x342c <Func_Det_System_Check_Mode+0x164>
    3344:	89 30       	cpi	r24, 0x09	; 9
    3346:	91 05       	cpc	r25, r1
    3348:	20 f4       	brcc	.+8      	; 0x3352 <Func_Det_System_Check_Mode+0x8a>
    334a:	06 97       	sbiw	r24, 0x06	; 6
    334c:	08 f0       	brcs	.+2      	; 0x3350 <Func_Det_System_Check_Mode+0x88>
    334e:	1b c1       	rjmp	.+566    	; 0x3586 <Func_Det_System_Check_Mode+0x2be>
    3350:	08 c0       	rjmp	.+16     	; 0x3362 <Func_Det_System_Check_Mode+0x9a>
    3352:	89 30       	cpi	r24, 0x09	; 9
    3354:	91 05       	cpc	r25, r1
    3356:	09 f4       	brne	.+2      	; 0x335a <Func_Det_System_Check_Mode+0x92>
    3358:	c8 c0       	rjmp	.+400    	; 0x34ea <Func_Det_System_Check_Mode+0x222>
    335a:	0a 97       	sbiw	r24, 0x0a	; 10
    335c:	09 f0       	breq	.+2      	; 0x3360 <Func_Det_System_Check_Mode+0x98>
    335e:	13 c1       	rjmp	.+550    	; 0x3586 <Func_Det_System_Check_Mode+0x2be>
    3360:	f8 c0       	rjmp	.+496    	; 0x3552 <Func_Det_System_Check_Mode+0x28a>
			case 1:
			case 2:
			case 3:
			case 4:
			case 5:
				if( !(det_power_control >> 3 & 0x03) ){
    3362:	80 91 da 0a 	lds	r24, 0x0ADA
    3366:	86 95       	lsr	r24
    3368:	86 95       	lsr	r24
    336a:	86 95       	lsr	r24
    336c:	90 e0       	ldi	r25, 0x00	; 0
    336e:	83 70       	andi	r24, 0x03	; 3
    3370:	90 70       	andi	r25, 0x00	; 0
    3372:	89 2b       	or	r24, r25
    3374:	09 f0       	breq	.+2      	; 0x3378 <Func_Det_System_Check_Mode+0xb0>
    3376:	07 c1       	rjmp	.+526    	; 0x3586 <Func_Det_System_Check_Mode+0x2be>
					sprintf(lcd3_buf,"RS485 Check");
    3378:	84 e2       	ldi	r24, 0x24	; 36
    337a:	9a e0       	ldi	r25, 0x0A	; 10
    337c:	6e e8       	ldi	r22, 0x8E	; 142
    337e:	72 e0       	ldi	r23, 0x02	; 2
    3380:	0e 94 99 3d 	call	0x7b32	; 0x7b32 <strcpy>
					LCD_Display(LCDADD_LINE3_0, lcd3_buf);
    3384:	80 e1       	ldi	r24, 0x10	; 16
    3386:	64 e2       	ldi	r22, 0x24	; 36
    3388:	7a e0       	ldi	r23, 0x0A	; 10
    338a:	0e 94 e2 0e 	call	0x1dc4	; 0x1dc4 <LCD_Display>
					
					if(Det_Input_Reg_Data[DET_InputReg_FW_VERSION] != 0){
    338e:	80 91 99 0f 	lds	r24, 0x0F99
    3392:	90 91 9a 0f 	lds	r25, 0x0F9A
    3396:	89 2b       	or	r24, r25
    3398:	09 f4       	brne	.+2      	; 0x339c <Func_Det_System_Check_Mode+0xd4>
    339a:	f5 c0       	rjmp	.+490    	; 0x3586 <Func_Det_System_Check_Mode+0x2be>
						sprintf(lcd3_buf,"OK");
    339c:	84 e2       	ldi	r24, 0x24	; 36
    339e:	9a e0       	ldi	r25, 0x0A	; 10
    33a0:	6a e9       	ldi	r22, 0x9A	; 154
    33a2:	72 e0       	ldi	r23, 0x02	; 2
    33a4:	0e 94 99 3d 	call	0x7b32	; 0x7b32 <strcpy>
						LCD_Display(LCDADD_LINE3_14, lcd3_buf);
    33a8:	8e e1       	ldi	r24, 0x1E	; 30
    33aa:	64 e2       	ldi	r22, 0x24	; 36
    33ac:	7a e0       	ldi	r23, 0x0A	; 10
    33ae:	0e 94 e2 0e 	call	0x1dc4	; 0x1dc4 <LCD_Display>
						
						if( (Det_Holding_Reg_Data[DET_EEP_UV_DET_LMT] == 0xffff) | (Det_Holding_Reg_Data[DET_EEP_CAL_BUF_UV_CPS] == 0xffff) | (Det_Holding_Reg_Data[DET_EEP_CAL_BUF_IR430_RESPONSIVITY] == 0xffff) ){
    33b2:	20 e0       	ldi	r18, 0x00	; 0
    33b4:	80 91 6d 1c 	lds	r24, 0x1C6D
    33b8:	90 91 6e 1c 	lds	r25, 0x1C6E
    33bc:	8f 5f       	subi	r24, 0xFF	; 255
    33be:	9f 4f       	sbci	r25, 0xFF	; 255
    33c0:	09 f4       	brne	.+2      	; 0x33c4 <Func_Det_System_Check_Mode+0xfc>
    33c2:	21 e0       	ldi	r18, 0x01	; 1
    33c4:	30 e0       	ldi	r19, 0x00	; 0
    33c6:	80 91 7f 1c 	lds	r24, 0x1C7F
    33ca:	90 91 80 1c 	lds	r25, 0x1C80
    33ce:	8f 5f       	subi	r24, 0xFF	; 255
    33d0:	9f 4f       	sbci	r25, 0xFF	; 255
    33d2:	09 f4       	brne	.+2      	; 0x33d6 <Func_Det_System_Check_Mode+0x10e>
    33d4:	31 e0       	ldi	r19, 0x01	; 1
    33d6:	23 2b       	or	r18, r19
    33d8:	30 e0       	ldi	r19, 0x00	; 0
    33da:	40 e0       	ldi	r20, 0x00	; 0
    33dc:	50 e0       	ldi	r21, 0x00	; 0
    33de:	80 91 89 1c 	lds	r24, 0x1C89
    33e2:	90 91 8a 1c 	lds	r25, 0x1C8A
    33e6:	8f 5f       	subi	r24, 0xFF	; 255
    33e8:	9f 4f       	sbci	r25, 0xFF	; 255
    33ea:	11 f4       	brne	.+4      	; 0x33f0 <Func_Det_System_Check_Mode+0x128>
    33ec:	41 e0       	ldi	r20, 0x01	; 1
    33ee:	50 e0       	ldi	r21, 0x00	; 0
    33f0:	24 2b       	or	r18, r20
    33f2:	35 2b       	or	r19, r21
    33f4:	23 2b       	or	r18, r19
    33f6:	39 f0       	breq	.+14     	; 0x3406 <Func_Det_System_Check_Mode+0x13e>
							Det_Modbus_Buf[Det_Comm_Flow] = Commnication_Default_Set;
    33f8:	81 e0       	ldi	r24, 0x01	; 1
    33fa:	90 e0       	ldi	r25, 0x00	; 0
    33fc:	90 93 1f 15 	sts	0x151F, r25
    3400:	80 93 1e 15 	sts	0x151E, r24
    3404:	c0 c0       	rjmp	.+384    	; 0x3586 <Func_Det_System_Check_Mode+0x2be>
						}
						else{
							sprintf(lcd4_buf,"Data  Check   OK");
    3406:	82 ef       	ldi	r24, 0xF2	; 242
    3408:	99 e0       	ldi	r25, 0x09	; 9
    340a:	6d e9       	ldi	r22, 0x9D	; 157
    340c:	72 e0       	ldi	r23, 0x02	; 2
    340e:	0e 94 99 3d 	call	0x7b32	; 0x7b32 <strcpy>
							LCD_Display(LCDADD_LINE4_0, lcd4_buf);
    3412:	80 e5       	ldi	r24, 0x50	; 80
    3414:	62 ef       	ldi	r22, 0xF2	; 242
    3416:	79 e0       	ldi	r23, 0x09	; 9
    3418:	0e 94 e2 0e 	call	0x1dc4	; 0x1dc4 <LCD_Display>
							
							if(sTimerFlag[TMR_DET_SYSTEM_CHECK] == 5){
    341c:	80 91 4f 0f 	lds	r24, 0x0F4F
    3420:	90 91 50 0f 	lds	r25, 0x0F50
    3424:	05 97       	sbiw	r24, 0x05	; 5
    3426:	09 f0       	breq	.+2      	; 0x342a <Func_Det_System_Check_Mode+0x162>
    3428:	ae c0       	rjmp	.+348    	; 0x3586 <Func_Det_System_Check_Mode+0x2be>
    342a:	ab c0       	rjmp	.+342    	; 0x3582 <Func_Det_System_Check_Mode+0x2ba>
			case 6:
				break;
			case 7:
				break;
			case 8:
				if(det_power_control & Det_Default_Data_Check_Bit){
    342c:	80 91 da 0a 	lds	r24, 0x0ADA
    3430:	84 ff       	sbrs	r24, 4
    3432:	48 c0       	rjmp	.+144    	; 0x34c4 <Func_Det_System_Check_Mode+0x1fc>
					sprintf(lcd4_buf,"Default Set");
    3434:	82 ef       	ldi	r24, 0xF2	; 242
    3436:	99 e0       	ldi	r25, 0x09	; 9
    3438:	6e ea       	ldi	r22, 0xAE	; 174
    343a:	72 e0       	ldi	r23, 0x02	; 2
    343c:	0e 94 99 3d 	call	0x7b32	; 0x7b32 <strcpy>
					LCD_Display(LCDADD_LINE4_0, lcd4_buf);
    3440:	80 e5       	ldi	r24, 0x50	; 80
    3442:	62 ef       	ldi	r22, 0xF2	; 242
    3444:	79 e0       	ldi	r23, 0x09	; 9
    3446:	0e 94 e2 0e 	call	0x1dc4	; 0x1dc4 <LCD_Display>
					
					if( (Det_Holding_Reg_Data[DET_EEP_UV_DET_LMT] == 1200) & (Det_Holding_Reg_Data[DET_EEP_CAL_BUF_UV_CPS] == 100) & (Det_Holding_Reg_Data[DET_EEP_CAL_BUF_IR430_RESPONSIVITY] == 1900) ){
    344a:	20 e0       	ldi	r18, 0x00	; 0
    344c:	80 91 6d 1c 	lds	r24, 0x1C6D
    3450:	90 91 6e 1c 	lds	r25, 0x1C6E
    3454:	80 5b       	subi	r24, 0xB0	; 176
    3456:	94 40       	sbci	r25, 0x04	; 4
    3458:	09 f4       	brne	.+2      	; 0x345c <Func_Det_System_Check_Mode+0x194>
    345a:	21 e0       	ldi	r18, 0x01	; 1
    345c:	30 e0       	ldi	r19, 0x00	; 0
    345e:	80 91 7f 1c 	lds	r24, 0x1C7F
    3462:	90 91 80 1c 	lds	r25, 0x1C80
    3466:	84 36       	cpi	r24, 0x64	; 100
    3468:	91 05       	cpc	r25, r1
    346a:	09 f4       	brne	.+2      	; 0x346e <Func_Det_System_Check_Mode+0x1a6>
    346c:	31 e0       	ldi	r19, 0x01	; 1
    346e:	23 23       	and	r18, r19
    3470:	30 e0       	ldi	r19, 0x00	; 0
    3472:	40 e0       	ldi	r20, 0x00	; 0
    3474:	50 e0       	ldi	r21, 0x00	; 0
    3476:	80 91 89 1c 	lds	r24, 0x1C89
    347a:	90 91 8a 1c 	lds	r25, 0x1C8A
    347e:	8c 56       	subi	r24, 0x6C	; 108
    3480:	97 40       	sbci	r25, 0x07	; 7
    3482:	11 f4       	brne	.+4      	; 0x3488 <Func_Det_System_Check_Mode+0x1c0>
    3484:	41 e0       	ldi	r20, 0x01	; 1
    3486:	50 e0       	ldi	r21, 0x00	; 0
    3488:	24 23       	and	r18, r20
    348a:	35 23       	and	r19, r21
    348c:	23 2b       	or	r18, r19
    348e:	79 f0       	breq	.+30     	; 0x34ae <Func_Det_System_Check_Mode+0x1e6>
						sprintf(lcd4_buf,"OK");
    3490:	82 ef       	ldi	r24, 0xF2	; 242
    3492:	99 e0       	ldi	r25, 0x09	; 9
    3494:	6a e9       	ldi	r22, 0x9A	; 154
    3496:	72 e0       	ldi	r23, 0x02	; 2
    3498:	0e 94 99 3d 	call	0x7b32	; 0x7b32 <strcpy>
						LCD_Display(LCDADD_LINE4_14, lcd4_buf);
    349c:	8e e5       	ldi	r24, 0x5E	; 94
    349e:	62 ef       	ldi	r22, 0xF2	; 242
    34a0:	79 e0       	ldi	r23, 0x09	; 9
    34a2:	0e 94 e2 0e 	call	0x1dc4	; 0x1dc4 <LCD_Display>
						Det_Reboot_Flag = 1;
    34a6:	81 e0       	ldi	r24, 0x01	; 1
    34a8:	80 93 d6 0a 	sts	0x0AD6, r24
    34ac:	0b c0       	rjmp	.+22     	; 0x34c4 <Func_Det_System_Check_Mode+0x1fc>
					}
					else{
						sprintf(lcd4_buf,"FAIL");
    34ae:	82 ef       	ldi	r24, 0xF2	; 242
    34b0:	99 e0       	ldi	r25, 0x09	; 9
    34b2:	6a eb       	ldi	r22, 0xBA	; 186
    34b4:	72 e0       	ldi	r23, 0x02	; 2
    34b6:	0e 94 99 3d 	call	0x7b32	; 0x7b32 <strcpy>
						LCD_Display(LCDADD_LINE4_12, lcd4_buf);
    34ba:	8c e5       	ldi	r24, 0x5C	; 92
    34bc:	62 ef       	ldi	r22, 0xF2	; 242
    34be:	79 e0       	ldi	r23, 0x09	; 9
    34c0:	0e 94 e2 0e 	call	0x1dc4	; 0x1dc4 <LCD_Display>
					}
				}
				if(Det_Input_Reg_Data[DET_InputReg_FW_VERSION] == 0){
    34c4:	80 91 99 0f 	lds	r24, 0x0F99
    34c8:	90 91 9a 0f 	lds	r25, 0x0F9A
    34cc:	89 2b       	or	r24, r25
    34ce:	09 f0       	breq	.+2      	; 0x34d2 <Func_Det_System_Check_Mode+0x20a>
    34d0:	5a c0       	rjmp	.+180    	; 0x3586 <Func_Det_System_Check_Mode+0x2be>
						sprintf(lcd3_buf,"FAIL");
    34d2:	84 e2       	ldi	r24, 0x24	; 36
    34d4:	9a e0       	ldi	r25, 0x0A	; 10
    34d6:	6a eb       	ldi	r22, 0xBA	; 186
    34d8:	72 e0       	ldi	r23, 0x02	; 2
    34da:	0e 94 99 3d 	call	0x7b32	; 0x7b32 <strcpy>
						LCD_Display(LCDADD_LINE3_12, lcd3_buf);
    34de:	8c e1       	ldi	r24, 0x1C	; 28
    34e0:	64 e2       	ldi	r22, 0x24	; 36
    34e2:	7a e0       	ldi	r23, 0x0A	; 10
    34e4:	0e 94 e2 0e 	call	0x1dc4	; 0x1dc4 <LCD_Display>
    34e8:	4e c0       	rjmp	.+156    	; 0x3586 <Func_Det_System_Check_Mode+0x2be>
				}
				break;
			case 9:
				if(Det_Reboot_Flag){
    34ea:	80 91 d6 0a 	lds	r24, 0x0AD6
    34ee:	88 23       	and	r24, r24
    34f0:	09 f4       	brne	.+2      	; 0x34f4 <Func_Det_System_Check_Mode+0x22c>
    34f2:	49 c0       	rjmp	.+146    	; 0x3586 <Func_Det_System_Check_Mode+0x2be>
					if(!Det_System_Check_Flag){
    34f4:	80 91 d3 0a 	lds	r24, 0x0AD3
    34f8:	88 23       	and	r24, r24
    34fa:	09 f0       	breq	.+2      	; 0x34fe <Func_Det_System_Check_Mode+0x236>
    34fc:	44 c0       	rjmp	.+136    	; 0x3586 <Func_Det_System_Check_Mode+0x2be>
						Det_System_Check_Flag = 1;
    34fe:	81 e0       	ldi	r24, 0x01	; 1
    3500:	80 93 d3 0a 	sts	0x0AD3, r24
						
						Det_Reg_Clear();
    3504:	0e 94 cd 33 	call	0x679a	; 0x679a <Det_Reg_Clear>

						sprintf(lcd3_buf,"   Det Reboot    ");
    3508:	84 e2       	ldi	r24, 0x24	; 36
    350a:	9a e0       	ldi	r25, 0x0A	; 10
    350c:	6f eb       	ldi	r22, 0xBF	; 191
    350e:	72 e0       	ldi	r23, 0x02	; 2
    3510:	0e 94 99 3d 	call	0x7b32	; 0x7b32 <strcpy>
						LCD_Display(LCDADD_LINE3_0, lcd3_buf);
    3514:	80 e1       	ldi	r24, 0x10	; 16
    3516:	64 e2       	ldi	r22, 0x24	; 36
    3518:	7a e0       	ldi	r23, 0x0A	; 10
    351a:	0e 94 e2 0e 	call	0x1dc4	; 0x1dc4 <LCD_Display>
						sprintf(lcd2_buf,"                 ");
    351e:	ce 01       	movw	r24, r28
    3520:	61 ed       	ldi	r22, 0xD1	; 209
    3522:	72 e0       	ldi	r23, 0x02	; 2
    3524:	0e 94 99 3d 	call	0x7b32	; 0x7b32 <strcpy>
						LCD_Display(LCDADD_LINE2_0, lcd2_buf);
    3528:	80 e4       	ldi	r24, 0x40	; 64
    352a:	be 01       	movw	r22, r28
    352c:	0e 94 e2 0e 	call	0x1dc4	; 0x1dc4 <LCD_Display>
						sprintf(lcd4_buf,"                 ");
    3530:	82 ef       	ldi	r24, 0xF2	; 242
    3532:	99 e0       	ldi	r25, 0x09	; 9
    3534:	61 ed       	ldi	r22, 0xD1	; 209
    3536:	72 e0       	ldi	r23, 0x02	; 2
    3538:	0e 94 99 3d 	call	0x7b32	; 0x7b32 <strcpy>
						LCD_Display(LCDADD_LINE4_0, lcd4_buf);
    353c:	80 e5       	ldi	r24, 0x50	; 80
    353e:	62 ef       	ldi	r22, 0xF2	; 242
    3540:	79 e0       	ldi	r23, 0x09	; 9
    3542:	0e 94 e2 0e 	call	0x1dc4	; 0x1dc4 <LCD_Display>

						P24V_OUT_OFF();
    3546:	80 91 05 01 	lds	r24, 0x0105
    354a:	8f 77       	andi	r24, 0x7F	; 127
    354c:	80 93 05 01 	sts	0x0105, r24
    3550:	1a c0       	rjmp	.+52     	; 0x3586 <Func_Det_System_Check_Mode+0x2be>
					}
				}
				break;
			case 10:
				if(Det_Reboot_Flag){
    3552:	80 91 d6 0a 	lds	r24, 0x0AD6
    3556:	88 23       	and	r24, r24
    3558:	a1 f0       	breq	.+40     	; 0x3582 <Func_Det_System_Check_Mode+0x2ba>
					P24V_OUT_ON();
    355a:	80 91 05 01 	lds	r24, 0x0105
    355e:	80 68       	ori	r24, 0x80	; 128
    3560:	80 93 05 01 	sts	0x0105, r24
					LCD_Clear_Line(LCD_LINE3);
    3564:	80 e1       	ldi	r24, 0x10	; 16
    3566:	0e 94 2c 0f 	call	0x1e58	; 0x1e58 <LCD_Clear_Line>
					sTimerFlag[TMR_DET_SYSTEM_CHECK] = 0;
    356a:	10 92 50 0f 	sts	0x0F50, r1
    356e:	10 92 4f 0f 	sts	0x0F4F, r1
					Det_Reboot_Flag = 0;
    3572:	10 92 d6 0a 	sts	0x0AD6, r1
					det_power_control = ( Det_Power_Control_Bit | Det_Power_System_Check_Bit );
    3576:	85 e0       	ldi	r24, 0x05	; 5
    3578:	80 93 da 0a 	sts	0x0ADA, r24
					Det_System_Check_Flag = 0;
    357c:	10 92 d3 0a 	sts	0x0AD3, r1
    3580:	02 c0       	rjmp	.+4      	; 0x3586 <Func_Det_System_Check_Mode+0x2be>
				}
				else if(Det_Reboot_Flag == 0){
					if(sTimerFlag[TMR_DET_SYSTEM_CHECK] == 10){
						Func_Det_System_Check_Result();
    3582:	0e 94 69 17 	call	0x2ed2	; 0x2ed2 <Func_Det_System_Check_Result>
					}
				}
				break;
		}
	}
}
    3586:	df 91       	pop	r29
    3588:	cf 91       	pop	r28
    358a:	08 95       	ret

0000358c <Func_Dev_mA_Cal_Set>:
	}
}
*/

void Func_Dev_mA_Cal_Set(void)
{
    358c:	0f 93       	push	r16
    358e:	1f 93       	push	r17
	sprintf(lcd1_buf,"[mA Calibration]");
    3590:	82 e0       	ldi	r24, 0x02	; 2
    3592:	9a e0       	ldi	r25, 0x0A	; 10
    3594:	63 ee       	ldi	r22, 0xE3	; 227
    3596:	72 e0       	ldi	r23, 0x02	; 2
    3598:	0e 94 99 3d 	call	0x7b32	; 0x7b32 <strcpy>
	LCD_Display(LCDADD_LINE1_0, lcd1_buf);
    359c:	80 e0       	ldi	r24, 0x00	; 0
    359e:	62 e0       	ldi	r22, 0x02	; 2
    35a0:	7a e0       	ldi	r23, 0x0A	; 10
    35a2:	0e 94 e2 0e 	call	0x1dc4	; 0x1dc4 <LCD_Display>
	
	switch(key_func_select_flag){
    35a6:	80 91 3a 0a 	lds	r24, 0x0A3A
    35aa:	81 30       	cpi	r24, 0x01	; 1
    35ac:	d9 f1       	breq	.+118    	; 0x3624 <Func_Dev_mA_Cal_Set+0x98>
    35ae:	81 30       	cpi	r24, 0x01	; 1
    35b0:	20 f0       	brcs	.+8      	; 0x35ba <Func_Dev_mA_Cal_Set+0x2e>
    35b2:	82 30       	cpi	r24, 0x02	; 2
    35b4:	09 f0       	breq	.+2      	; 0x35b8 <Func_Dev_mA_Cal_Set+0x2c>
    35b6:	82 c0       	rjmp	.+260    	; 0x36bc <Func_Dev_mA_Cal_Set+0x130>
    35b8:	6b c0       	rjmp	.+214    	; 0x3690 <Func_Dev_mA_Cal_Set+0x104>
		case 0:
			//sprintf(lcd2_buf,"04mA : [ %04.0f ]", fADBuf[0]);
			sprintf(lcd2_buf,"04mA : [%02d.%02d]", ((Det_Analog_Data) / 100), ((Det_Analog_Data) % 100) );
    35ba:	20 91 a1 09 	lds	r18, 0x09A1
    35be:	30 91 a2 09 	lds	r19, 0x09A2
    35c2:	8d b7       	in	r24, 0x3d	; 61
    35c4:	9e b7       	in	r25, 0x3e	; 62
    35c6:	08 97       	sbiw	r24, 0x08	; 8
    35c8:	0f b6       	in	r0, 0x3f	; 63
    35ca:	f8 94       	cli
    35cc:	9e bf       	out	0x3e, r25	; 62
    35ce:	0f be       	out	0x3f, r0	; 63
    35d0:	8d bf       	out	0x3d, r24	; 61
    35d2:	ed b7       	in	r30, 0x3d	; 61
    35d4:	fe b7       	in	r31, 0x3e	; 62
    35d6:	31 96       	adiw	r30, 0x01	; 1
    35d8:	02 e1       	ldi	r16, 0x12	; 18
    35da:	1a e0       	ldi	r17, 0x0A	; 10
    35dc:	ad b7       	in	r26, 0x3d	; 61
    35de:	be b7       	in	r27, 0x3e	; 62
    35e0:	12 96       	adiw	r26, 0x02	; 2
    35e2:	1c 93       	st	X, r17
    35e4:	0e 93       	st	-X, r16
    35e6:	11 97       	sbiw	r26, 0x01	; 1
    35e8:	84 ef       	ldi	r24, 0xF4	; 244
    35ea:	92 e0       	ldi	r25, 0x02	; 2
    35ec:	93 83       	std	Z+3, r25	; 0x03
    35ee:	82 83       	std	Z+2, r24	; 0x02
    35f0:	c9 01       	movw	r24, r18
    35f2:	64 e6       	ldi	r22, 0x64	; 100
    35f4:	70 e0       	ldi	r23, 0x00	; 0
    35f6:	0e 94 4e 3d 	call	0x7a9c	; 0x7a9c <__udivmodhi4>
    35fa:	75 83       	std	Z+5, r23	; 0x05
    35fc:	64 83       	std	Z+4, r22	; 0x04
    35fe:	c9 01       	movw	r24, r18
    3600:	64 e6       	ldi	r22, 0x64	; 100
    3602:	70 e0       	ldi	r23, 0x00	; 0
    3604:	0e 94 4e 3d 	call	0x7a9c	; 0x7a9c <__udivmodhi4>
    3608:	97 83       	std	Z+7, r25	; 0x07
    360a:	86 83       	std	Z+6, r24	; 0x06
    360c:	0e 94 ee 3d 	call	0x7bdc	; 0x7bdc <sprintf>
			LCD_Display(LCDADD_LINE2_1, lcd2_buf);
    3610:	8d b7       	in	r24, 0x3d	; 61
    3612:	9e b7       	in	r25, 0x3e	; 62
    3614:	08 96       	adiw	r24, 0x08	; 8
    3616:	0f b6       	in	r0, 0x3f	; 63
    3618:	f8 94       	cli
    361a:	9e bf       	out	0x3e, r25	; 62
    361c:	0f be       	out	0x3f, r0	; 63
    361e:	8d bf       	out	0x3d, r24	; 61
    3620:	81 e4       	ldi	r24, 0x41	; 65
    3622:	32 c0       	rjmp	.+100    	; 0x3688 <Func_Dev_mA_Cal_Set+0xfc>
			break;
		case 1:
			//sprintf(lcd3_buf,"20mA : [ %04.0f ]", fADBuf[0]);
			sprintf(lcd3_buf,"20mA : [%02d.%02d]", ((Det_Analog_Data) / 100), ((Det_Analog_Data) % 100) );
    3624:	20 91 a1 09 	lds	r18, 0x09A1
    3628:	30 91 a2 09 	lds	r19, 0x09A2
    362c:	ad b7       	in	r26, 0x3d	; 61
    362e:	be b7       	in	r27, 0x3e	; 62
    3630:	18 97       	sbiw	r26, 0x08	; 8
    3632:	0f b6       	in	r0, 0x3f	; 63
    3634:	f8 94       	cli
    3636:	be bf       	out	0x3e, r27	; 62
    3638:	0f be       	out	0x3f, r0	; 63
    363a:	ad bf       	out	0x3d, r26	; 61
    363c:	ed b7       	in	r30, 0x3d	; 61
    363e:	fe b7       	in	r31, 0x3e	; 62
    3640:	31 96       	adiw	r30, 0x01	; 1
    3642:	04 e2       	ldi	r16, 0x24	; 36
    3644:	1a e0       	ldi	r17, 0x0A	; 10
    3646:	12 96       	adiw	r26, 0x02	; 2
    3648:	1c 93       	st	X, r17
    364a:	0e 93       	st	-X, r16
    364c:	11 97       	sbiw	r26, 0x01	; 1
    364e:	87 e0       	ldi	r24, 0x07	; 7
    3650:	93 e0       	ldi	r25, 0x03	; 3
    3652:	93 83       	std	Z+3, r25	; 0x03
    3654:	82 83       	std	Z+2, r24	; 0x02
    3656:	c9 01       	movw	r24, r18
    3658:	64 e6       	ldi	r22, 0x64	; 100
    365a:	70 e0       	ldi	r23, 0x00	; 0
    365c:	0e 94 4e 3d 	call	0x7a9c	; 0x7a9c <__udivmodhi4>
    3660:	75 83       	std	Z+5, r23	; 0x05
    3662:	64 83       	std	Z+4, r22	; 0x04
    3664:	c9 01       	movw	r24, r18
    3666:	64 e6       	ldi	r22, 0x64	; 100
    3668:	70 e0       	ldi	r23, 0x00	; 0
    366a:	0e 94 4e 3d 	call	0x7a9c	; 0x7a9c <__udivmodhi4>
    366e:	97 83       	std	Z+7, r25	; 0x07
    3670:	86 83       	std	Z+6, r24	; 0x06
    3672:	0e 94 ee 3d 	call	0x7bdc	; 0x7bdc <sprintf>
			LCD_Display(LCDADD_LINE3_1, lcd3_buf);
    3676:	8d b7       	in	r24, 0x3d	; 61
    3678:	9e b7       	in	r25, 0x3e	; 62
    367a:	08 96       	adiw	r24, 0x08	; 8
    367c:	0f b6       	in	r0, 0x3f	; 63
    367e:	f8 94       	cli
    3680:	9e bf       	out	0x3e, r25	; 62
    3682:	0f be       	out	0x3f, r0	; 63
    3684:	8d bf       	out	0x3d, r24	; 61
    3686:	81 e1       	ldi	r24, 0x11	; 17
    3688:	b8 01       	movw	r22, r16
    368a:	0e 94 e2 0e 	call	0x1dc4	; 0x1dc4 <LCD_Display>
    368e:	16 c0       	rjmp	.+44     	; 0x36bc <Func_Dev_mA_Cal_Set+0x130>
			break;
		case 2:	
			sprintf(lcd4_buf,"[ Complete ]");
    3690:	82 ef       	ldi	r24, 0xF2	; 242
    3692:	99 e0       	ldi	r25, 0x09	; 9
    3694:	6a e1       	ldi	r22, 0x1A	; 26
    3696:	73 e0       	ldi	r23, 0x03	; 3
    3698:	0e 94 99 3d 	call	0x7b32	; 0x7b32 <strcpy>
			LCD_Display(LCDADD_LINE4_2, lcd4_buf);
    369c:	82 e5       	ldi	r24, 0x52	; 82
    369e:	62 ef       	ldi	r22, 0xF2	; 242
    36a0:	79 e0       	ldi	r23, 0x09	; 9
    36a2:	0e 94 e2 0e 	call	0x1dc4	; 0x1dc4 <LCD_Display>
			sTimerTick[TMR_NORMAL_RETURN] = NORMAL_RETURN_CNT;
    36a6:	8e e1       	ldi	r24, 0x1E	; 30
    36a8:	90 e0       	ldi	r25, 0x00	; 0
    36aa:	90 93 18 0f 	sts	0x0F18, r25
    36ae:	80 93 17 0f 	sts	0x0F17, r24
			key_func_select_flag++;
    36b2:	80 91 3a 0a 	lds	r24, 0x0A3A
    36b6:	8f 5f       	subi	r24, 0xFF	; 255
    36b8:	80 93 3a 0a 	sts	0x0A3A, r24
			break;
		case 3:
			break;
	}
}
    36bc:	1f 91       	pop	r17
    36be:	0f 91       	pop	r16
    36c0:	08 95       	ret

000036c2 <Func_Warm_Up>:
	}
	mmi_mode_old = mmi_mode;
}

void Func_Warm_Up(void)
{
    36c2:	0f 93       	push	r16
    36c4:	1f 93       	push	r17
	sprintf(lcd1_buf,"[   GTJ-1000F  ]");
    36c6:	82 e0       	ldi	r24, 0x02	; 2
    36c8:	9a e0       	ldi	r25, 0x0A	; 10
    36ca:	67 e2       	ldi	r22, 0x27	; 39
    36cc:	73 e0       	ldi	r23, 0x03	; 3
    36ce:	0e 94 99 3d 	call	0x7b32	; 0x7b32 <strcpy>
	LCD_Display(LCDADD_LINE1_0, lcd1_buf);
    36d2:	80 e0       	ldi	r24, 0x00	; 0
    36d4:	62 e0       	ldi	r22, 0x02	; 2
    36d6:	7a e0       	ldi	r23, 0x0A	; 10
    36d8:	0e 94 e2 0e 	call	0x1dc4	; 0x1dc4 <LCD_Display>
	sprintf(lcd2_buf,"[   Ver %d.%02d   ]",_FW_VERSION_MA, _FW_VERSION_MI);
    36dc:	8d b7       	in	r24, 0x3d	; 61
    36de:	9e b7       	in	r25, 0x3e	; 62
    36e0:	08 97       	sbiw	r24, 0x08	; 8
    36e2:	0f b6       	in	r0, 0x3f	; 63
    36e4:	f8 94       	cli
    36e6:	9e bf       	out	0x3e, r25	; 62
    36e8:	0f be       	out	0x3f, r0	; 63
    36ea:	8d bf       	out	0x3d, r24	; 61
    36ec:	ed b7       	in	r30, 0x3d	; 61
    36ee:	fe b7       	in	r31, 0x3e	; 62
    36f0:	31 96       	adiw	r30, 0x01	; 1
    36f2:	02 e1       	ldi	r16, 0x12	; 18
    36f4:	1a e0       	ldi	r17, 0x0A	; 10
    36f6:	ad b7       	in	r26, 0x3d	; 61
    36f8:	be b7       	in	r27, 0x3e	; 62
    36fa:	12 96       	adiw	r26, 0x02	; 2
    36fc:	1c 93       	st	X, r17
    36fe:	0e 93       	st	-X, r16
    3700:	11 97       	sbiw	r26, 0x01	; 1
    3702:	88 e3       	ldi	r24, 0x38	; 56
    3704:	93 e0       	ldi	r25, 0x03	; 3
    3706:	93 83       	std	Z+3, r25	; 0x03
    3708:	82 83       	std	Z+2, r24	; 0x02
    370a:	15 82       	std	Z+5, r1	; 0x05
    370c:	14 82       	std	Z+4, r1	; 0x04
    370e:	87 e0       	ldi	r24, 0x07	; 7
    3710:	90 e0       	ldi	r25, 0x00	; 0
    3712:	97 83       	std	Z+7, r25	; 0x07
    3714:	86 83       	std	Z+6, r24	; 0x06
    3716:	0e 94 ee 3d 	call	0x7bdc	; 0x7bdc <sprintf>
	LCD_Display(LCDADD_LINE2_0, lcd2_buf);
    371a:	8d b7       	in	r24, 0x3d	; 61
    371c:	9e b7       	in	r25, 0x3e	; 62
    371e:	08 96       	adiw	r24, 0x08	; 8
    3720:	0f b6       	in	r0, 0x3f	; 63
    3722:	f8 94       	cli
    3724:	9e bf       	out	0x3e, r25	; 62
    3726:	0f be       	out	0x3f, r0	; 63
    3728:	8d bf       	out	0x3d, r24	; 61
    372a:	80 e4       	ldi	r24, 0x40	; 64
    372c:	b8 01       	movw	r22, r16
    372e:	0e 94 e2 0e 	call	0x1dc4	; 0x1dc4 <LCD_Display>
	sprintf(lcd3_buf,"[ %02d ]", sTimerTick[TMR_SELFTEST]);
    3732:	00 d0       	rcall	.+0      	; 0x3734 <Func_Warm_Up+0x72>
    3734:	00 d0       	rcall	.+0      	; 0x3736 <Func_Warm_Up+0x74>
    3736:	ed b7       	in	r30, 0x3d	; 61
    3738:	fe b7       	in	r31, 0x3e	; 62
    373a:	31 96       	adiw	r30, 0x01	; 1
    373c:	04 e2       	ldi	r16, 0x24	; 36
    373e:	1a e0       	ldi	r17, 0x0A	; 10
    3740:	ad b7       	in	r26, 0x3d	; 61
    3742:	be b7       	in	r27, 0x3e	; 62
    3744:	12 96       	adiw	r26, 0x02	; 2
    3746:	1c 93       	st	X, r17
    3748:	0e 93       	st	-X, r16
    374a:	11 97       	sbiw	r26, 0x01	; 1
    374c:	8c e4       	ldi	r24, 0x4C	; 76
    374e:	93 e0       	ldi	r25, 0x03	; 3
    3750:	93 83       	std	Z+3, r25	; 0x03
    3752:	82 83       	std	Z+2, r24	; 0x02
    3754:	80 91 15 0f 	lds	r24, 0x0F15
    3758:	90 91 16 0f 	lds	r25, 0x0F16
    375c:	95 83       	std	Z+5, r25	; 0x05
    375e:	84 83       	std	Z+4, r24	; 0x04
    3760:	0e 94 ee 3d 	call	0x7bdc	; 0x7bdc <sprintf>
	LCD_Display(LCDADD_LINE3_5, lcd3_buf);
    3764:	8d b7       	in	r24, 0x3d	; 61
    3766:	9e b7       	in	r25, 0x3e	; 62
    3768:	06 96       	adiw	r24, 0x06	; 6
    376a:	0f b6       	in	r0, 0x3f	; 63
    376c:	f8 94       	cli
    376e:	9e bf       	out	0x3e, r25	; 62
    3770:	0f be       	out	0x3f, r0	; 63
    3772:	8d bf       	out	0x3d, r24	; 61
    3774:	85 e1       	ldi	r24, 0x15	; 21
    3776:	b8 01       	movw	r22, r16
    3778:	0e 94 e2 0e 	call	0x1dc4	; 0x1dc4 <LCD_Display>
	
	if(sTimerTick[TMR_SELFTEST] == 0){
    377c:	80 91 15 0f 	lds	r24, 0x0F15
    3780:	90 91 16 0f 	lds	r25, 0x0F16
    3784:	89 2b       	or	r24, r25
    3786:	11 f4       	brne	.+4      	; 0x378c <Func_Warm_Up+0xca>
		Mode_Select();
    3788:	0e 94 57 17 	call	0x2eae	; 0x2eae <Mode_Select>
	}
}
    378c:	1f 91       	pop	r17
    378e:	0f 91       	pop	r16
    3790:	08 95       	ret

00003792 <Func_Dev_Configration>:
	sprintf(lcd3_buf,"3.Function Set");
	LCD_Display(LCDADD_LINE3_1, lcd3_buf);
}

void Func_Dev_Configration(void)
{
    3792:	0f 93       	push	r16
    3794:	1f 93       	push	r17
	LCD_Display_Select_Cursor();
    3796:	0e 94 54 0f 	call	0x1ea8	; 0x1ea8 <LCD_Display_Select_Cursor>
		
	sprintf(lcd1_buf,"1.Dev mA Cal");
    379a:	02 e0       	ldi	r16, 0x02	; 2
    379c:	1a e0       	ldi	r17, 0x0A	; 10
    379e:	c8 01       	movw	r24, r16
    37a0:	65 e5       	ldi	r22, 0x55	; 85
    37a2:	73 e0       	ldi	r23, 0x03	; 3
    37a4:	0e 94 99 3d 	call	0x7b32	; 0x7b32 <strcpy>
	LCD_Display(LCDADD_LINE1_1, lcd1_buf);
    37a8:	81 e0       	ldi	r24, 0x01	; 1
    37aa:	b8 01       	movw	r22, r16
    37ac:	0e 94 e2 0e 	call	0x1dc4	; 0x1dc4 <LCD_Display>
	
	sprintf(lcd2_buf,"2.Dev Mode Set");
    37b0:	02 e1       	ldi	r16, 0x12	; 18
    37b2:	1a e0       	ldi	r17, 0x0A	; 10
    37b4:	c8 01       	movw	r24, r16
    37b6:	62 e6       	ldi	r22, 0x62	; 98
    37b8:	73 e0       	ldi	r23, 0x03	; 3
    37ba:	0e 94 99 3d 	call	0x7b32	; 0x7b32 <strcpy>
	LCD_Display(LCDADD_LINE2_1, lcd2_buf);
    37be:	81 e4       	ldi	r24, 0x41	; 65
    37c0:	b8 01       	movw	r22, r16
    37c2:	0e 94 e2 0e 	call	0x1dc4	; 0x1dc4 <LCD_Display>
}
    37c6:	1f 91       	pop	r17
    37c8:	0f 91       	pop	r16
    37ca:	08 95       	ret

000037cc <Func_Det_Configration>:
	sprintf(lcd3_buf,"3.Address Set");
	LCD_Display(LCDADD_LINE3_1, lcd3_buf);
}

void Func_Det_Configration(void)
{
    37cc:	0f 93       	push	r16
    37ce:	1f 93       	push	r17
	LCD_Display_Select_Cursor();
    37d0:	0e 94 54 0f 	call	0x1ea8	; 0x1ea8 <LCD_Display_Select_Cursor>
		
	sprintf(lcd1_buf,"1.IR Respons");
    37d4:	02 e0       	ldi	r16, 0x02	; 2
    37d6:	1a e0       	ldi	r17, 0x0A	; 10
    37d8:	c8 01       	movw	r24, r16
    37da:	61 e7       	ldi	r22, 0x71	; 113
    37dc:	73 e0       	ldi	r23, 0x03	; 3
    37de:	0e 94 99 3d 	call	0x7b32	; 0x7b32 <strcpy>
	LCD_Display(LCDADD_LINE1_1, lcd1_buf);
    37e2:	81 e0       	ldi	r24, 0x01	; 1
    37e4:	b8 01       	movw	r22, r16
    37e6:	0e 94 e2 0e 	call	0x1dc4	; 0x1dc4 <LCD_Display>
	
	sprintf(lcd2_buf,"2.Relay Set");
    37ea:	02 e1       	ldi	r16, 0x12	; 18
    37ec:	1a e0       	ldi	r17, 0x0A	; 10
    37ee:	c8 01       	movw	r24, r16
    37f0:	6e e7       	ldi	r22, 0x7E	; 126
    37f2:	73 e0       	ldi	r23, 0x03	; 3
    37f4:	0e 94 99 3d 	call	0x7b32	; 0x7b32 <strcpy>
	LCD_Display(LCDADD_LINE2_1, lcd2_buf);
    37f8:	81 e4       	ldi	r24, 0x41	; 65
    37fa:	b8 01       	movw	r22, r16
    37fc:	0e 94 e2 0e 	call	0x1dc4	; 0x1dc4 <LCD_Display>

	sprintf(lcd3_buf,"3.Function Set");
    3800:	04 e2       	ldi	r16, 0x24	; 36
    3802:	1a e0       	ldi	r17, 0x0A	; 10
    3804:	c8 01       	movw	r24, r16
    3806:	6a e8       	ldi	r22, 0x8A	; 138
    3808:	73 e0       	ldi	r23, 0x03	; 3
    380a:	0e 94 99 3d 	call	0x7b32	; 0x7b32 <strcpy>
	LCD_Display(LCDADD_LINE3_1, lcd3_buf);
    380e:	81 e1       	ldi	r24, 0x11	; 17
    3810:	b8 01       	movw	r22, r16
    3812:	0e 94 e2 0e 	call	0x1dc4	; 0x1dc4 <LCD_Display>
}
    3816:	1f 91       	pop	r17
    3818:	0f 91       	pop	r16
    381a:	08 95       	ret

0000381c <Func_Configration>:
#endif
	}
}

void Func_Configration(void)
{
    381c:	0f 93       	push	r16
    381e:	1f 93       	push	r17
	LCD_Display_Select_Cursor();
    3820:	0e 94 54 0f 	call	0x1ea8	; 0x1ea8 <LCD_Display_Select_Cursor>
		
	sprintf(lcd1_buf,"1.Detector Set");
    3824:	02 e0       	ldi	r16, 0x02	; 2
    3826:	1a e0       	ldi	r17, 0x0A	; 10
    3828:	c8 01       	movw	r24, r16
    382a:	69 e9       	ldi	r22, 0x99	; 153
    382c:	73 e0       	ldi	r23, 0x03	; 3
    382e:	0e 94 99 3d 	call	0x7b32	; 0x7b32 <strcpy>
	LCD_Display(LCDADD_LINE1_1, lcd1_buf);
    3832:	81 e0       	ldi	r24, 0x01	; 1
    3834:	b8 01       	movw	r22, r16
    3836:	0e 94 e2 0e 	call	0x1dc4	; 0x1dc4 <LCD_Display>

	sprintf(lcd2_buf,"2.Device Set");
    383a:	02 e1       	ldi	r16, 0x12	; 18
    383c:	1a e0       	ldi	r17, 0x0A	; 10
    383e:	c8 01       	movw	r24, r16
    3840:	68 ea       	ldi	r22, 0xA8	; 168
    3842:	73 e0       	ldi	r23, 0x03	; 3
    3844:	0e 94 99 3d 	call	0x7b32	; 0x7b32 <strcpy>
	LCD_Display(LCDADD_LINE2_1, lcd2_buf);
    3848:	81 e4       	ldi	r24, 0x41	; 65
    384a:	b8 01       	movw	r22, r16
    384c:	0e 94 e2 0e 	call	0x1dc4	; 0x1dc4 <LCD_Display>

	sprintf(lcd3_buf,"3.Address Set");
    3850:	04 e2       	ldi	r16, 0x24	; 36
    3852:	1a e0       	ldi	r17, 0x0A	; 10
    3854:	c8 01       	movw	r24, r16
    3856:	65 eb       	ldi	r22, 0xB5	; 181
    3858:	73 e0       	ldi	r23, 0x03	; 3
    385a:	0e 94 99 3d 	call	0x7b32	; 0x7b32 <strcpy>
	LCD_Display(LCDADD_LINE3_1, lcd3_buf);
    385e:	81 e1       	ldi	r24, 0x11	; 17
    3860:	b8 01       	movw	r22, r16
    3862:	0e 94 e2 0e 	call	0x1dc4	; 0x1dc4 <LCD_Display>
}
    3866:	1f 91       	pop	r17
    3868:	0f 91       	pop	r16
    386a:	08 95       	ret

0000386c <Func_Det_Function_Set>:
}

void Func_Det_Function_Set(void)
{
U8	display_point = 7;
	LCD_Display_Select_Cursor();
    386c:	0e 94 54 0f 	call	0x1ea8	; 0x1ea8 <LCD_Display_Select_Cursor>

	sprintf(lcd1_buf,"1.BIT");
    3870:	82 e0       	ldi	r24, 0x02	; 2
    3872:	9a e0       	ldi	r25, 0x0A	; 10
    3874:	63 ec       	ldi	r22, 0xC3	; 195
    3876:	73 e0       	ldi	r23, 0x03	; 3
    3878:	0e 94 99 3d 	call	0x7b32	; 0x7b32 <strcpy>
	sprintf(lcd2_buf,"2.PWR");
    387c:	82 e1       	ldi	r24, 0x12	; 18
    387e:	9a e0       	ldi	r25, 0x0A	; 10
    3880:	69 ec       	ldi	r22, 0xC9	; 201
    3882:	73 e0       	ldi	r23, 0x03	; 3
    3884:	0e 94 99 3d 	call	0x7b32	; 0x7b32 <strcpy>
	sprintf(lcd3_buf,"3.LOG");
    3888:	84 e2       	ldi	r24, 0x24	; 36
    388a:	9a e0       	ldi	r25, 0x0A	; 10
    388c:	6f ec       	ldi	r22, 0xCF	; 207
    388e:	73 e0       	ldi	r23, 0x03	; 3
    3890:	0e 94 99 3d 	call	0x7b32	; 0x7b32 <strcpy>
	LCD_Display(LCDADD_LINE1_1, lcd1_buf);
    3894:	81 e0       	ldi	r24, 0x01	; 1
    3896:	62 e0       	ldi	r22, 0x02	; 2
    3898:	7a e0       	ldi	r23, 0x0A	; 10
    389a:	0e 94 e2 0e 	call	0x1dc4	; 0x1dc4 <LCD_Display>
	LCD_Display(LCDADD_LINE2_1, lcd2_buf);
    389e:	81 e4       	ldi	r24, 0x41	; 65
    38a0:	62 e1       	ldi	r22, 0x12	; 18
    38a2:	7a e0       	ldi	r23, 0x0A	; 10
    38a4:	0e 94 e2 0e 	call	0x1dc4	; 0x1dc4 <LCD_Display>
	LCD_Display(LCDADD_LINE3_1, lcd3_buf);
    38a8:	81 e1       	ldi	r24, 0x11	; 17
    38aa:	64 e2       	ldi	r22, 0x24	; 36
    38ac:	7a e0       	ldi	r23, 0x0A	; 10
    38ae:	0e 94 e2 0e 	call	0x1dc4	; 0x1dc4 <LCD_Display>

	if(sTimerFlag[TMR_250MS]){
    38b2:	80 91 33 0f 	lds	r24, 0x0F33
    38b6:	90 91 34 0f 	lds	r25, 0x0F34
    38ba:	89 2b       	or	r24, r25
    38bc:	09 f4       	brne	.+2      	; 0x38c0 <Func_Det_Function_Set+0x54>
    38be:	82 c0       	rjmp	.+260    	; 0x39c4 <Func_Det_Function_Set+0x158>
		if(key_func_select_flag){
    38c0:	80 91 3a 0a 	lds	r24, 0x0A3A
    38c4:	88 23       	and	r24, r24
    38c6:	89 f1       	breq	.+98     	; 0x392a <Func_Det_Function_Set+0xbe>
			if(mmi_tmp[line_1]){
    38c8:	80 91 41 0a 	lds	r24, 0x0A41
    38cc:	90 91 42 0a 	lds	r25, 0x0A42
    38d0:	89 2b       	or	r24, r25
    38d2:	29 f0       	breq	.+10     	; 0x38de <Func_Det_Function_Set+0x72>
				sprintf(lcd1_buf+display_point,"[ AUTO ]");
    38d4:	89 e0       	ldi	r24, 0x09	; 9
    38d6:	9a e0       	ldi	r25, 0x0A	; 10
    38d8:	65 ed       	ldi	r22, 0xD5	; 213
    38da:	73 e0       	ldi	r23, 0x03	; 3
    38dc:	04 c0       	rjmp	.+8      	; 0x38e6 <Func_Det_Function_Set+0x7a>
			}
			else{
				sprintf(lcd1_buf+display_point,"[MANUAL]");
    38de:	89 e0       	ldi	r24, 0x09	; 9
    38e0:	9a e0       	ldi	r25, 0x0A	; 10
    38e2:	6e ed       	ldi	r22, 0xDE	; 222
    38e4:	73 e0       	ldi	r23, 0x03	; 3
    38e6:	0e 94 99 3d 	call	0x7b32	; 0x7b32 <strcpy>
			}
			
			if(mmi_tmp[line_2]){
    38ea:	80 91 43 0a 	lds	r24, 0x0A43
    38ee:	90 91 44 0a 	lds	r25, 0x0A44
    38f2:	89 2b       	or	r24, r25
    38f4:	29 f0       	breq	.+10     	; 0x3900 <Func_Det_Function_Set+0x94>
				sprintf(lcd2_buf+display_point,"[ AUTO ]");
    38f6:	89 e1       	ldi	r24, 0x19	; 25
    38f8:	9a e0       	ldi	r25, 0x0A	; 10
    38fa:	65 ed       	ldi	r22, 0xD5	; 213
    38fc:	73 e0       	ldi	r23, 0x03	; 3
    38fe:	04 c0       	rjmp	.+8      	; 0x3908 <Func_Det_Function_Set+0x9c>
			}
			else{
				sprintf(lcd2_buf+display_point,"[MANUAL]");
    3900:	89 e1       	ldi	r24, 0x19	; 25
    3902:	9a e0       	ldi	r25, 0x0A	; 10
    3904:	6e ed       	ldi	r22, 0xDE	; 222
    3906:	73 e0       	ldi	r23, 0x03	; 3
    3908:	0e 94 99 3d 	call	0x7b32	; 0x7b32 <strcpy>
			}

			if(!mmi_tmp[line_3]){
    390c:	80 91 45 0a 	lds	r24, 0x0A45
    3910:	90 91 46 0a 	lds	r25, 0x0A46
    3914:	00 97       	sbiw	r24, 0x00	; 0
    3916:	59 f1       	breq	.+86     	; 0x396e <Func_Det_Function_Set+0x102>
				sprintf(lcd3_buf+display_point,"[ NO   ]");
			}
			else if(mmi_tmp[line_3] == 1){
    3918:	81 30       	cpi	r24, 0x01	; 1
    391a:	91 05       	cpc	r25, r1
    391c:	79 f1       	breq	.+94     	; 0x397c <Func_Det_Function_Set+0x110>
				sprintf(lcd3_buf+display_point,"[ SCOPE]");
			}
			else if(mmi_tmp[line_3] == 2){
    391e:	82 30       	cpi	r24, 0x02	; 2
    3920:	91 05       	cpc	r25, r1
    3922:	99 f1       	breq	.+102    	; 0x398a <Func_Det_Function_Set+0x11e>
				sprintf(lcd3_buf+display_point,"[ RAW  ]");
			}
			else if(mmi_tmp[line_3] == 3){
    3924:	03 97       	sbiw	r24, 0x03	; 3
    3926:	f1 f5       	brne	.+124    	; 0x39a4 <Func_Det_Function_Set+0x138>
    3928:	37 c0       	rjmp	.+110    	; 0x3998 <Func_Det_Function_Set+0x12c>
				sprintf(lcd3_buf+display_point,"[ CAL  ]");
			}
		}
		else{
			if(bit_operation){
    392a:	80 91 b0 0a 	lds	r24, 0x0AB0
    392e:	88 23       	and	r24, r24
    3930:	29 f0       	breq	.+10     	; 0x393c <Func_Det_Function_Set+0xd0>
				sprintf(lcd1_buf+display_point,"[ AUTO ]");
    3932:	89 e0       	ldi	r24, 0x09	; 9
    3934:	9a e0       	ldi	r25, 0x0A	; 10
    3936:	65 ed       	ldi	r22, 0xD5	; 213
    3938:	73 e0       	ldi	r23, 0x03	; 3
    393a:	04 c0       	rjmp	.+8      	; 0x3944 <Func_Det_Function_Set+0xd8>
			}
			else{
				sprintf(lcd1_buf+display_point,"[MANUAL]");
    393c:	89 e0       	ldi	r24, 0x09	; 9
    393e:	9a e0       	ldi	r25, 0x0A	; 10
    3940:	6e ed       	ldi	r22, 0xDE	; 222
    3942:	73 e0       	ldi	r23, 0x03	; 3
    3944:	0e 94 99 3d 	call	0x7b32	; 0x7b32 <strcpy>
			}
			
			if(det_pwr_ctr_value){
    3948:	80 91 80 0a 	lds	r24, 0x0A80
    394c:	88 23       	and	r24, r24
    394e:	29 f0       	breq	.+10     	; 0x395a <Func_Det_Function_Set+0xee>
				sprintf(lcd2_buf+display_point,"[ AUTO ]");
    3950:	89 e1       	ldi	r24, 0x19	; 25
    3952:	9a e0       	ldi	r25, 0x0A	; 10
    3954:	65 ed       	ldi	r22, 0xD5	; 213
    3956:	73 e0       	ldi	r23, 0x03	; 3
    3958:	04 c0       	rjmp	.+8      	; 0x3962 <Func_Det_Function_Set+0xf6>
			}
			else{
				sprintf(lcd2_buf+display_point,"[MANUAL]");
    395a:	89 e1       	ldi	r24, 0x19	; 25
    395c:	9a e0       	ldi	r25, 0x0A	; 10
    395e:	6e ed       	ldi	r22, 0xDE	; 222
    3960:	73 e0       	ldi	r23, 0x03	; 3
    3962:	0e 94 99 3d 	call	0x7b32	; 0x7b32 <strcpy>
			}

			if(!det_log_mode_value){
    3966:	80 91 f6 0a 	lds	r24, 0x0AF6
    396a:	88 23       	and	r24, r24
    396c:	29 f4       	brne	.+10     	; 0x3978 <Func_Det_Function_Set+0x10c>
				sprintf(lcd3_buf+display_point,"[ NO   ]");
    396e:	8b e2       	ldi	r24, 0x2B	; 43
    3970:	9a e0       	ldi	r25, 0x0A	; 10
    3972:	67 ee       	ldi	r22, 0xE7	; 231
    3974:	73 e0       	ldi	r23, 0x03	; 3
    3976:	14 c0       	rjmp	.+40     	; 0x39a0 <Func_Det_Function_Set+0x134>
			}
			else if(det_log_mode_value == 1){
    3978:	81 30       	cpi	r24, 0x01	; 1
    397a:	29 f4       	brne	.+10     	; 0x3986 <Func_Det_Function_Set+0x11a>
				sprintf(lcd3_buf+display_point,"[ SCOPE]");
    397c:	8b e2       	ldi	r24, 0x2B	; 43
    397e:	9a e0       	ldi	r25, 0x0A	; 10
    3980:	60 ef       	ldi	r22, 0xF0	; 240
    3982:	73 e0       	ldi	r23, 0x03	; 3
    3984:	0d c0       	rjmp	.+26     	; 0x39a0 <Func_Det_Function_Set+0x134>
			}
			else if(det_log_mode_value == 2){
    3986:	82 30       	cpi	r24, 0x02	; 2
    3988:	29 f4       	brne	.+10     	; 0x3994 <Func_Det_Function_Set+0x128>
				sprintf(lcd3_buf+display_point,"[ RAW  ]");
    398a:	8b e2       	ldi	r24, 0x2B	; 43
    398c:	9a e0       	ldi	r25, 0x0A	; 10
    398e:	69 ef       	ldi	r22, 0xF9	; 249
    3990:	73 e0       	ldi	r23, 0x03	; 3
    3992:	06 c0       	rjmp	.+12     	; 0x39a0 <Func_Det_Function_Set+0x134>
			}
			else if(det_log_mode_value == 3){
    3994:	83 30       	cpi	r24, 0x03	; 3
    3996:	31 f4       	brne	.+12     	; 0x39a4 <Func_Det_Function_Set+0x138>
				sprintf(lcd3_buf+display_point,"[ CAL  ]");
    3998:	8b e2       	ldi	r24, 0x2B	; 43
    399a:	9a e0       	ldi	r25, 0x0A	; 10
    399c:	62 e0       	ldi	r22, 0x02	; 2
    399e:	74 e0       	ldi	r23, 0x04	; 4
    39a0:	0e 94 99 3d 	call	0x7b32	; 0x7b32 <strcpy>
			}
		}
		LCD_PartDis(LCDADD_LINE1_1+display_point, (U8*)(lcd1_buf+display_point),8);
    39a4:	88 e0       	ldi	r24, 0x08	; 8
    39a6:	69 e0       	ldi	r22, 0x09	; 9
    39a8:	7a e0       	ldi	r23, 0x0A	; 10
    39aa:	48 e0       	ldi	r20, 0x08	; 8
    39ac:	0e 94 c6 0e 	call	0x1d8c	; 0x1d8c <LCD_PartDis>
		LCD_PartDis(LCDADD_LINE2_1+display_point, (U8*)(lcd2_buf+display_point),8);
    39b0:	88 e4       	ldi	r24, 0x48	; 72
    39b2:	69 e1       	ldi	r22, 0x19	; 25
    39b4:	7a e0       	ldi	r23, 0x0A	; 10
    39b6:	48 e0       	ldi	r20, 0x08	; 8
    39b8:	0e 94 c6 0e 	call	0x1d8c	; 0x1d8c <LCD_PartDis>
		LCD_PartDis(LCDADD_LINE3_1+display_point, (U8*)(lcd3_buf+display_point),8);
    39bc:	88 e1       	ldi	r24, 0x18	; 24
    39be:	6b e2       	ldi	r22, 0x2B	; 43
    39c0:	7a e0       	ldi	r23, 0x0A	; 10
    39c2:	1c c0       	rjmp	.+56     	; 0x39fc <Func_Det_Function_Set+0x190>
	}
	else{
		switch(setting_mode_cursor){
    39c4:	80 91 35 0a 	lds	r24, 0x0A35
    39c8:	81 30       	cpi	r24, 0x01	; 1
    39ca:	79 f0       	breq	.+30     	; 0x39ea <Func_Det_Function_Set+0x17e>
    39cc:	81 30       	cpi	r24, 0x01	; 1
    39ce:	18 f0       	brcs	.+6      	; 0x39d6 <Func_Det_Function_Set+0x16a>
    39d0:	82 30       	cpi	r24, 0x02	; 2
    39d2:	21 f5       	brne	.+72     	; 0x3a1c <Func_Det_Function_Set+0x1b0>
    39d4:	17 c0       	rjmp	.+46     	; 0x3a04 <Func_Det_Function_Set+0x198>
			case line_1:
				sprintf(lcd1_buf+display_point,"[      ]");
    39d6:	89 e0       	ldi	r24, 0x09	; 9
    39d8:	9a e0       	ldi	r25, 0x0A	; 10
    39da:	6b e0       	ldi	r22, 0x0B	; 11
    39dc:	74 e0       	ldi	r23, 0x04	; 4
    39de:	0e 94 99 3d 	call	0x7b32	; 0x7b32 <strcpy>
				LCD_PartDis(LCDADD_LINE1_1+display_point, (U8*)(lcd1_buf+display_point),8);
    39e2:	88 e0       	ldi	r24, 0x08	; 8
    39e4:	69 e0       	ldi	r22, 0x09	; 9
    39e6:	7a e0       	ldi	r23, 0x0A	; 10
    39e8:	09 c0       	rjmp	.+18     	; 0x39fc <Func_Det_Function_Set+0x190>
				break;
			case line_2:
				sprintf(lcd2_buf+display_point,"[      ]");
    39ea:	89 e1       	ldi	r24, 0x19	; 25
    39ec:	9a e0       	ldi	r25, 0x0A	; 10
    39ee:	6b e0       	ldi	r22, 0x0B	; 11
    39f0:	74 e0       	ldi	r23, 0x04	; 4
    39f2:	0e 94 99 3d 	call	0x7b32	; 0x7b32 <strcpy>
				LCD_PartDis(LCDADD_LINE2_1+display_point, (U8*)(lcd2_buf+display_point),8);
    39f6:	88 e4       	ldi	r24, 0x48	; 72
    39f8:	69 e1       	ldi	r22, 0x19	; 25
    39fa:	7a e0       	ldi	r23, 0x0A	; 10
    39fc:	48 e0       	ldi	r20, 0x08	; 8
    39fe:	0e 94 c6 0e 	call	0x1d8c	; 0x1d8c <LCD_PartDis>
    3a02:	08 95       	ret
				break;
			case line_3:
				sprintf(lcd3_buf+display_point,"[      ]");
    3a04:	8b e2       	ldi	r24, 0x2B	; 43
    3a06:	9a e0       	ldi	r25, 0x0A	; 10
    3a08:	6b e0       	ldi	r22, 0x0B	; 11
    3a0a:	74 e0       	ldi	r23, 0x04	; 4
    3a0c:	0e 94 99 3d 	call	0x7b32	; 0x7b32 <strcpy>
				LCD_PartDis(LCDADD_LINE3_1+display_point, (U8*)(lcd3_buf+display_point),8);
    3a10:	88 e1       	ldi	r24, 0x18	; 24
    3a12:	6b e2       	ldi	r22, 0x2B	; 43
    3a14:	7a e0       	ldi	r23, 0x0A	; 10
    3a16:	48 e0       	ldi	r20, 0x08	; 8
    3a18:	0e 94 c6 0e 	call	0x1d8c	; 0x1d8c <LCD_PartDis>
    3a1c:	08 95       	ret

00003a1e <Func_Det_IR_Responsivity_Set>:
}

void Func_Det_IR_Responsivity_Set(void)
{
U8	display_point;
	LCD_Display_Select_Cursor();
    3a1e:	0e 94 54 0f 	call	0x1ea8	; 0x1ea8 <LCD_Display_Select_Cursor>

	sprintf(lcd1_buf,"1.4.66um");
    3a22:	82 e0       	ldi	r24, 0x02	; 2
    3a24:	9a e0       	ldi	r25, 0x0A	; 10
    3a26:	64 e1       	ldi	r22, 0x14	; 20
    3a28:	74 e0       	ldi	r23, 0x04	; 4
    3a2a:	0e 94 99 3d 	call	0x7b32	; 0x7b32 <strcpy>
	sprintf(lcd2_buf,"2.3.95um");
    3a2e:	82 e1       	ldi	r24, 0x12	; 18
    3a30:	9a e0       	ldi	r25, 0x0A	; 10
    3a32:	6d e1       	ldi	r22, 0x1D	; 29
    3a34:	74 e0       	ldi	r23, 0x04	; 4
    3a36:	0e 94 99 3d 	call	0x7b32	; 0x7b32 <strcpy>
	sprintf(lcd3_buf,"3.5.30um");
    3a3a:	84 e2       	ldi	r24, 0x24	; 36
    3a3c:	9a e0       	ldi	r25, 0x0A	; 10
    3a3e:	66 e2       	ldi	r22, 0x26	; 38
    3a40:	74 e0       	ldi	r23, 0x04	; 4
    3a42:	0e 94 99 3d 	call	0x7b32	; 0x7b32 <strcpy>
	LCD_Display(LCDADD_LINE1_1, lcd1_buf);
    3a46:	81 e0       	ldi	r24, 0x01	; 1
    3a48:	62 e0       	ldi	r22, 0x02	; 2
    3a4a:	7a e0       	ldi	r23, 0x0A	; 10
    3a4c:	0e 94 e2 0e 	call	0x1dc4	; 0x1dc4 <LCD_Display>
	LCD_Display(LCDADD_LINE2_1, lcd2_buf);
    3a50:	81 e4       	ldi	r24, 0x41	; 65
    3a52:	62 e1       	ldi	r22, 0x12	; 18
    3a54:	7a e0       	ldi	r23, 0x0A	; 10
    3a56:	0e 94 e2 0e 	call	0x1dc4	; 0x1dc4 <LCD_Display>
	LCD_Display(LCDADD_LINE3_1, lcd3_buf);
    3a5a:	81 e1       	ldi	r24, 0x11	; 17
    3a5c:	64 e2       	ldi	r22, 0x24	; 36
    3a5e:	7a e0       	ldi	r23, 0x0A	; 10
    3a60:	0e 94 e2 0e 	call	0x1dc4	; 0x1dc4 <LCD_Display>

	display_point = 9;

	if(sTimerFlag[TMR_250MS]){
    3a64:	80 91 33 0f 	lds	r24, 0x0F33
    3a68:	90 91 34 0f 	lds	r25, 0x0F34
    3a6c:	89 2b       	or	r24, r25
    3a6e:	f1 f1       	breq	.+124    	; 0x3aec <Func_Det_IR_Responsivity_Set+0xce>
		if(key_func_select_flag){
    3a70:	80 91 3a 0a 	lds	r24, 0x0A3A
    3a74:	2b e0       	ldi	r18, 0x0B	; 11
    3a76:	3a e0       	ldi	r19, 0x0A	; 10
    3a78:	4f e2       	ldi	r20, 0x2F	; 47
    3a7a:	54 e0       	ldi	r21, 0x04	; 4
    3a7c:	88 23       	and	r24, r24
    3a7e:	91 f0       	breq	.+36     	; 0x3aa4 <Func_Det_IR_Responsivity_Set+0x86>
			sprintf(lcd1_buf+display_point,"[%04d]",mmi_tmp[line_1]);
    3a80:	00 d0       	rcall	.+0      	; 0x3a82 <Func_Det_IR_Responsivity_Set+0x64>
    3a82:	00 d0       	rcall	.+0      	; 0x3a84 <Func_Det_IR_Responsivity_Set+0x66>
    3a84:	ed b7       	in	r30, 0x3d	; 61
    3a86:	fe b7       	in	r31, 0x3e	; 62
    3a88:	31 96       	adiw	r30, 0x01	; 1
    3a8a:	ad b7       	in	r26, 0x3d	; 61
    3a8c:	be b7       	in	r27, 0x3e	; 62
    3a8e:	12 96       	adiw	r26, 0x02	; 2
    3a90:	3c 93       	st	X, r19
    3a92:	2e 93       	st	-X, r18
    3a94:	11 97       	sbiw	r26, 0x01	; 1
    3a96:	53 83       	std	Z+3, r21	; 0x03
    3a98:	42 83       	std	Z+2, r20	; 0x02
    3a9a:	80 91 41 0a 	lds	r24, 0x0A41
    3a9e:	90 91 42 0a 	lds	r25, 0x0A42
    3aa2:	11 c0       	rjmp	.+34     	; 0x3ac6 <Func_Det_IR_Responsivity_Set+0xa8>
			//sprintf(lcd2_buf+display_point,"[%04d]",mmi_tmp[line_1]);
			//sprintf(lcd3_buf+display_point,"[%04d]",mmi_tmp[line_1]);
		}
		else{
			sprintf(lcd1_buf+display_point,"[%04d]",det_ir_reponsivity_466);
    3aa4:	00 d0       	rcall	.+0      	; 0x3aa6 <Func_Det_IR_Responsivity_Set+0x88>
    3aa6:	00 d0       	rcall	.+0      	; 0x3aa8 <Func_Det_IR_Responsivity_Set+0x8a>
    3aa8:	ed b7       	in	r30, 0x3d	; 61
    3aaa:	fe b7       	in	r31, 0x3e	; 62
    3aac:	31 96       	adiw	r30, 0x01	; 1
    3aae:	ad b7       	in	r26, 0x3d	; 61
    3ab0:	be b7       	in	r27, 0x3e	; 62
    3ab2:	12 96       	adiw	r26, 0x02	; 2
    3ab4:	3c 93       	st	X, r19
    3ab6:	2e 93       	st	-X, r18
    3ab8:	11 97       	sbiw	r26, 0x01	; 1
    3aba:	53 83       	std	Z+3, r21	; 0x03
    3abc:	42 83       	std	Z+2, r20	; 0x02
    3abe:	80 91 3e 0a 	lds	r24, 0x0A3E
    3ac2:	90 91 3f 0a 	lds	r25, 0x0A3F
    3ac6:	95 83       	std	Z+5, r25	; 0x05
    3ac8:	84 83       	std	Z+4, r24	; 0x04
    3aca:	0e 94 ee 3d 	call	0x7bdc	; 0x7bdc <sprintf>
    3ace:	8d b7       	in	r24, 0x3d	; 61
    3ad0:	9e b7       	in	r25, 0x3e	; 62
    3ad2:	06 96       	adiw	r24, 0x06	; 6
    3ad4:	0f b6       	in	r0, 0x3f	; 63
    3ad6:	f8 94       	cli
    3ad8:	9e bf       	out	0x3e, r25	; 62
    3ada:	0f be       	out	0x3f, r0	; 63
    3adc:	8d bf       	out	0x3d, r24	; 61
			//sprintf(lcd2_buf+display_point,"[%04d]",det_ir_reponsivity_466);
			//sprintf(lcd3_buf+display_point,"[%04d]",det_ir_reponsivity_466);
		}
		LCD_PartDis(LCDADD_LINE1_1+display_point, (U8*)(lcd1_buf+display_point),6);
    3ade:	8a e0       	ldi	r24, 0x0A	; 10
    3ae0:	6b e0       	ldi	r22, 0x0B	; 11
    3ae2:	7a e0       	ldi	r23, 0x0A	; 10
    3ae4:	46 e0       	ldi	r20, 0x06	; 6
    3ae6:	0e 94 c6 0e 	call	0x1d8c	; 0x1d8c <LCD_PartDis>
    3aea:	08 95       	ret
		//LCD_PartDis(LCDADD_LINE2_1+display_point, (U8*)(lcd2_buf+display_point),6);
		//LCD_PartDis(LCDADD_LINE3_1+display_point, (U8*)(lcd3_buf+display_point),6);
	}
	else{
		switch(setting_mode_cursor){
    3aec:	80 91 35 0a 	lds	r24, 0x0A35
    3af0:	88 23       	and	r24, r24
    3af2:	61 f4       	brne	.+24     	; 0x3b0c <Func_Det_IR_Responsivity_Set+0xee>
			case line_1:
				sprintf(lcd1_buf+display_point,"[    ]");
    3af4:	8b e0       	ldi	r24, 0x0B	; 11
    3af6:	9a e0       	ldi	r25, 0x0A	; 10
    3af8:	66 e3       	ldi	r22, 0x36	; 54
    3afa:	74 e0       	ldi	r23, 0x04	; 4
    3afc:	0e 94 99 3d 	call	0x7b32	; 0x7b32 <strcpy>
				LCD_PartDis(LCDADD_LINE1_1+display_point, (U8*)(lcd1_buf+display_point),6);
    3b00:	8a e0       	ldi	r24, 0x0A	; 10
    3b02:	6b e0       	ldi	r22, 0x0B	; 11
    3b04:	7a e0       	ldi	r23, 0x0A	; 10
    3b06:	46 e0       	ldi	r20, 0x06	; 6
    3b08:	0e 94 c6 0e 	call	0x1d8c	; 0x1d8c <LCD_PartDis>
    3b0c:	08 95       	ret

00003b0e <Func_Det_Relay_Set>:
}

void Func_Det_Relay_Set(void)
{
U8	display_point;
	LCD_Display_Select_Cursor();
    3b0e:	0e 94 54 0f 	call	0x1ea8	; 0x1ea8 <LCD_Display_Select_Cursor>
	
	sprintf(lcd1_buf,"1.ALM");
    3b12:	82 e0       	ldi	r24, 0x02	; 2
    3b14:	9a e0       	ldi	r25, 0x0A	; 10
    3b16:	6d e3       	ldi	r22, 0x3D	; 61
    3b18:	74 e0       	ldi	r23, 0x04	; 4
    3b1a:	0e 94 99 3d 	call	0x7b32	; 0x7b32 <strcpy>
	sprintf(lcd2_buf,"2.TRB");
    3b1e:	82 e1       	ldi	r24, 0x12	; 18
    3b20:	9a e0       	ldi	r25, 0x0A	; 10
    3b22:	63 e4       	ldi	r22, 0x43	; 67
    3b24:	74 e0       	ldi	r23, 0x04	; 4
    3b26:	0e 94 99 3d 	call	0x7b32	; 0x7b32 <strcpy>
	LCD_Display(LCDADD_LINE1_1, lcd1_buf);
    3b2a:	81 e0       	ldi	r24, 0x01	; 1
    3b2c:	62 e0       	ldi	r22, 0x02	; 2
    3b2e:	7a e0       	ldi	r23, 0x0A	; 10
    3b30:	0e 94 e2 0e 	call	0x1dc4	; 0x1dc4 <LCD_Display>
	LCD_Display(LCDADD_LINE2_1, lcd2_buf);
    3b34:	81 e4       	ldi	r24, 0x41	; 65
    3b36:	62 e1       	ldi	r22, 0x12	; 18
    3b38:	7a e0       	ldi	r23, 0x0A	; 10
    3b3a:	0e 94 e2 0e 	call	0x1dc4	; 0x1dc4 <LCD_Display>

	display_point = 7;
	if(sTimerFlag[TMR_250MS]){
    3b3e:	80 91 33 0f 	lds	r24, 0x0F33
    3b42:	90 91 34 0f 	lds	r25, 0x0F34
    3b46:	89 2b       	or	r24, r25
    3b48:	09 f4       	brne	.+2      	; 0x3b4c <Func_Det_Relay_Set+0x3e>
    3b4a:	47 c0       	rjmp	.+142    	; 0x3bda <Func_Det_Relay_Set+0xcc>
		if(key_func_select_flag){
    3b4c:	80 91 3a 0a 	lds	r24, 0x0A3A
    3b50:	88 23       	and	r24, r24
    3b52:	c1 f0       	breq	.+48     	; 0x3b84 <Func_Det_Relay_Set+0x76>
			if(mmi_tmp[line_1]){
    3b54:	80 91 41 0a 	lds	r24, 0x0A41
    3b58:	90 91 42 0a 	lds	r25, 0x0A42
    3b5c:	89 2b       	or	r24, r25
    3b5e:	29 f0       	breq	.+10     	; 0x3b6a <Func_Det_Relay_Set+0x5c>
				sprintf(lcd1_buf+display_point,"[ENG   ]");
    3b60:	89 e0       	ldi	r24, 0x09	; 9
    3b62:	9a e0       	ldi	r25, 0x0A	; 10
    3b64:	69 e4       	ldi	r22, 0x49	; 73
    3b66:	74 e0       	ldi	r23, 0x04	; 4
    3b68:	04 c0       	rjmp	.+8      	; 0x3b72 <Func_Det_Relay_Set+0x64>
			}
			else{
				sprintf(lcd1_buf+display_point,"[DE-ENG]");
    3b6a:	89 e0       	ldi	r24, 0x09	; 9
    3b6c:	9a e0       	ldi	r25, 0x0A	; 10
    3b6e:	62 e5       	ldi	r22, 0x52	; 82
    3b70:	74 e0       	ldi	r23, 0x04	; 4
    3b72:	0e 94 99 3d 	call	0x7b32	; 0x7b32 <strcpy>
			}
			if(mmi_tmp[line_2]){
    3b76:	80 91 43 0a 	lds	r24, 0x0A43
    3b7a:	90 91 44 0a 	lds	r25, 0x0A44
    3b7e:	89 2b       	or	r24, r25
    3b80:	c9 f0       	breq	.+50     	; 0x3bb4 <Func_Det_Relay_Set+0xa6>
    3b82:	13 c0       	rjmp	.+38     	; 0x3baa <Func_Det_Relay_Set+0x9c>
			else{
				sprintf(lcd2_buf+display_point,"[DE-ENG]");
			}	
		}
		else{
			if(alm_relay_operation){
    3b84:	80 91 37 0a 	lds	r24, 0x0A37
    3b88:	88 23       	and	r24, r24
    3b8a:	29 f0       	breq	.+10     	; 0x3b96 <Func_Det_Relay_Set+0x88>
				sprintf(lcd1_buf+display_point,"[ENG   ]");
    3b8c:	89 e0       	ldi	r24, 0x09	; 9
    3b8e:	9a e0       	ldi	r25, 0x0A	; 10
    3b90:	69 e4       	ldi	r22, 0x49	; 73
    3b92:	74 e0       	ldi	r23, 0x04	; 4
    3b94:	04 c0       	rjmp	.+8      	; 0x3b9e <Func_Det_Relay_Set+0x90>
			}
			else{
				sprintf(lcd1_buf+display_point,"[DE-ENG]");
    3b96:	89 e0       	ldi	r24, 0x09	; 9
    3b98:	9a e0       	ldi	r25, 0x0A	; 10
    3b9a:	62 e5       	ldi	r22, 0x52	; 82
    3b9c:	74 e0       	ldi	r23, 0x04	; 4
    3b9e:	0e 94 99 3d 	call	0x7b32	; 0x7b32 <strcpy>
			}
			if(trb_relay_operation){
    3ba2:	80 91 34 0a 	lds	r24, 0x0A34
    3ba6:	88 23       	and	r24, r24
    3ba8:	29 f0       	breq	.+10     	; 0x3bb4 <Func_Det_Relay_Set+0xa6>
				sprintf(lcd2_buf+display_point,"[ENG   ]");
    3baa:	89 e1       	ldi	r24, 0x19	; 25
    3bac:	9a e0       	ldi	r25, 0x0A	; 10
    3bae:	69 e4       	ldi	r22, 0x49	; 73
    3bb0:	74 e0       	ldi	r23, 0x04	; 4
    3bb2:	04 c0       	rjmp	.+8      	; 0x3bbc <Func_Det_Relay_Set+0xae>
			}
			else{
				sprintf(lcd2_buf+display_point,"[DE-ENG]");
    3bb4:	89 e1       	ldi	r24, 0x19	; 25
    3bb6:	9a e0       	ldi	r25, 0x0A	; 10
    3bb8:	62 e5       	ldi	r22, 0x52	; 82
    3bba:	74 e0       	ldi	r23, 0x04	; 4
    3bbc:	0e 94 99 3d 	call	0x7b32	; 0x7b32 <strcpy>
			}
		}
		LCD_PartDis(LCDADD_LINE1_1+display_point, (U8*)(lcd1_buf+display_point),8);
    3bc0:	88 e0       	ldi	r24, 0x08	; 8
    3bc2:	69 e0       	ldi	r22, 0x09	; 9
    3bc4:	7a e0       	ldi	r23, 0x0A	; 10
    3bc6:	48 e0       	ldi	r20, 0x08	; 8
    3bc8:	0e 94 c6 0e 	call	0x1d8c	; 0x1d8c <LCD_PartDis>
		LCD_PartDis(LCDADD_LINE2_1+display_point, (U8*)(lcd2_buf+display_point),8);
    3bcc:	88 e4       	ldi	r24, 0x48	; 72
    3bce:	69 e1       	ldi	r22, 0x19	; 25
    3bd0:	7a e0       	ldi	r23, 0x0A	; 10
    3bd2:	48 e0       	ldi	r20, 0x08	; 8
    3bd4:	0e 94 c6 0e 	call	0x1d8c	; 0x1d8c <LCD_PartDis>
    3bd8:	0d c0       	rjmp	.+26     	; 0x3bf4 <Func_Det_Relay_Set+0xe6>
	}
	else{
		if(setting_mode_cursor == line_1){
    3bda:	80 91 35 0a 	lds	r24, 0x0A35
    3bde:	88 23       	and	r24, r24
    3be0:	19 f4       	brne	.+6      	; 0x3be8 <Func_Det_Relay_Set+0xda>
			sprintf(lcd1_buf+display_point,"[      ]");
    3be2:	89 e0       	ldi	r24, 0x09	; 9
    3be4:	9a e0       	ldi	r25, 0x0A	; 10
    3be6:	02 c0       	rjmp	.+4      	; 0x3bec <Func_Det_Relay_Set+0xde>
		}
		else{
			sprintf(lcd2_buf+display_point,"[      ]");
    3be8:	89 e1       	ldi	r24, 0x19	; 25
    3bea:	9a e0       	ldi	r25, 0x0A	; 10
    3bec:	6b e0       	ldi	r22, 0x0B	; 11
    3bee:	74 e0       	ldi	r23, 0x04	; 4
    3bf0:	0e 94 99 3d 	call	0x7b32	; 0x7b32 <strcpy>
		}
	}
	LCD_PartDis(LCDADD_LINE1_1+display_point, (U8*)(lcd1_buf+display_point),8);
    3bf4:	88 e0       	ldi	r24, 0x08	; 8
    3bf6:	69 e0       	ldi	r22, 0x09	; 9
    3bf8:	7a e0       	ldi	r23, 0x0A	; 10
    3bfa:	48 e0       	ldi	r20, 0x08	; 8
    3bfc:	0e 94 c6 0e 	call	0x1d8c	; 0x1d8c <LCD_PartDis>
	LCD_PartDis(LCDADD_LINE2_1+display_point, (U8*)(lcd2_buf+display_point),8);
    3c00:	88 e4       	ldi	r24, 0x48	; 72
    3c02:	69 e1       	ldi	r22, 0x19	; 25
    3c04:	7a e0       	ldi	r23, 0x0A	; 10
    3c06:	48 e0       	ldi	r20, 0x08	; 8
    3c08:	0e 94 c6 0e 	call	0x1d8c	; 0x1d8c <LCD_PartDis>
}
    3c0c:	08 95       	ret

00003c0e <Func_Dev_Mode_Set>:

void Func_Dev_Mode_Set(void)
{
U8	display_point = 10;

	sprintf(lcd1_buf,"1.Mode Set");
    3c0e:	82 e0       	ldi	r24, 0x02	; 2
    3c10:	9a e0       	ldi	r25, 0x0A	; 10
    3c12:	6b e5       	ldi	r22, 0x5B	; 91
    3c14:	74 e0       	ldi	r23, 0x04	; 4
    3c16:	0e 94 99 3d 	call	0x7b32	; 0x7b32 <strcpy>
	LCD_Display(LCDADD_LINE1_1, lcd1_buf);
    3c1a:	81 e0       	ldi	r24, 0x01	; 1
    3c1c:	62 e0       	ldi	r22, 0x02	; 2
    3c1e:	7a e0       	ldi	r23, 0x0A	; 10
    3c20:	0e 94 e2 0e 	call	0x1dc4	; 0x1dc4 <LCD_Display>

	if(sTimerFlag[TMR_250MS]){
    3c24:	80 91 33 0f 	lds	r24, 0x0F33
    3c28:	90 91 34 0f 	lds	r25, 0x0F34
    3c2c:	89 2b       	or	r24, r25
    3c2e:	11 f1       	breq	.+68     	; 0x3c74 <Func_Dev_Mode_Set+0x66>
		if(key_func_select_flag){
    3c30:	80 91 3a 0a 	lds	r24, 0x0A3A
    3c34:	88 23       	and	r24, r24
    3c36:	49 f0       	breq	.+18     	; 0x3c4a <Func_Dev_Mode_Set+0x3c>
			if(!mmi_tmp[line_1]){
    3c38:	80 91 41 0a 	lds	r24, 0x0A41
    3c3c:	90 91 42 0a 	lds	r25, 0x0A42
    3c40:	00 97       	sbiw	r24, 0x00	; 0
    3c42:	39 f0       	breq	.+14     	; 0x3c52 <Func_Dev_Mode_Set+0x44>
				sprintf(lcd1_buf+display_point,"[ N ]");
			}
			else if(mmi_tmp[line_1]== Det_U_CALIBRATION_MODE){
    3c44:	01 97       	sbiw	r24, 0x01	; 1
    3c46:	89 f4       	brne	.+34     	; 0x3c6a <Func_Dev_Mode_Set+0x5c>
    3c48:	0b c0       	rjmp	.+22     	; 0x3c60 <Func_Dev_Mode_Set+0x52>
			else{
				sprintf(lcd1_buf+display_point,"[ T ]");
			}
		}
		else{
			if(!Device_Mode_Select){
    3c4a:	80 91 d9 0a 	lds	r24, 0x0AD9
    3c4e:	88 23       	and	r24, r24
    3c50:	29 f4       	brne	.+10     	; 0x3c5c <Func_Dev_Mode_Set+0x4e>
				sprintf(lcd1_buf+display_point,"[ N ]");
    3c52:	8c e0       	ldi	r24, 0x0C	; 12
    3c54:	9a e0       	ldi	r25, 0x0A	; 10
    3c56:	66 e6       	ldi	r22, 0x66	; 102
    3c58:	74 e0       	ldi	r23, 0x04	; 4
    3c5a:	10 c0       	rjmp	.+32     	; 0x3c7c <Func_Dev_Mode_Set+0x6e>
			}
			else if(Device_Mode_Select== Det_U_CALIBRATION_MODE){
    3c5c:	81 30       	cpi	r24, 0x01	; 1
    3c5e:	29 f4       	brne	.+10     	; 0x3c6a <Func_Dev_Mode_Set+0x5c>
				sprintf(lcd1_buf+display_point,"[ U ]");
    3c60:	8c e0       	ldi	r24, 0x0C	; 12
    3c62:	9a e0       	ldi	r25, 0x0A	; 10
    3c64:	6c e6       	ldi	r22, 0x6C	; 108
    3c66:	74 e0       	ldi	r23, 0x04	; 4
    3c68:	09 c0       	rjmp	.+18     	; 0x3c7c <Func_Dev_Mode_Set+0x6e>
			}
			else{
				sprintf(lcd1_buf+display_point,"[ T ]");
    3c6a:	8c e0       	ldi	r24, 0x0C	; 12
    3c6c:	9a e0       	ldi	r25, 0x0A	; 10
    3c6e:	62 e7       	ldi	r22, 0x72	; 114
    3c70:	74 e0       	ldi	r23, 0x04	; 4
    3c72:	04 c0       	rjmp	.+8      	; 0x3c7c <Func_Dev_Mode_Set+0x6e>
			}
		}
	}
	else{
		sprintf(lcd1_buf+display_point,"[   ]");
    3c74:	8c e0       	ldi	r24, 0x0C	; 12
    3c76:	9a e0       	ldi	r25, 0x0A	; 10
    3c78:	68 e7       	ldi	r22, 0x78	; 120
    3c7a:	74 e0       	ldi	r23, 0x04	; 4
    3c7c:	0e 94 99 3d 	call	0x7b32	; 0x7b32 <strcpy>
	}
	LCD_PartDis(LCDADD_LINE1_1+display_point, (U8*)(lcd1_buf+display_point),5);
    3c80:	8b e0       	ldi	r24, 0x0B	; 11
    3c82:	6c e0       	ldi	r22, 0x0C	; 12
    3c84:	7a e0       	ldi	r23, 0x0A	; 10
    3c86:	45 e0       	ldi	r20, 0x05	; 5
    3c88:	0e 94 c6 0e 	call	0x1d8c	; 0x1d8c <LCD_PartDis>
}
    3c8c:	08 95       	ret

00003c8e <Func_Address_Set>:
	sprintf(lcd2_buf,"2.Dev Mode Set");
	LCD_Display(LCDADD_LINE2_1, lcd2_buf);
}

void Func_Address_Set(void)
{
    3c8e:	0f 93       	push	r16
    3c90:	1f 93       	push	r17
    3c92:	cf 93       	push	r28
    3c94:	df 93       	push	r29
U8	display_point;

	LCD_Display_Select_Cursor();
    3c96:	0e 94 54 0f 	call	0x1ea8	; 0x1ea8 <LCD_Display_Select_Cursor>

	sprintf(lcd1_buf,"1. Det Add");
    3c9a:	82 e0       	ldi	r24, 0x02	; 2
    3c9c:	9a e0       	ldi	r25, 0x0A	; 10
    3c9e:	6e e7       	ldi	r22, 0x7E	; 126
    3ca0:	74 e0       	ldi	r23, 0x04	; 4
    3ca2:	0e 94 99 3d 	call	0x7b32	; 0x7b32 <strcpy>
	LCD_Display(LCDADD_LINE1_1, lcd1_buf);
    3ca6:	81 e0       	ldi	r24, 0x01	; 1
    3ca8:	62 e0       	ldi	r22, 0x02	; 2
    3caa:	7a e0       	ldi	r23, 0x0A	; 10
    3cac:	0e 94 e2 0e 	call	0x1dc4	; 0x1dc4 <LCD_Display>
	sprintf(lcd2_buf,"2. Dev Add");
    3cb0:	82 e1       	ldi	r24, 0x12	; 18
    3cb2:	9a e0       	ldi	r25, 0x0A	; 10
    3cb4:	69 e8       	ldi	r22, 0x89	; 137
    3cb6:	74 e0       	ldi	r23, 0x04	; 4
    3cb8:	0e 94 99 3d 	call	0x7b32	; 0x7b32 <strcpy>
	LCD_Display(LCDADD_LINE2_1, lcd2_buf);
    3cbc:	81 e4       	ldi	r24, 0x41	; 65
    3cbe:	62 e1       	ldi	r22, 0x12	; 18
    3cc0:	7a e0       	ldi	r23, 0x0A	; 10
    3cc2:	0e 94 e2 0e 	call	0x1dc4	; 0x1dc4 <LCD_Display>

	if(sTimerFlag[TMR_250MS]){
    3cc6:	80 91 33 0f 	lds	r24, 0x0F33
    3cca:	90 91 34 0f 	lds	r25, 0x0F34
    3cce:	89 2b       	or	r24, r25
    3cd0:	09 f4       	brne	.+2      	; 0x3cd4 <Func_Address_Set+0x46>
    3cd2:	68 c0       	rjmp	.+208    	; 0x3da4 <Func_Address_Set+0x116>
		display_point = 10;
		if(key_func_select_flag){
    3cd4:	80 91 3a 0a 	lds	r24, 0x0A3A
    3cd8:	2c e0       	ldi	r18, 0x0C	; 12
    3cda:	3a e0       	ldi	r19, 0x0A	; 10
    3cdc:	c4 e9       	ldi	r28, 0x94	; 148
    3cde:	d4 e0       	ldi	r29, 0x04	; 4
    3ce0:	0c e1       	ldi	r16, 0x1C	; 28
    3ce2:	1a e0       	ldi	r17, 0x0A	; 10
    3ce4:	88 23       	and	r24, r24
    3ce6:	39 f1       	breq	.+78     	; 0x3d36 <Func_Address_Set+0xa8>
			sprintf(lcd1_buf+display_point,"[%03d]", mmi_tmp[line_1]);
    3ce8:	00 d0       	rcall	.+0      	; 0x3cea <Func_Address_Set+0x5c>
    3cea:	00 d0       	rcall	.+0      	; 0x3cec <Func_Address_Set+0x5e>
    3cec:	ed b7       	in	r30, 0x3d	; 61
    3cee:	fe b7       	in	r31, 0x3e	; 62
    3cf0:	31 96       	adiw	r30, 0x01	; 1
    3cf2:	ad b7       	in	r26, 0x3d	; 61
    3cf4:	be b7       	in	r27, 0x3e	; 62
    3cf6:	12 96       	adiw	r26, 0x02	; 2
    3cf8:	3c 93       	st	X, r19
    3cfa:	2e 93       	st	-X, r18
    3cfc:	11 97       	sbiw	r26, 0x01	; 1
    3cfe:	d3 83       	std	Z+3, r29	; 0x03
    3d00:	c2 83       	std	Z+2, r28	; 0x02
    3d02:	80 91 41 0a 	lds	r24, 0x0A41
    3d06:	90 91 42 0a 	lds	r25, 0x0A42
    3d0a:	95 83       	std	Z+5, r25	; 0x05
    3d0c:	84 83       	std	Z+4, r24	; 0x04
    3d0e:	0e 94 ee 3d 	call	0x7bdc	; 0x7bdc <sprintf>
			sprintf(lcd2_buf+display_point,"[%03d]", mmi_tmp[line_2]);
    3d12:	ed b7       	in	r30, 0x3d	; 61
    3d14:	fe b7       	in	r31, 0x3e	; 62
    3d16:	31 96       	adiw	r30, 0x01	; 1
    3d18:	ad b7       	in	r26, 0x3d	; 61
    3d1a:	be b7       	in	r27, 0x3e	; 62
    3d1c:	12 96       	adiw	r26, 0x02	; 2
    3d1e:	1c 93       	st	X, r17
    3d20:	0e 93       	st	-X, r16
    3d22:	11 97       	sbiw	r26, 0x01	; 1
    3d24:	d3 83       	std	Z+3, r29	; 0x03
    3d26:	c2 83       	std	Z+2, r28	; 0x02
    3d28:	80 91 43 0a 	lds	r24, 0x0A43
    3d2c:	90 91 44 0a 	lds	r25, 0x0A44
    3d30:	95 83       	std	Z+5, r25	; 0x05
    3d32:	84 83       	std	Z+4, r24	; 0x04
    3d34:	22 c0       	rjmp	.+68     	; 0x3d7a <Func_Address_Set+0xec>
		}
		else{
			sprintf(lcd1_buf+display_point,"[%03d]", Det_Address);
    3d36:	00 d0       	rcall	.+0      	; 0x3d38 <Func_Address_Set+0xaa>
    3d38:	00 d0       	rcall	.+0      	; 0x3d3a <Func_Address_Set+0xac>
    3d3a:	ed b7       	in	r30, 0x3d	; 61
    3d3c:	fe b7       	in	r31, 0x3e	; 62
    3d3e:	31 96       	adiw	r30, 0x01	; 1
    3d40:	ad b7       	in	r26, 0x3d	; 61
    3d42:	be b7       	in	r27, 0x3e	; 62
    3d44:	12 96       	adiw	r26, 0x02	; 2
    3d46:	3c 93       	st	X, r19
    3d48:	2e 93       	st	-X, r18
    3d4a:	11 97       	sbiw	r26, 0x01	; 1
    3d4c:	d3 83       	std	Z+3, r29	; 0x03
    3d4e:	c2 83       	std	Z+2, r28	; 0x02
    3d50:	80 91 f9 0e 	lds	r24, 0x0EF9
    3d54:	84 83       	std	Z+4, r24	; 0x04
    3d56:	15 82       	std	Z+5, r1	; 0x05
    3d58:	0e 94 ee 3d 	call	0x7bdc	; 0x7bdc <sprintf>
			sprintf(lcd2_buf+display_point,"[%03d]", Dvc_Address);
    3d5c:	ed b7       	in	r30, 0x3d	; 61
    3d5e:	fe b7       	in	r31, 0x3e	; 62
    3d60:	31 96       	adiw	r30, 0x01	; 1
    3d62:	ad b7       	in	r26, 0x3d	; 61
    3d64:	be b7       	in	r27, 0x3e	; 62
    3d66:	12 96       	adiw	r26, 0x02	; 2
    3d68:	1c 93       	st	X, r17
    3d6a:	0e 93       	st	-X, r16
    3d6c:	11 97       	sbiw	r26, 0x01	; 1
    3d6e:	d3 83       	std	Z+3, r29	; 0x03
    3d70:	c2 83       	std	Z+2, r28	; 0x02
    3d72:	80 91 fa 0e 	lds	r24, 0x0EFA
    3d76:	84 83       	std	Z+4, r24	; 0x04
    3d78:	15 82       	std	Z+5, r1	; 0x05
    3d7a:	0e 94 ee 3d 	call	0x7bdc	; 0x7bdc <sprintf>
    3d7e:	8d b7       	in	r24, 0x3d	; 61
    3d80:	9e b7       	in	r25, 0x3e	; 62
    3d82:	06 96       	adiw	r24, 0x06	; 6
    3d84:	0f b6       	in	r0, 0x3f	; 63
    3d86:	f8 94       	cli
    3d88:	9e bf       	out	0x3e, r25	; 62
    3d8a:	0f be       	out	0x3f, r0	; 63
    3d8c:	8d bf       	out	0x3d, r24	; 61
		}
		LCD_PartDis(LCDADD_LINE1_1+display_point, (U8*)(lcd1_buf+display_point),5);
    3d8e:	8b e0       	ldi	r24, 0x0B	; 11
    3d90:	6c e0       	ldi	r22, 0x0C	; 12
    3d92:	7a e0       	ldi	r23, 0x0A	; 10
    3d94:	45 e0       	ldi	r20, 0x05	; 5
    3d96:	0e 94 c6 0e 	call	0x1d8c	; 0x1d8c <LCD_PartDis>
		LCD_PartDis(LCDADD_LINE2_1+display_point, (U8*)(lcd2_buf+display_point),5);
    3d9a:	8b e4       	ldi	r24, 0x4B	; 75
    3d9c:	6c e1       	ldi	r22, 0x1C	; 28
    3d9e:	7a e0       	ldi	r23, 0x0A	; 10
    3da0:	45 e0       	ldi	r20, 0x05	; 5
    3da2:	17 c0       	rjmp	.+46     	; 0x3dd2 <Func_Address_Set+0x144>
	}
	else{
		display_point = 11;
		if(setting_mode_cursor == line_1){
    3da4:	80 91 35 0a 	lds	r24, 0x0A35
    3da8:	88 23       	and	r24, r24
    3daa:	19 f4       	brne	.+6      	; 0x3db2 <Func_Address_Set+0x124>
			sprintf(lcd1_buf+display_point,"   ");
    3dac:	8d e0       	ldi	r24, 0x0D	; 13
    3dae:	9a e0       	ldi	r25, 0x0A	; 10
    3db0:	02 c0       	rjmp	.+4      	; 0x3db6 <Func_Address_Set+0x128>
		}
		else{
			sprintf(lcd2_buf+display_point,"   ");
    3db2:	8d e1       	ldi	r24, 0x1D	; 29
    3db4:	9a e0       	ldi	r25, 0x0A	; 10
    3db6:	6b e9       	ldi	r22, 0x9B	; 155
    3db8:	74 e0       	ldi	r23, 0x04	; 4
    3dba:	0e 94 99 3d 	call	0x7b32	; 0x7b32 <strcpy>
		}
		LCD_PartDis(LCDADD_LINE1_1+display_point, (U8*)(lcd1_buf+display_point),3);
    3dbe:	8c e0       	ldi	r24, 0x0C	; 12
    3dc0:	6d e0       	ldi	r22, 0x0D	; 13
    3dc2:	7a e0       	ldi	r23, 0x0A	; 10
    3dc4:	43 e0       	ldi	r20, 0x03	; 3
    3dc6:	0e 94 c6 0e 	call	0x1d8c	; 0x1d8c <LCD_PartDis>
		LCD_PartDis(LCDADD_LINE2_1+display_point, (U8*)(lcd2_buf+display_point),3);
    3dca:	8c e4       	ldi	r24, 0x4C	; 76
    3dcc:	6d e1       	ldi	r22, 0x1D	; 29
    3dce:	7a e0       	ldi	r23, 0x0A	; 10
    3dd0:	43 e0       	ldi	r20, 0x03	; 3
    3dd2:	0e 94 c6 0e 	call	0x1d8c	; 0x1d8c <LCD_PartDis>
	}
}
    3dd6:	df 91       	pop	r29
    3dd8:	cf 91       	pop	r28
    3dda:	1f 91       	pop	r17
    3ddc:	0f 91       	pop	r16
    3dde:	08 95       	ret

00003de0 <Func_Normal>:
		Mode_Select();
	}
}

void Func_Normal(void)
{
    3de0:	ef 92       	push	r14
    3de2:	ff 92       	push	r15
    3de4:	0f 93       	push	r16
    3de6:	1f 93       	push	r17
    3de8:	cf 93       	push	r28
    3dea:	df 93       	push	r29
U8	display_point;
	
	Det_Status();
    3dec:	0e 94 20 19 	call	0x3240	; 0x3240 <Det_Status>
	
	if(reg_data != reg_data_old){
    3df0:	90 91 f1 0a 	lds	r25, 0x0AF1
    3df4:	80 91 b5 0a 	lds	r24, 0x0AB5
    3df8:	98 17       	cp	r25, r24
    3dfa:	19 f0       	breq	.+6      	; 0x3e02 <Func_Normal+0x22>
		LCD_Clear_Line(line_1);
    3dfc:	80 e0       	ldi	r24, 0x00	; 0
    3dfe:	0e 94 2c 0f 	call	0x1e58	; 0x1e58 <LCD_Clear_Line>
	}

	if(det_power_control & Det_System_Check_Complete){
    3e02:	80 91 da 0a 	lds	r24, 0x0ADA
    3e06:	85 ff       	sbrs	r24, 5
    3e08:	ab c1       	rjmp	.+854    	; 0x4160 <Func_Normal+0x380>
		// lcd_line_1
		if( (reg_data == ALARM_STATE_MODBUS_FAULT) || (reg_data == ALAMR_STATE_DET_POWER_OFF) ){
    3e0a:	80 91 f1 0a 	lds	r24, 0x0AF1
    3e0e:	8a 30       	cpi	r24, 0x0A	; 10
    3e10:	11 f0       	breq	.+4      	; 0x3e16 <Func_Normal+0x36>
    3e12:	8c 30       	cpi	r24, 0x0C	; 12
    3e14:	29 f4       	brne	.+10     	; 0x3e20 <Func_Normal+0x40>
			sprintf(lcd1_buf," ");
    3e16:	82 e0       	ldi	r24, 0x02	; 2
    3e18:	9a e0       	ldi	r25, 0x0A	; 10
    3e1a:	6f e9       	ldi	r22, 0x9F	; 159
    3e1c:	74 e0       	ldi	r23, 0x04	; 4
    3e1e:	0f c0       	rjmp	.+30     	; 0x3e3e <Func_Normal+0x5e>
		}
		else{
			if(Det_Input_Reg_Data[DET_InputReg_DeviceType] == STATUS_UVIR){
    3e20:	80 91 b9 0f 	lds	r24, 0x0FB9
    3e24:	90 91 ba 0f 	lds	r25, 0x0FBA
    3e28:	89 2b       	or	r24, r25
    3e2a:	29 f4       	brne	.+10     	; 0x3e36 <Func_Normal+0x56>
				sprintf(lcd1_buf,"U");
    3e2c:	82 e0       	ldi	r24, 0x02	; 2
    3e2e:	9a e0       	ldi	r25, 0x0A	; 10
    3e30:	61 ea       	ldi	r22, 0xA1	; 161
    3e32:	74 e0       	ldi	r23, 0x04	; 4
    3e34:	04 c0       	rjmp	.+8      	; 0x3e3e <Func_Normal+0x5e>
			}
			else{
				sprintf(lcd1_buf,"T");
    3e36:	82 e0       	ldi	r24, 0x02	; 2
    3e38:	9a e0       	ldi	r25, 0x0A	; 10
    3e3a:	63 ea       	ldi	r22, 0xA3	; 163
    3e3c:	74 e0       	ldi	r23, 0x04	; 4
    3e3e:	0e 94 99 3d 	call	0x7b32	; 0x7b32 <strcpy>
			}
		}
		LCD_Display(LCDADD_LINE1_0, lcd1_buf);
    3e42:	80 e0       	ldi	r24, 0x00	; 0
    3e44:	62 e0       	ldi	r22, 0x02	; 2
    3e46:	7a e0       	ldi	r23, 0x0A	; 10
    3e48:	0e 94 e2 0e 	call	0x1dc4	; 0x1dc4 <LCD_Display>
		
		switch(reg_data){
    3e4c:	80 91 f1 0a 	lds	r24, 0x0AF1
    3e50:	85 30       	cpi	r24, 0x05	; 5
    3e52:	c9 f1       	breq	.+114    	; 0x3ec6 <Func_Normal+0xe6>
    3e54:	86 30       	cpi	r24, 0x06	; 6
    3e56:	80 f4       	brcc	.+32     	; 0x3e78 <Func_Normal+0x98>
    3e58:	82 30       	cpi	r24, 0x02	; 2
    3e5a:	31 f1       	breq	.+76     	; 0x3ea8 <Func_Normal+0xc8>
    3e5c:	83 30       	cpi	r24, 0x03	; 3
    3e5e:	30 f4       	brcc	.+12     	; 0x3e6c <Func_Normal+0x8c>
    3e60:	88 23       	and	r24, r24
    3e62:	c1 f0       	breq	.+48     	; 0x3e94 <Func_Normal+0xb4>
    3e64:	81 30       	cpi	r24, 0x01	; 1
    3e66:	09 f0       	breq	.+2      	; 0x3e6a <Func_Normal+0x8a>
    3e68:	4d c0       	rjmp	.+154    	; 0x3f04 <Func_Normal+0x124>
    3e6a:	19 c0       	rjmp	.+50     	; 0x3e9e <Func_Normal+0xbe>
    3e6c:	83 30       	cpi	r24, 0x03	; 3
    3e6e:	09 f1       	breq	.+66     	; 0x3eb2 <Func_Normal+0xd2>
    3e70:	84 30       	cpi	r24, 0x04	; 4
    3e72:	09 f0       	breq	.+2      	; 0x3e76 <Func_Normal+0x96>
    3e74:	47 c0       	rjmp	.+142    	; 0x3f04 <Func_Normal+0x124>
    3e76:	22 c0       	rjmp	.+68     	; 0x3ebc <Func_Normal+0xdc>
    3e78:	88 30       	cpi	r24, 0x08	; 8
    3e7a:	a1 f1       	breq	.+104    	; 0x3ee4 <Func_Normal+0x104>
    3e7c:	89 30       	cpi	r24, 0x09	; 9
    3e7e:	28 f4       	brcc	.+10     	; 0x3e8a <Func_Normal+0xaa>
    3e80:	86 30       	cpi	r24, 0x06	; 6
    3e82:	31 f1       	breq	.+76     	; 0x3ed0 <Func_Normal+0xf0>
    3e84:	87 30       	cpi	r24, 0x07	; 7
    3e86:	f1 f5       	brne	.+124    	; 0x3f04 <Func_Normal+0x124>
    3e88:	28 c0       	rjmp	.+80     	; 0x3eda <Func_Normal+0xfa>
    3e8a:	89 30       	cpi	r24, 0x09	; 9
    3e8c:	81 f1       	breq	.+96     	; 0x3eee <Func_Normal+0x10e>
    3e8e:	8a 30       	cpi	r24, 0x0A	; 10
    3e90:	c9 f5       	brne	.+114    	; 0x3f04 <Func_Normal+0x124>
    3e92:	32 c0       	rjmp	.+100    	; 0x3ef8 <Func_Normal+0x118>
			case ALARM_STATE_NO:
				sprintf(lcd1_buf,"Normal");
    3e94:	82 e0       	ldi	r24, 0x02	; 2
    3e96:	9a e0       	ldi	r25, 0x0A	; 10
    3e98:	65 ea       	ldi	r22, 0xA5	; 165
    3e9a:	74 e0       	ldi	r23, 0x04	; 4
    3e9c:	31 c0       	rjmp	.+98     	; 0x3f00 <Func_Normal+0x120>
				break;
			case ALARM_STATE_BIT_PROGRESS:
				sprintf(lcd1_buf,"BIT Progress");
    3e9e:	82 e0       	ldi	r24, 0x02	; 2
    3ea0:	9a e0       	ldi	r25, 0x0A	; 10
    3ea2:	6c ea       	ldi	r22, 0xAC	; 172
    3ea4:	74 e0       	ldi	r23, 0x04	; 4
    3ea6:	2c c0       	rjmp	.+88     	; 0x3f00 <Func_Normal+0x120>
				break;
			case ALARM_STATE_WARNING:
				sprintf(lcd1_buf,"Warning");
    3ea8:	82 e0       	ldi	r24, 0x02	; 2
    3eaa:	9a e0       	ldi	r25, 0x0A	; 10
    3eac:	69 eb       	ldi	r22, 0xB9	; 185
    3eae:	74 e0       	ldi	r23, 0x04	; 4
    3eb0:	27 c0       	rjmp	.+78     	; 0x3f00 <Func_Normal+0x120>
				break;
			case ALARM_STATE_IR:
				sprintf(lcd1_buf,"IR Detect");
    3eb2:	82 e0       	ldi	r24, 0x02	; 2
    3eb4:	9a e0       	ldi	r25, 0x0A	; 10
    3eb6:	61 ec       	ldi	r22, 0xC1	; 193
    3eb8:	74 e0       	ldi	r23, 0x04	; 4
    3eba:	22 c0       	rjmp	.+68     	; 0x3f00 <Func_Normal+0x120>
				break;
			case ALARM_STATE_UV:
				sprintf(lcd1_buf,"UV Detect");
    3ebc:	82 e0       	ldi	r24, 0x02	; 2
    3ebe:	9a e0       	ldi	r25, 0x0A	; 10
    3ec0:	6b ec       	ldi	r22, 0xCB	; 203
    3ec2:	74 e0       	ldi	r23, 0x04	; 4
    3ec4:	1d c0       	rjmp	.+58     	; 0x3f00 <Func_Normal+0x120>
				break;
			case ALARM_STATE_FLAME:
				sprintf(lcd1_buf,"Flame Detect");
    3ec6:	82 e0       	ldi	r24, 0x02	; 2
    3ec8:	9a e0       	ldi	r25, 0x0A	; 10
    3eca:	65 ed       	ldi	r22, 0xD5	; 213
    3ecc:	74 e0       	ldi	r23, 0x04	; 4
    3ece:	18 c0       	rjmp	.+48     	; 0x3f00 <Func_Normal+0x120>
				break;
			case ALARM_STATE_PWR_FAULT:
				sprintf(lcd1_buf,"Power Fault");
    3ed0:	82 e0       	ldi	r24, 0x02	; 2
    3ed2:	9a e0       	ldi	r25, 0x0A	; 10
    3ed4:	62 ee       	ldi	r22, 0xE2	; 226
    3ed6:	74 e0       	ldi	r23, 0x04	; 4
    3ed8:	13 c0       	rjmp	.+38     	; 0x3f00 <Func_Normal+0x120>
				break;
			case ALARM_STATE_BIT_FAULT:
				sprintf(lcd1_buf,"BIT Fault");
    3eda:	82 e0       	ldi	r24, 0x02	; 2
    3edc:	9a e0       	ldi	r25, 0x0A	; 10
    3ede:	6e ee       	ldi	r22, 0xEE	; 238
    3ee0:	74 e0       	ldi	r23, 0x04	; 4
    3ee2:	0e c0       	rjmp	.+28     	; 0x3f00 <Func_Normal+0x120>
				break;
			case ALARM_STATE_IR_OFFSET_FAULT:
				sprintf(lcd1_buf,"IR Offset Fault");
    3ee4:	82 e0       	ldi	r24, 0x02	; 2
    3ee6:	9a e0       	ldi	r25, 0x0A	; 10
    3ee8:	68 ef       	ldi	r22, 0xF8	; 248
    3eea:	74 e0       	ldi	r23, 0x04	; 4
    3eec:	09 c0       	rjmp	.+18     	; 0x3f00 <Func_Normal+0x120>
				break;
			case ALARM_STATE_EEP_FAULT:
				sprintf(lcd1_buf,"EEP Fault");
    3eee:	82 e0       	ldi	r24, 0x02	; 2
    3ef0:	9a e0       	ldi	r25, 0x0A	; 10
    3ef2:	68 e0       	ldi	r22, 0x08	; 8
    3ef4:	75 e0       	ldi	r23, 0x05	; 5
    3ef6:	04 c0       	rjmp	.+8      	; 0x3f00 <Func_Normal+0x120>
				break;
			case ALARM_STATE_MODBUS_FAULT:
				sprintf(lcd1_buf,"MODBUS Fault!");
    3ef8:	82 e0       	ldi	r24, 0x02	; 2
    3efa:	9a e0       	ldi	r25, 0x0A	; 10
    3efc:	62 e1       	ldi	r22, 0x12	; 18
    3efe:	75 e0       	ldi	r23, 0x05	; 5
    3f00:	0e 94 99 3d 	call	0x7b32	; 0x7b32 <strcpy>
				break;
			case ALAMR_STATE_DET_POWER_OFF:
				//sprintf(lcd1_buf,"Det Power OFF");
				break;
		}
		LCD_Display(LCDADD_LINE1_2, lcd1_buf);
    3f04:	82 e0       	ldi	r24, 0x02	; 2
    3f06:	62 e0       	ldi	r22, 0x02	; 2
    3f08:	7a e0       	ldi	r23, 0x0A	; 10
    3f0a:	0e 94 e2 0e 	call	0x1dc4	; 0x1dc4 <LCD_Display>

		//lcd_line_2
		sprintf(lcd2_buf,"V0.%02d", Det_Input_Reg_Data[DET_InputReg_FW_VERSION]);
    3f0e:	00 d0       	rcall	.+0      	; 0x3f10 <Func_Normal+0x130>
    3f10:	00 d0       	rcall	.+0      	; 0x3f12 <Func_Normal+0x132>
    3f12:	ed b7       	in	r30, 0x3d	; 61
    3f14:	fe b7       	in	r31, 0x3e	; 62
    3f16:	31 96       	adiw	r30, 0x01	; 1
    3f18:	c2 e1       	ldi	r28, 0x12	; 18
    3f1a:	da e0       	ldi	r29, 0x0A	; 10
    3f1c:	ad b7       	in	r26, 0x3d	; 61
    3f1e:	be b7       	in	r27, 0x3e	; 62
    3f20:	12 96       	adiw	r26, 0x02	; 2
    3f22:	dc 93       	st	X, r29
    3f24:	ce 93       	st	-X, r28
    3f26:	11 97       	sbiw	r26, 0x01	; 1
    3f28:	80 e2       	ldi	r24, 0x20	; 32
    3f2a:	95 e0       	ldi	r25, 0x05	; 5
    3f2c:	93 83       	std	Z+3, r25	; 0x03
    3f2e:	82 83       	std	Z+2, r24	; 0x02
    3f30:	80 91 99 0f 	lds	r24, 0x0F99
    3f34:	90 91 9a 0f 	lds	r25, 0x0F9A
    3f38:	95 83       	std	Z+5, r25	; 0x05
    3f3a:	84 83       	std	Z+4, r24	; 0x04
    3f3c:	0e 94 ee 3d 	call	0x7bdc	; 0x7bdc <sprintf>
		LCD_Display(LCDADD_LINE2_0, lcd2_buf);
    3f40:	8d b7       	in	r24, 0x3d	; 61
    3f42:	9e b7       	in	r25, 0x3e	; 62
    3f44:	06 96       	adiw	r24, 0x06	; 6
    3f46:	0f b6       	in	r0, 0x3f	; 63
    3f48:	f8 94       	cli
    3f4a:	9e bf       	out	0x3e, r25	; 62
    3f4c:	0f be       	out	0x3f, r0	; 63
    3f4e:	8d bf       	out	0x3d, r24	; 61
    3f50:	80 e4       	ldi	r24, 0x40	; 64
    3f52:	be 01       	movw	r22, r28
    3f54:	0e 94 e2 0e 	call	0x1dc4	; 0x1dc4 <LCD_Display>
		
		display_point = 7;
		sprintf(lcd2_buf+display_point,"AR:");
    3f58:	ce 01       	movw	r24, r28
    3f5a:	07 96       	adiw	r24, 0x07	; 7
    3f5c:	68 e2       	ldi	r22, 0x28	; 40
    3f5e:	75 e0       	ldi	r23, 0x05	; 5
    3f60:	0e 94 99 3d 	call	0x7b32	; 0x7b32 <strcpy>
		LCD_PartDis(LCDADD_LINE2_0+display_point, (U8*)(lcd2_buf+display_point),3);
    3f64:	87 e4       	ldi	r24, 0x47	; 71
    3f66:	be 01       	movw	r22, r28
    3f68:	69 5f       	subi	r22, 0xF9	; 249
    3f6a:	7f 4f       	sbci	r23, 0xFF	; 255
    3f6c:	43 e0       	ldi	r20, 0x03	; 3
    3f6e:	0e 94 c6 0e 	call	0x1d8c	; 0x1d8c <LCD_PartDis>
		
		display_point = 10;
		if(alm_relay_chk){
    3f72:	80 91 4b 0a 	lds	r24, 0x0A4B
    3f76:	88 23       	and	r24, r24
    3f78:	29 f0       	breq	.+10     	; 0x3f84 <Func_Normal+0x1a4>
			sprintf(lcd2_buf+display_point,"C");
    3f7a:	ce 01       	movw	r24, r28
    3f7c:	0a 96       	adiw	r24, 0x0a	; 10
    3f7e:	6c e2       	ldi	r22, 0x2C	; 44
    3f80:	75 e0       	ldi	r23, 0x05	; 5
    3f82:	04 c0       	rjmp	.+8      	; 0x3f8c <Func_Normal+0x1ac>
		}
		else{
			sprintf(lcd2_buf+display_point,"O");
    3f84:	ce 01       	movw	r24, r28
    3f86:	0a 96       	adiw	r24, 0x0a	; 10
    3f88:	6e e2       	ldi	r22, 0x2E	; 46
    3f8a:	75 e0       	ldi	r23, 0x05	; 5
    3f8c:	0e 94 99 3d 	call	0x7b32	; 0x7b32 <strcpy>
		}
		LCD_PartDis(LCDADD_LINE2_0+display_point, (U8*)(lcd2_buf+display_point),1);
    3f90:	8a e4       	ldi	r24, 0x4A	; 74
    3f92:	6c e1       	ldi	r22, 0x1C	; 28
    3f94:	7a e0       	ldi	r23, 0x0A	; 10
    3f96:	41 e0       	ldi	r20, 0x01	; 1
    3f98:	0e 94 c6 0e 	call	0x1d8c	; 0x1d8c <LCD_PartDis>
		
		display_point = 12;
		sprintf(lcd2_buf+display_point,"TR:");
    3f9c:	8e e1       	ldi	r24, 0x1E	; 30
    3f9e:	9a e0       	ldi	r25, 0x0A	; 10
    3fa0:	60 e3       	ldi	r22, 0x30	; 48
    3fa2:	75 e0       	ldi	r23, 0x05	; 5
    3fa4:	0e 94 99 3d 	call	0x7b32	; 0x7b32 <strcpy>
		LCD_PartDis(LCDADD_LINE2_0+display_point, (U8*)(lcd2_buf+display_point),3);
    3fa8:	8c e4       	ldi	r24, 0x4C	; 76
    3faa:	6e e1       	ldi	r22, 0x1E	; 30
    3fac:	7a e0       	ldi	r23, 0x0A	; 10
    3fae:	43 e0       	ldi	r20, 0x03	; 3
    3fb0:	0e 94 c6 0e 	call	0x1d8c	; 0x1d8c <LCD_PartDis>

		display_point = 15;
		if(trb_relay_chk){
    3fb4:	80 91 36 0a 	lds	r24, 0x0A36
    3fb8:	88 23       	and	r24, r24
    3fba:	29 f0       	breq	.+10     	; 0x3fc6 <Func_Normal+0x1e6>
			sprintf(lcd2_buf+display_point,"C");
    3fbc:	81 e2       	ldi	r24, 0x21	; 33
    3fbe:	9a e0       	ldi	r25, 0x0A	; 10
    3fc0:	6c e2       	ldi	r22, 0x2C	; 44
    3fc2:	75 e0       	ldi	r23, 0x05	; 5
    3fc4:	04 c0       	rjmp	.+8      	; 0x3fce <Func_Normal+0x1ee>
		}
		else{
			sprintf(lcd2_buf+display_point,"O");
    3fc6:	81 e2       	ldi	r24, 0x21	; 33
    3fc8:	9a e0       	ldi	r25, 0x0A	; 10
    3fca:	6e e2       	ldi	r22, 0x2E	; 46
    3fcc:	75 e0       	ldi	r23, 0x05	; 5
    3fce:	0e 94 99 3d 	call	0x7b32	; 0x7b32 <strcpy>
		}
		LCD_PartDis(LCDADD_LINE2_0+display_point, (U8*)(lcd2_buf+display_point),1);
    3fd2:	8f e4       	ldi	r24, 0x4F	; 79
    3fd4:	61 e2       	ldi	r22, 0x21	; 33
    3fd6:	7a e0       	ldi	r23, 0x0A	; 10
    3fd8:	41 e0       	ldi	r20, 0x01	; 1
    3fda:	0e 94 c6 0e 	call	0x1d8c	; 0x1d8c <LCD_PartDis>

		//lcd_line_3
		sprintf(lcd3_buf,"P%02d.%d", (Det_Input_Reg_Data[DET_InputReg_P24] / 10), (Det_Input_Reg_Data[DET_InputReg_P24] % 10));
    3fde:	20 91 9d 0f 	lds	r18, 0x0F9D
    3fe2:	30 91 9e 0f 	lds	r19, 0x0F9E
    3fe6:	ad b7       	in	r26, 0x3d	; 61
    3fe8:	be b7       	in	r27, 0x3e	; 62
    3fea:	18 97       	sbiw	r26, 0x08	; 8
    3fec:	0f b6       	in	r0, 0x3f	; 63
    3fee:	f8 94       	cli
    3ff0:	be bf       	out	0x3e, r27	; 62
    3ff2:	0f be       	out	0x3f, r0	; 63
    3ff4:	ad bf       	out	0x3d, r26	; 61
    3ff6:	ed b7       	in	r30, 0x3d	; 61
    3ff8:	fe b7       	in	r31, 0x3e	; 62
    3ffa:	31 96       	adiw	r30, 0x01	; 1
    3ffc:	c4 e2       	ldi	r28, 0x24	; 36
    3ffe:	da e0       	ldi	r29, 0x0A	; 10
    4000:	12 96       	adiw	r26, 0x02	; 2
    4002:	dc 93       	st	X, r29
    4004:	ce 93       	st	-X, r28
    4006:	11 97       	sbiw	r26, 0x01	; 1
    4008:	84 e3       	ldi	r24, 0x34	; 52
    400a:	95 e0       	ldi	r25, 0x05	; 5
    400c:	93 83       	std	Z+3, r25	; 0x03
    400e:	82 83       	std	Z+2, r24	; 0x02
    4010:	c9 01       	movw	r24, r18
    4012:	6a e0       	ldi	r22, 0x0A	; 10
    4014:	70 e0       	ldi	r23, 0x00	; 0
    4016:	0e 94 4e 3d 	call	0x7a9c	; 0x7a9c <__udivmodhi4>
    401a:	75 83       	std	Z+5, r23	; 0x05
    401c:	64 83       	std	Z+4, r22	; 0x04
    401e:	c9 01       	movw	r24, r18
    4020:	6a e0       	ldi	r22, 0x0A	; 10
    4022:	70 e0       	ldi	r23, 0x00	; 0
    4024:	0e 94 4e 3d 	call	0x7a9c	; 0x7a9c <__udivmodhi4>
    4028:	97 83       	std	Z+7, r25	; 0x07
    402a:	86 83       	std	Z+6, r24	; 0x06
    402c:	0e 94 ee 3d 	call	0x7bdc	; 0x7bdc <sprintf>
		LCD_Display(LCDADD_LINE3_0, lcd3_buf);
    4030:	8d b7       	in	r24, 0x3d	; 61
    4032:	9e b7       	in	r25, 0x3e	; 62
    4034:	08 96       	adiw	r24, 0x08	; 8
    4036:	0f b6       	in	r0, 0x3f	; 63
    4038:	f8 94       	cli
    403a:	9e bf       	out	0x3e, r25	; 62
    403c:	0f be       	out	0x3f, r0	; 63
    403e:	8d bf       	out	0x3d, r24	; 61
    4040:	80 e1       	ldi	r24, 0x10	; 16
    4042:	be 01       	movw	r22, r28
    4044:	0e 94 e2 0e 	call	0x1dc4	; 0x1dc4 <LCD_Display>
		
		display_point = 7;
		sprintf(lcd3_buf+display_point,"BC:");
    4048:	ce 01       	movw	r24, r28
    404a:	07 96       	adiw	r24, 0x07	; 7
    404c:	6d e3       	ldi	r22, 0x3D	; 61
    404e:	75 e0       	ldi	r23, 0x05	; 5
    4050:	0e 94 99 3d 	call	0x7b32	; 0x7b32 <strcpy>
		LCD_PartDis(LCDADD_LINE3_0+display_point, (U8*)(lcd3_buf+display_point),3);
    4054:	87 e1       	ldi	r24, 0x17	; 23
    4056:	be 01       	movw	r22, r28
    4058:	69 5f       	subi	r22, 0xF9	; 249
    405a:	7f 4f       	sbci	r23, 0xFF	; 255
    405c:	43 e0       	ldi	r20, 0x03	; 3
    405e:	0e 94 c6 0e 	call	0x1d8c	; 0x1d8c <LCD_PartDis>

		display_point = 10;
		if(bit_operation){
    4062:	80 91 b0 0a 	lds	r24, 0x0AB0
    4066:	88 23       	and	r24, r24
    4068:	29 f0       	breq	.+10     	; 0x4074 <Func_Normal+0x294>
			sprintf(lcd3_buf+display_point,"A");
    406a:	ce 01       	movw	r24, r28
    406c:	0a 96       	adiw	r24, 0x0a	; 10
    406e:	61 e4       	ldi	r22, 0x41	; 65
    4070:	75 e0       	ldi	r23, 0x05	; 5
    4072:	04 c0       	rjmp	.+8      	; 0x407c <Func_Normal+0x29c>
		}
		else{
			sprintf(lcd3_buf+display_point,"M");
    4074:	ce 01       	movw	r24, r28
    4076:	0a 96       	adiw	r24, 0x0a	; 10
    4078:	63 e4       	ldi	r22, 0x43	; 67
    407a:	75 e0       	ldi	r23, 0x05	; 5
    407c:	0e 94 99 3d 	call	0x7b32	; 0x7b32 <strcpy>
		}
		LCD_PartDis(LCDADD_LINE3_0+display_point, (U8*)(lcd3_buf+display_point),1);
    4080:	8a e1       	ldi	r24, 0x1A	; 26
    4082:	6e e2       	ldi	r22, 0x2E	; 46
    4084:	7a e0       	ldi	r23, 0x0A	; 10
    4086:	41 e0       	ldi	r20, 0x01	; 1
    4088:	0e 94 c6 0e 	call	0x1d8c	; 0x1d8c <LCD_PartDis>
		
		display_point = 12;
		sprintf(lcd3_buf+display_point,"PC:");
    408c:	80 e3       	ldi	r24, 0x30	; 48
    408e:	9a e0       	ldi	r25, 0x0A	; 10
    4090:	65 e4       	ldi	r22, 0x45	; 69
    4092:	75 e0       	ldi	r23, 0x05	; 5
    4094:	0e 94 99 3d 	call	0x7b32	; 0x7b32 <strcpy>
		LCD_PartDis(LCDADD_LINE3_0+display_point, (U8*)(lcd3_buf+display_point),3);
    4098:	8c e1       	ldi	r24, 0x1C	; 28
    409a:	60 e3       	ldi	r22, 0x30	; 48
    409c:	7a e0       	ldi	r23, 0x0A	; 10
    409e:	43 e0       	ldi	r20, 0x03	; 3
    40a0:	0e 94 c6 0e 	call	0x1d8c	; 0x1d8c <LCD_PartDis>

		display_point = 15;
		if(det_pwr_ctr_value){
    40a4:	80 91 80 0a 	lds	r24, 0x0A80
    40a8:	88 23       	and	r24, r24
    40aa:	29 f0       	breq	.+10     	; 0x40b6 <Func_Normal+0x2d6>
			sprintf(lcd3_buf+display_point,"A");
    40ac:	83 e3       	ldi	r24, 0x33	; 51
    40ae:	9a e0       	ldi	r25, 0x0A	; 10
    40b0:	61 e4       	ldi	r22, 0x41	; 65
    40b2:	75 e0       	ldi	r23, 0x05	; 5
    40b4:	04 c0       	rjmp	.+8      	; 0x40be <Func_Normal+0x2de>
		}
		else{
			sprintf(lcd3_buf+display_point,"M");
    40b6:	83 e3       	ldi	r24, 0x33	; 51
    40b8:	9a e0       	ldi	r25, 0x0A	; 10
    40ba:	63 e4       	ldi	r22, 0x43	; 67
    40bc:	75 e0       	ldi	r23, 0x05	; 5
    40be:	0e 94 99 3d 	call	0x7b32	; 0x7b32 <strcpy>
		}
		LCD_PartDis(LCDADD_LINE3_0+display_point, (U8*)(lcd3_buf+display_point),1);
    40c2:	8f e1       	ldi	r24, 0x1F	; 31
    40c4:	63 e3       	ldi	r22, 0x33	; 51
    40c6:	7a e0       	ldi	r23, 0x0A	; 10
    40c8:	41 e0       	ldi	r20, 0x01	; 1
    40ca:	0e 94 c6 0e 	call	0x1d8c	; 0x1d8c <LCD_PartDis>
		
		//lcd_line_4
		sprintf(lcd4_buf,"T%02d.%d  mA:%02d.%02d", (Det_Input_Reg_Data[DET_InputReg_Tempareture] / 10), (Det_Input_Reg_Data[DET_InputReg_Tempareture] % 10), (Det_Analog_Data / 100), (Det_Analog_Data % 100));
    40ce:	20 91 9f 0f 	lds	r18, 0x0F9F
    40d2:	30 91 a0 0f 	lds	r19, 0x0FA0
    40d6:	00 91 a1 09 	lds	r16, 0x09A1
    40da:	10 91 a2 09 	lds	r17, 0x09A2
    40de:	ad b7       	in	r26, 0x3d	; 61
    40e0:	be b7       	in	r27, 0x3e	; 62
    40e2:	1c 97       	sbiw	r26, 0x0c	; 12
    40e4:	0f b6       	in	r0, 0x3f	; 63
    40e6:	f8 94       	cli
    40e8:	be bf       	out	0x3e, r27	; 62
    40ea:	0f be       	out	0x3f, r0	; 63
    40ec:	ad bf       	out	0x3d, r26	; 61
    40ee:	ed b7       	in	r30, 0x3d	; 61
    40f0:	fe b7       	in	r31, 0x3e	; 62
    40f2:	31 96       	adiw	r30, 0x01	; 1
    40f4:	82 ef       	ldi	r24, 0xF2	; 242
    40f6:	e8 2e       	mov	r14, r24
    40f8:	89 e0       	ldi	r24, 0x09	; 9
    40fa:	f8 2e       	mov	r15, r24
    40fc:	12 96       	adiw	r26, 0x02	; 2
    40fe:	fc 92       	st	X, r15
    4100:	ee 92       	st	-X, r14
    4102:	11 97       	sbiw	r26, 0x01	; 1
    4104:	89 e4       	ldi	r24, 0x49	; 73
    4106:	95 e0       	ldi	r25, 0x05	; 5
    4108:	93 83       	std	Z+3, r25	; 0x03
    410a:	82 83       	std	Z+2, r24	; 0x02
    410c:	c9 01       	movw	r24, r18
    410e:	6a e0       	ldi	r22, 0x0A	; 10
    4110:	70 e0       	ldi	r23, 0x00	; 0
    4112:	0e 94 4e 3d 	call	0x7a9c	; 0x7a9c <__udivmodhi4>
    4116:	75 83       	std	Z+5, r23	; 0x05
    4118:	64 83       	std	Z+4, r22	; 0x04
    411a:	c9 01       	movw	r24, r18
    411c:	6a e0       	ldi	r22, 0x0A	; 10
    411e:	70 e0       	ldi	r23, 0x00	; 0
    4120:	0e 94 4e 3d 	call	0x7a9c	; 0x7a9c <__udivmodhi4>
    4124:	97 83       	std	Z+7, r25	; 0x07
    4126:	86 83       	std	Z+6, r24	; 0x06
    4128:	c8 01       	movw	r24, r16
    412a:	64 e6       	ldi	r22, 0x64	; 100
    412c:	70 e0       	ldi	r23, 0x00	; 0
    412e:	0e 94 4e 3d 	call	0x7a9c	; 0x7a9c <__udivmodhi4>
    4132:	71 87       	std	Z+9, r23	; 0x09
    4134:	60 87       	std	Z+8, r22	; 0x08
    4136:	c8 01       	movw	r24, r16
    4138:	64 e6       	ldi	r22, 0x64	; 100
    413a:	70 e0       	ldi	r23, 0x00	; 0
    413c:	0e 94 4e 3d 	call	0x7a9c	; 0x7a9c <__udivmodhi4>
    4140:	93 87       	std	Z+11, r25	; 0x0b
    4142:	82 87       	std	Z+10, r24	; 0x0a
    4144:	0e 94 ee 3d 	call	0x7bdc	; 0x7bdc <sprintf>
		LCD_Display(LCDADD_LINE4_0, lcd4_buf);
    4148:	8d b7       	in	r24, 0x3d	; 61
    414a:	9e b7       	in	r25, 0x3e	; 62
    414c:	0c 96       	adiw	r24, 0x0c	; 12
    414e:	0f b6       	in	r0, 0x3f	; 63
    4150:	f8 94       	cli
    4152:	9e bf       	out	0x3e, r25	; 62
    4154:	0f be       	out	0x3f, r0	; 63
    4156:	8d bf       	out	0x3d, r24	; 61
    4158:	80 e5       	ldi	r24, 0x50	; 80
    415a:	b7 01       	movw	r22, r14
    415c:	0e 94 e2 0e 	call	0x1dc4	; 0x1dc4 <LCD_Display>
	}
	reg_data_old = reg_data;
    4160:	80 91 f1 0a 	lds	r24, 0x0AF1
    4164:	80 93 b5 0a 	sts	0x0AB5, r24
}
    4168:	df 91       	pop	r29
    416a:	cf 91       	pop	r28
    416c:	1f 91       	pop	r17
    416e:	0f 91       	pop	r16
    4170:	ff 90       	pop	r15
    4172:	ef 90       	pop	r14
    4174:	08 95       	ret

00004176 <Initialize_ModeFlag>:
	
	Initialize_ModeFlag();
}

void Initialize_ModeFlag(void)
{
    4176:	cf 93       	push	r28
    4178:	df 93       	push	r29
U8	i;
	memset( ModeSetFlow, 0, sizeof(ModeSetFlow) );
    417a:	86 e1       	ldi	r24, 0x16	; 22
    417c:	eb ed       	ldi	r30, 0xDB	; 219
    417e:	fa e0       	ldi	r31, 0x0A	; 10
    4180:	df 01       	movw	r26, r30
    4182:	28 2f       	mov	r18, r24
    4184:	1d 92       	st	X+, r1
    4186:	2a 95       	dec	r18
    4188:	e9 f7       	brne	.-6      	; 0x4184 <Initialize_ModeFlag+0xe>
	memset( ModeSetFlag, 0, sizeof(ModeSetFlag) );
    418a:	e9 eb       	ldi	r30, 0xB9	; 185
    418c:	fa e0       	ldi	r31, 0x0A	; 10
    418e:	df 01       	movw	r26, r30
    4190:	1d 92       	st	X+, r1
    4192:	8a 95       	dec	r24
    4194:	e9 f7       	brne	.-6      	; 0x4190 <Initialize_ModeFlag+0x1a>
	memset( ModeSetTime, 0, sizeof(ModeSetTime) );
    4196:	a2 e5       	ldi	r26, 0x52	; 82
    4198:	ba e0       	ldi	r27, 0x0A	; 10
    419a:	8c e2       	ldi	r24, 0x2C	; 44
    419c:	ed 01       	movw	r28, r26
    419e:	19 92       	st	Y+, r1
    41a0:	8a 95       	dec	r24
    41a2:	e9 f7       	brne	.-6      	; 0x419e <Initialize_ModeFlag+0x28>
	memset( Det_IrAvPtoP_Sum, 0, sizeof(Det_IrAvPtoP_Sum) );
    41a4:	86 e0       	ldi	r24, 0x06	; 6
    41a6:	ec e4       	ldi	r30, 0x4C	; 76
    41a8:	fa e0       	ldi	r31, 0x0A	; 10
    41aa:	ef 01       	movw	r28, r30
    41ac:	19 92       	st	Y+, r1
    41ae:	8a 95       	dec	r24
    41b0:	e9 f7       	brne	.-6      	; 0x41ac <Initialize_ModeFlag+0x36>
	memset( Det_IrAvPtoP_Data, 0, sizeof(Det_IrAvPtoP_Data) );
    41b2:	8a e2       	ldi	r24, 0x2A	; 42
    41b4:	e6 e8       	ldi	r30, 0x86	; 134
    41b6:	fa e0       	ldi	r31, 0x0A	; 10
    41b8:	ef 01       	movw	r28, r30
    41ba:	19 92       	st	Y+, r1
    41bc:	8a 95       	dec	r24
    41be:	e9 f7       	brne	.-6      	; 0x41ba <Initialize_ModeFlag+0x44>
    41c0:	fd 01       	movw	r30, r26
	
	for(i = 0;i < FMODE_MAX; i++){
		ModeSetTime[i] = 1000;
    41c2:	88 ee       	ldi	r24, 0xE8	; 232
    41c4:	93 e0       	ldi	r25, 0x03	; 3
    41c6:	81 93       	st	Z+, r24
    41c8:	91 93       	st	Z+, r25
	memset( ModeSetFlag, 0, sizeof(ModeSetFlag) );
	memset( ModeSetTime, 0, sizeof(ModeSetTime) );
	memset( Det_IrAvPtoP_Sum, 0, sizeof(Det_IrAvPtoP_Sum) );
	memset( Det_IrAvPtoP_Data, 0, sizeof(Det_IrAvPtoP_Data) );
	
	for(i = 0;i < FMODE_MAX; i++){
    41ca:	2a e0       	ldi	r18, 0x0A	; 10
    41cc:	ee 37       	cpi	r30, 0x7E	; 126
    41ce:	f2 07       	cpc	r31, r18
    41d0:	d1 f7       	brne	.-12     	; 0x41c6 <Initialize_ModeFlag+0x50>
		ModeSetTime[i] = 1000;
	}
}
    41d2:	df 91       	pop	r29
    41d4:	cf 91       	pop	r28
    41d6:	08 95       	ret

000041d8 <Func_Det_Eep_Clear_Mode>:
		}
	}
}

void Func_Det_Eep_Clear_Mode(void)
{
    41d8:	0f 93       	push	r16
    41da:	1f 93       	push	r17
    41dc:	cf 93       	push	r28
    41de:	df 93       	push	r29
U8	cnt = 0;
U16	s_addr = 0, e_addr = 0;
//U16 fail_addr[130];
//U8	fail_cnt = 0;

	sprintf(lcd1_buf,"[DET Clear Mode]");
    41e0:	82 e0       	ldi	r24, 0x02	; 2
    41e2:	9a e0       	ldi	r25, 0x0A	; 10
    41e4:	60 e6       	ldi	r22, 0x60	; 96
    41e6:	75 e0       	ldi	r23, 0x05	; 5
    41e8:	0e 94 99 3d 	call	0x7b32	; 0x7b32 <strcpy>
	LCD_Display(LCDADD_LINE1_0, lcd1_buf);
    41ec:	80 e0       	ldi	r24, 0x00	; 0
    41ee:	62 e0       	ldi	r22, 0x02	; 2
    41f0:	7a e0       	ldi	r23, 0x0A	; 10
    41f2:	0e 94 e2 0e 	call	0x1dc4	; 0x1dc4 <LCD_Display>

	switch(ModeSetFlow[FMODE_DET_EEP_CLEAR_MODE]){
    41f6:	20 91 e0 0a 	lds	r18, 0x0AE0
    41fa:	27 30       	cpi	r18, 0x07	; 7
    41fc:	40 f4       	brcc	.+16     	; 0x420e <Func_Det_Eep_Clear_Mode+0x36>
    41fe:	23 30       	cpi	r18, 0x03	; 3
    4200:	e8 f5       	brcc	.+122    	; 0x427c <Func_Det_Eep_Clear_Mode+0xa4>
    4202:	21 30       	cpi	r18, 0x01	; 1
    4204:	41 f0       	breq	.+16     	; 0x4216 <Func_Det_Eep_Clear_Mode+0x3e>
    4206:	22 30       	cpi	r18, 0x02	; 2
    4208:	09 f0       	breq	.+2      	; 0x420c <Func_Det_Eep_Clear_Mode+0x34>
    420a:	b7 c0       	rjmp	.+366    	; 0x437a <Func_Det_Eep_Clear_Mode+0x1a2>
    420c:	10 c0       	rjmp	.+32     	; 0x422e <Func_Det_Eep_Clear_Mode+0x56>
    420e:	27 30       	cpi	r18, 0x07	; 7
    4210:	09 f0       	breq	.+2      	; 0x4214 <Func_Det_Eep_Clear_Mode+0x3c>
    4212:	b3 c0       	rjmp	.+358    	; 0x437a <Func_Det_Eep_Clear_Mode+0x1a2>
    4214:	b0 c0       	rjmp	.+352    	; 0x4376 <Func_Det_Eep_Clear_Mode+0x19e>
		case 1:
			LCD_Display_Select_Cursor();
    4216:	0e 94 54 0f 	call	0x1ea8	; 0x1ea8 <LCD_Display_Select_Cursor>
			
			sprintf(lcd2_buf,"Event Log");
    421a:	82 e1       	ldi	r24, 0x12	; 18
    421c:	9a e0       	ldi	r25, 0x0A	; 10
    421e:	61 e7       	ldi	r22, 0x71	; 113
    4220:	75 e0       	ldi	r23, 0x05	; 5
    4222:	0e 94 99 3d 	call	0x7b32	; 0x7b32 <strcpy>
			LCD_Display(LCDADD_LINE2_1, lcd2_buf);
    4226:	81 e4       	ldi	r24, 0x41	; 65
    4228:	62 e1       	ldi	r22, 0x12	; 18
    422a:	7a e0       	ldi	r23, 0x0A	; 10
    422c:	a1 c0       	rjmp	.+322    	; 0x4370 <Func_Det_Eep_Clear_Mode+0x198>
			//LCD_Display(LCDADD_LINE3_1, lcd3_buf);
			//sprintf(lcd4_buf,"Factory Reset");
			//LCD_Display(LCDADD_LINE4_1, lcd4_buf);
			break;
		case 2:
			switch(ModeSetFlag[FMODE_DET_EEP_CLEAR_MODE]){
    422e:	80 91 be 0a 	lds	r24, 0x0ABE
    4232:	82 30       	cpi	r24, 0x02	; 2
    4234:	49 f0       	breq	.+18     	; 0x4248 <Func_Det_Eep_Clear_Mode+0x70>
    4236:	83 30       	cpi	r24, 0x03	; 3
    4238:	61 f0       	breq	.+24     	; 0x4252 <Func_Det_Eep_Clear_Mode+0x7a>
    423a:	81 30       	cpi	r24, 0x01	; 1
    423c:	a9 f4       	brne	.+42     	; 0x4268 <Func_Det_Eep_Clear_Mode+0x90>
				case 1:
					sprintf(lcd2_buf,"Event Log");
    423e:	82 e1       	ldi	r24, 0x12	; 18
    4240:	9a e0       	ldi	r25, 0x0A	; 10
    4242:	61 e7       	ldi	r22, 0x71	; 113
    4244:	75 e0       	ldi	r23, 0x05	; 5
    4246:	09 c0       	rjmp	.+18     	; 0x425a <Func_Det_Eep_Clear_Mode+0x82>
					LCD_Display(LCDADD_LINE2_1, lcd2_buf);
					break;
				case 2:
					sprintf(lcd2_buf,"Calibration");
    4248:	82 e1       	ldi	r24, 0x12	; 18
    424a:	9a e0       	ldi	r25, 0x0A	; 10
    424c:	6b e7       	ldi	r22, 0x7B	; 123
    424e:	75 e0       	ldi	r23, 0x05	; 5
    4250:	04 c0       	rjmp	.+8      	; 0x425a <Func_Det_Eep_Clear_Mode+0x82>
					LCD_Display(LCDADD_LINE2_1, lcd2_buf);
					break;
				case 3:
					sprintf(lcd2_buf,"Factory Reset");
    4252:	82 e1       	ldi	r24, 0x12	; 18
    4254:	9a e0       	ldi	r25, 0x0A	; 10
    4256:	67 e8       	ldi	r22, 0x87	; 135
    4258:	75 e0       	ldi	r23, 0x05	; 5
    425a:	0e 94 99 3d 	call	0x7b32	; 0x7b32 <strcpy>
					LCD_Display(LCDADD_LINE2_1, lcd2_buf);
    425e:	81 e4       	ldi	r24, 0x41	; 65
    4260:	62 e1       	ldi	r22, 0x12	; 18
    4262:	7a e0       	ldi	r23, 0x0A	; 10
    4264:	0e 94 e2 0e 	call	0x1dc4	; 0x1dc4 <LCD_Display>
					break;
			}
			
			ModeSetFlow[FMODE_DET_EEP_CLEAR_MODE] = 3;
    4268:	83 e0       	ldi	r24, 0x03	; 3
    426a:	80 93 e0 0a 	sts	0x0AE0, r24
			Det_Modbus_Buf[Det_Comm_Flow] = Commnication_Eep_Clear_Set;
    426e:	82 e0       	ldi	r24, 0x02	; 2
    4270:	90 e0       	ldi	r25, 0x00	; 0
    4272:	90 93 1f 15 	sts	0x151F, r25
    4276:	80 93 1e 15 	sts	0x151E, r24
    427a:	7f c0       	rjmp	.+254    	; 0x437a <Func_Det_Eep_Clear_Mode+0x1a2>
			break;
		case 3:
		case 4:
		case 5:
		case 6:
			sprintf(lcd3_buf,"check time [%02d]", ModeSetFlow[FMODE_DET_EEP_CLEAR_MODE] - 2);
    427c:	00 d0       	rcall	.+0      	; 0x427e <Func_Det_Eep_Clear_Mode+0xa6>
    427e:	00 d0       	rcall	.+0      	; 0x4280 <Func_Det_Eep_Clear_Mode+0xa8>
    4280:	ed b7       	in	r30, 0x3d	; 61
    4282:	fe b7       	in	r31, 0x3e	; 62
    4284:	31 96       	adiw	r30, 0x01	; 1
    4286:	04 e2       	ldi	r16, 0x24	; 36
    4288:	1a e0       	ldi	r17, 0x0A	; 10
    428a:	ad b7       	in	r26, 0x3d	; 61
    428c:	be b7       	in	r27, 0x3e	; 62
    428e:	12 96       	adiw	r26, 0x02	; 2
    4290:	1c 93       	st	X, r17
    4292:	0e 93       	st	-X, r16
    4294:	11 97       	sbiw	r26, 0x01	; 1
    4296:	85 e9       	ldi	r24, 0x95	; 149
    4298:	95 e0       	ldi	r25, 0x05	; 5
    429a:	93 83       	std	Z+3, r25	; 0x03
    429c:	82 83       	std	Z+2, r24	; 0x02
    429e:	82 2f       	mov	r24, r18
    42a0:	90 e0       	ldi	r25, 0x00	; 0
    42a2:	02 97       	sbiw	r24, 0x02	; 2
    42a4:	95 83       	std	Z+5, r25	; 0x05
    42a6:	84 83       	std	Z+4, r24	; 0x04
    42a8:	0e 94 ee 3d 	call	0x7bdc	; 0x7bdc <sprintf>
			LCD_Display(LCDADD_LINE3_0, lcd3_buf);
    42ac:	ed b7       	in	r30, 0x3d	; 61
    42ae:	fe b7       	in	r31, 0x3e	; 62
    42b0:	36 96       	adiw	r30, 0x06	; 6
    42b2:	0f b6       	in	r0, 0x3f	; 63
    42b4:	f8 94       	cli
    42b6:	fe bf       	out	0x3e, r31	; 62
    42b8:	0f be       	out	0x3f, r0	; 63
    42ba:	ed bf       	out	0x3d, r30	; 61
    42bc:	80 e1       	ldi	r24, 0x10	; 16
    42be:	b8 01       	movw	r22, r16
    42c0:	0e 94 e2 0e 	call	0x1dc4	; 0x1dc4 <LCD_Display>
			
			if(ModeSetFlag[FMODE_DET_EEP_CLEAR_RESULT]){
    42c4:	80 91 c2 0a 	lds	r24, 0x0AC2
    42c8:	88 23       	and	r24, r24
    42ca:	09 f4       	brne	.+2      	; 0x42ce <Func_Det_Eep_Clear_Mode+0xf6>
    42cc:	56 c0       	rjmp	.+172    	; 0x437a <Func_Det_Eep_Clear_Mode+0x1a2>
				ModeSetFlag[FMODE_DET_EEP_CLEAR_RESULT] = 0;
    42ce:	10 92 c2 0a 	sts	0x0AC2, r1

				switch(ModeSetFlag[FMODE_DET_EEP_CLEAR_MODE]){
    42d2:	80 91 be 0a 	lds	r24, 0x0ABE
    42d6:	81 30       	cpi	r24, 0x01	; 1
    42d8:	19 f0       	breq	.+6      	; 0x42e0 <Func_Det_Eep_Clear_Mode+0x108>
    42da:	82 30       	cpi	r24, 0x02	; 2
    42dc:	31 f4       	brne	.+12     	; 0x42ea <Func_Det_Eep_Clear_Mode+0x112>
    42de:	0a c0       	rjmp	.+20     	; 0x42f4 <Func_Det_Eep_Clear_Mode+0x11c>
    42e0:	65 e5       	ldi	r22, 0x55	; 85
    42e2:	70 e0       	ldi	r23, 0x00	; 0
    42e4:	47 ed       	ldi	r20, 0xD7	; 215
    42e6:	50 e0       	ldi	r21, 0x00	; 0
    42e8:	09 c0       	rjmp	.+18     	; 0x42fc <Func_Det_Eep_Clear_Mode+0x124>
    42ea:	60 e0       	ldi	r22, 0x00	; 0
    42ec:	70 e0       	ldi	r23, 0x00	; 0
    42ee:	40 e0       	ldi	r20, 0x00	; 0
    42f0:	50 e0       	ldi	r21, 0x00	; 0
    42f2:	04 c0       	rjmp	.+8      	; 0x42fc <Func_Det_Eep_Clear_Mode+0x124>
    42f4:	68 e2       	ldi	r22, 0x28	; 40
    42f6:	70 e0       	ldi	r23, 0x00	; 0
    42f8:	43 e5       	ldi	r20, 0x53	; 83
    42fa:	50 e0       	ldi	r21, 0x00	; 0
						//s_addr = DET_EEP_ANALOG_04MA;
						//e_addr = DET_EEP_MAX;
						break;
				}

				for(i = s_addr; i < e_addr;i++){
    42fc:	b6 2f       	mov	r27, r22
    42fe:	a0 e0       	ldi	r26, 0x00	; 0
					if( (s_addr == DET_EEP_EVT_BIT_IR430_1S_PTOP_MIN) || (s_addr == DET_EEP_EVT_BIT_IR395_1S_PTOP_MIN) || (s_addr == DET_EEP_EVT_BIT_IR530_1S_PTOP_MIN) || (s_addr == DET_EEP_EVT_MIN_TEMP) || (s_addr == DET_EEP_EVT_MAX_TEMP)){
    4300:	eb 01       	movw	r28, r22
    4302:	c5 55       	subi	r28, 0x55	; 85
    4304:	d0 40       	sbci	r29, 0x00	; 0
    4306:	16 c0       	rjmp	.+44     	; 0x4334 <Func_Det_Eep_Clear_Mode+0x15c>
    4308:	c3 30       	cpi	r28, 0x03	; 3
    430a:	d1 05       	cpc	r29, r1
    430c:	88 f0       	brcs	.+34     	; 0x4330 <Func_Det_Eep_Clear_Mode+0x158>
						cnt++;
					}
					else{
						if(Det_Holding_Reg_Data[i] == pgm_read_word( &DET_EEP_SYS_DEFAULT[i] )){
    430e:	8f 01       	movw	r16, r30
    4310:	00 0f       	add	r16, r16
    4312:	11 1f       	adc	r17, r17
    4314:	c8 01       	movw	r24, r16
    4316:	80 5d       	subi	r24, 0xD0	; 208
    4318:	9e 4e       	sbci	r25, 0xEE	; 238
    431a:	fc 01       	movw	r30, r24
    431c:	25 91       	lpm	r18, Z+
    431e:	34 91       	lpm	r19, Z+
    4320:	07 5c       	subi	r16, 0xC7	; 199
    4322:	13 4e       	sbci	r17, 0xE3	; 227
    4324:	f8 01       	movw	r30, r16
    4326:	80 81       	ld	r24, Z
    4328:	91 81       	ldd	r25, Z+1	; 0x01
    432a:	82 17       	cp	r24, r18
    432c:	93 07       	cpc	r25, r19
    432e:	09 f4       	brne	.+2      	; 0x4332 <Func_Det_Eep_Clear_Mode+0x15a>
							cnt++;
    4330:	af 5f       	subi	r26, 0xFF	; 255
						//s_addr = DET_EEP_ANALOG_04MA;
						//e_addr = DET_EEP_MAX;
						break;
				}

				for(i = s_addr; i < e_addr;i++){
    4332:	bf 5f       	subi	r27, 0xFF	; 255
    4334:	eb 2f       	mov	r30, r27
    4336:	f0 e0       	ldi	r31, 0x00	; 0
    4338:	e4 17       	cp	r30, r20
    433a:	f5 07       	cpc	r31, r21
    433c:	28 f3       	brcs	.-54     	; 0x4308 <Func_Det_Eep_Clear_Mode+0x130>
							//fail_cnt++;
						}
					}
				}
				
				if(ModeSetFlow[FMODE_DET_EEP_CLEAR_MODE] > 4){
    433e:	80 91 e0 0a 	lds	r24, 0x0AE0
    4342:	85 30       	cpi	r24, 0x05	; 5
    4344:	d0 f0       	brcs	.+52     	; 0x437a <Func_Det_Eep_Clear_Mode+0x1a2>
					if(cnt == (e_addr - s_addr) ){
    4346:	8a 2f       	mov	r24, r26
    4348:	90 e0       	ldi	r25, 0x00	; 0
    434a:	46 1b       	sub	r20, r22
    434c:	57 0b       	sbc	r21, r23
    434e:	84 17       	cp	r24, r20
    4350:	95 07       	cpc	r25, r21
    4352:	29 f4       	brne	.+10     	; 0x435e <Func_Det_Eep_Clear_Mode+0x186>
						sprintf(lcd4_buf,"Clear Success");
    4354:	82 ef       	ldi	r24, 0xF2	; 242
    4356:	99 e0       	ldi	r25, 0x09	; 9
    4358:	67 ea       	ldi	r22, 0xA7	; 167
    435a:	75 e0       	ldi	r23, 0x05	; 5
    435c:	04 c0       	rjmp	.+8      	; 0x4366 <Func_Det_Eep_Clear_Mode+0x18e>
					}
					else{
						sprintf(lcd4_buf,"Clear Fail...");
    435e:	82 ef       	ldi	r24, 0xF2	; 242
    4360:	99 e0       	ldi	r25, 0x09	; 9
    4362:	65 eb       	ldi	r22, 0xB5	; 181
    4364:	75 e0       	ldi	r23, 0x05	; 5
    4366:	0e 94 99 3d 	call	0x7b32	; 0x7b32 <strcpy>
					}
					LCD_Display(LCDADD_LINE4_0, lcd4_buf);
    436a:	80 e5       	ldi	r24, 0x50	; 80
    436c:	62 ef       	ldi	r22, 0xF2	; 242
    436e:	79 e0       	ldi	r23, 0x09	; 9
    4370:	0e 94 e2 0e 	call	0x1dc4	; 0x1dc4 <LCD_Display>
    4374:	02 c0       	rjmp	.+4      	; 0x437a <Func_Det_Eep_Clear_Mode+0x1a2>
				}
			}
			break;
		case 7:
			Initialize_ModeFlag();
    4376:	0e 94 bb 20 	call	0x4176	; 0x4176 <Initialize_ModeFlag>
	}
}
    437a:	df 91       	pop	r29
    437c:	cf 91       	pop	r28
    437e:	1f 91       	pop	r17
    4380:	0f 91       	pop	r16
    4382:	08 95       	ret

00004384 <Initialize_System>:
};
*/

void Initialize_System(void)
{
	mmi_mode = FMODE_WARM_UP;
    4384:	10 92 cf 0a 	sts	0x0ACF, r1
	
	reg_data = 0;
    4388:	10 92 f1 0a 	sts	0x0AF1, r1
	reg_data_old = 0xff;
    438c:	8f ef       	ldi	r24, 0xFF	; 255
    438e:	80 93 b5 0a 	sts	0x0AB5, r24
	reg_data_flag = 0;
    4392:	10 92 83 0a 	sts	0x0A83, r1
	
	det_power_control = BIT1;
    4396:	82 e0       	ldi	r24, 0x02	; 2
    4398:	80 93 da 0a 	sts	0x0ADA, r24
	det_power_out = 0;
    439c:	10 92 81 0a 	sts	0x0A81, r1
	
	Det_Reboot_Flag = 0;
    43a0:	10 92 d6 0a 	sts	0x0AD6, r1
	Det_System_Check_Flag = 0;
    43a4:	10 92 d3 0a 	sts	0x0AD3, r1
	Det_System_Fault_Flag = 0;
    43a8:	10 92 f5 0a 	sts	0x0AF5, r1
	
	dac_flag = 0;
    43ac:	10 92 b4 0a 	sts	0x0AB4, r1
    43b0:	10 92 b3 0a 	sts	0x0AB3, r1
	dac_data = 1;	// (1153:31.21H)
    43b4:	81 e0       	ldi	r24, 0x01	; 1
    43b6:	90 e0       	ldi	r25, 0x00	; 0
    43b8:	90 93 7f 0a 	sts	0x0A7F, r25
    43bc:	80 93 7e 0a 	sts	0x0A7E, r24
	dac_flag_old = 0xffff;
    43c0:	8f ef       	ldi	r24, 0xFF	; 255
    43c2:	9f ef       	ldi	r25, 0xFF	; 255
    43c4:	90 93 f3 0a 	sts	0x0AF3, r25
    43c8:	80 93 f2 0a 	sts	0x0AF2, r24
	Calibration_Mode_Flow = 0;
    43cc:	10 92 82 0a 	sts	0x0A82, r1
	FullScaleMode = 0;
    43d0:	10 92 d0 0a 	sts	0x0AD0, r1
	
	Calibration_Mode_Count = Det_UV_Calibration_Count_MAX;
    43d4:	86 e4       	ldi	r24, 0x46	; 70
    43d6:	80 93 b1 0a 	sts	0x0AB1, r24
	
	Initialize_ModeFlag();
    43da:	0e 94 bb 20 	call	0x4176	; 0x4176 <Initialize_ModeFlag>
}
    43de:	08 95       	ret

000043e0 <Func_T_Calibration_Mode>:
	}
	*/
}

void Func_T_Calibration_Mode(void)
{
    43e0:	cf 92       	push	r12
    43e2:	df 92       	push	r13
    43e4:	ef 92       	push	r14
    43e6:	ff 92       	push	r15
    43e8:	0f 93       	push	r16
    43ea:	1f 93       	push	r17
    43ec:	cf 93       	push	r28
    43ee:	df 93       	push	r29
U8	i;
U8	Err_cnt = 0;
U8	display_point;
	Det_Status();
    43f0:	0e 94 20 19 	call	0x3240	; 0x3240 <Det_Status>
	
	if(det_power_control & Det_System_Check_Complete){
    43f4:	80 91 da 0a 	lds	r24, 0x0ADA
    43f8:	85 ff       	sbrs	r24, 5
    43fa:	28 c5       	rjmp	.+2640   	; 0x4e4c <Func_T_Calibration_Mode+0xa6c>
		sprintf(lcd1_buf,"[ T Calibrator ]");
    43fc:	82 e0       	ldi	r24, 0x02	; 2
    43fe:	9a e0       	ldi	r25, 0x0A	; 10
    4400:	63 ec       	ldi	r22, 0xC3	; 195
    4402:	75 e0       	ldi	r23, 0x05	; 5
    4404:	0e 94 99 3d 	call	0x7b32	; 0x7b32 <strcpy>
		LCD_Display(LCDADD_LINE1_0, lcd1_buf);
    4408:	80 e0       	ldi	r24, 0x00	; 0
    440a:	62 e0       	ldi	r22, 0x02	; 2
    440c:	7a e0       	ldi	r23, 0x0A	; 10
    440e:	0e 94 e2 0e 	call	0x1dc4	; 0x1dc4 <LCD_Display>

		//sprintf(lcd2_buf,"V:%u", (U16)DAC_OUT_CAL);
		//LCD_Display(LCDADD_LINE2_0, lcd2_buf);
		
		sprintf(lcd2_buf,"FREQ");
    4412:	c2 e1       	ldi	r28, 0x12	; 18
    4414:	da e0       	ldi	r29, 0x0A	; 10
    4416:	ce 01       	movw	r24, r28
    4418:	64 ed       	ldi	r22, 0xD4	; 212
    441a:	75 e0       	ldi	r23, 0x05	; 5
    441c:	0e 94 99 3d 	call	0x7b32	; 0x7b32 <strcpy>
		LCD_Display(LCDADD_LINE2_0, lcd2_buf);		
    4420:	80 e4       	ldi	r24, 0x40	; 64
    4422:	be 01       	movw	r22, r28
    4424:	0e 94 e2 0e 	call	0x1dc4	; 0x1dc4 <LCD_Display>
				
		//sprintf(lcd2_buf,"T:%02d/", Calibration_Mode_Count);
		//LCD_Display(LCDADD_LINE2_8, lcd2_buf);

		sprintf(lcd3_buf,"H:%3u.%02u", (blackbody_freq / 100), (blackbody_freq % 100));
    4428:	20 91 84 0a 	lds	r18, 0x0A84
    442c:	30 91 85 0a 	lds	r19, 0x0A85
    4430:	8d b7       	in	r24, 0x3d	; 61
    4432:	9e b7       	in	r25, 0x3e	; 62
    4434:	08 97       	sbiw	r24, 0x08	; 8
    4436:	0f b6       	in	r0, 0x3f	; 63
    4438:	f8 94       	cli
    443a:	9e bf       	out	0x3e, r25	; 62
    443c:	0f be       	out	0x3f, r0	; 63
    443e:	8d bf       	out	0x3d, r24	; 61
    4440:	ed b7       	in	r30, 0x3d	; 61
    4442:	fe b7       	in	r31, 0x3e	; 62
    4444:	31 96       	adiw	r30, 0x01	; 1
    4446:	64 e2       	ldi	r22, 0x24	; 36
    4448:	e6 2e       	mov	r14, r22
    444a:	6a e0       	ldi	r22, 0x0A	; 10
    444c:	f6 2e       	mov	r15, r22
    444e:	ad b7       	in	r26, 0x3d	; 61
    4450:	be b7       	in	r27, 0x3e	; 62
    4452:	12 96       	adiw	r26, 0x02	; 2
    4454:	fc 92       	st	X, r15
    4456:	ee 92       	st	-X, r14
    4458:	11 97       	sbiw	r26, 0x01	; 1
    445a:	89 ed       	ldi	r24, 0xD9	; 217
    445c:	95 e0       	ldi	r25, 0x05	; 5
    445e:	93 83       	std	Z+3, r25	; 0x03
    4460:	82 83       	std	Z+2, r24	; 0x02
    4462:	c9 01       	movw	r24, r18
    4464:	64 e6       	ldi	r22, 0x64	; 100
    4466:	70 e0       	ldi	r23, 0x00	; 0
    4468:	0e 94 4e 3d 	call	0x7a9c	; 0x7a9c <__udivmodhi4>
    446c:	75 83       	std	Z+5, r23	; 0x05
    446e:	64 83       	std	Z+4, r22	; 0x04
    4470:	c9 01       	movw	r24, r18
    4472:	64 e6       	ldi	r22, 0x64	; 100
    4474:	70 e0       	ldi	r23, 0x00	; 0
    4476:	0e 94 4e 3d 	call	0x7a9c	; 0x7a9c <__udivmodhi4>
    447a:	97 83       	std	Z+7, r25	; 0x07
    447c:	86 83       	std	Z+6, r24	; 0x06
    447e:	0e 94 ee 3d 	call	0x7bdc	; 0x7bdc <sprintf>
		LCD_Display(LCDADD_LINE3_0, lcd3_buf);
    4482:	ed b7       	in	r30, 0x3d	; 61
    4484:	fe b7       	in	r31, 0x3e	; 62
    4486:	38 96       	adiw	r30, 0x08	; 8
    4488:	0f b6       	in	r0, 0x3f	; 63
    448a:	f8 94       	cli
    448c:	fe bf       	out	0x3e, r31	; 62
    448e:	0f be       	out	0x3f, r0	; 63
    4490:	ed bf       	out	0x3d, r30	; 61
    4492:	80 e1       	ldi	r24, 0x10	; 16
    4494:	b7 01       	movw	r22, r14
    4496:	0e 94 e2 0e 	call	0x1dc4	; 0x1dc4 <LCD_Display>
		
		sprintf(lcd4_buf,"D:%5u", dac_data);
    449a:	00 d0       	rcall	.+0      	; 0x449c <Func_T_Calibration_Mode+0xbc>
    449c:	00 d0       	rcall	.+0      	; 0x449e <Func_T_Calibration_Mode+0xbe>
    449e:	ed b7       	in	r30, 0x3d	; 61
    44a0:	fe b7       	in	r31, 0x3e	; 62
    44a2:	31 96       	adiw	r30, 0x01	; 1
    44a4:	02 ef       	ldi	r16, 0xF2	; 242
    44a6:	19 e0       	ldi	r17, 0x09	; 9
    44a8:	ad b7       	in	r26, 0x3d	; 61
    44aa:	be b7       	in	r27, 0x3e	; 62
    44ac:	12 96       	adiw	r26, 0x02	; 2
    44ae:	1c 93       	st	X, r17
    44b0:	0e 93       	st	-X, r16
    44b2:	11 97       	sbiw	r26, 0x01	; 1
    44b4:	84 ee       	ldi	r24, 0xE4	; 228
    44b6:	95 e0       	ldi	r25, 0x05	; 5
    44b8:	93 83       	std	Z+3, r25	; 0x03
    44ba:	82 83       	std	Z+2, r24	; 0x02
    44bc:	80 91 7e 0a 	lds	r24, 0x0A7E
    44c0:	90 91 7f 0a 	lds	r25, 0x0A7F
    44c4:	95 83       	std	Z+5, r25	; 0x05
    44c6:	84 83       	std	Z+4, r24	; 0x04
    44c8:	0e 94 ee 3d 	call	0x7bdc	; 0x7bdc <sprintf>
		LCD_Display(LCDADD_LINE4_0, lcd4_buf);
    44cc:	ed b7       	in	r30, 0x3d	; 61
    44ce:	fe b7       	in	r31, 0x3e	; 62
    44d0:	36 96       	adiw	r30, 0x06	; 6
    44d2:	0f b6       	in	r0, 0x3f	; 63
    44d4:	f8 94       	cli
    44d6:	fe bf       	out	0x3e, r31	; 62
    44d8:	0f be       	out	0x3f, r0	; 63
    44da:	ed bf       	out	0x3d, r30	; 61
    44dc:	80 e5       	ldi	r24, 0x50	; 80
    44de:	b8 01       	movw	r22, r16
    44e0:	0e 94 e2 0e 	call	0x1dc4	; 0x1dc4 <LCD_Display>
		
		//dac7571_dac_wr(dac_data);
#if 1		
		display_point = 6;
					
		switch(Calibration_Mode_Flow){
    44e4:	80 91 82 0a 	lds	r24, 0x0A82
    44e8:	82 30       	cpi	r24, 0x02	; 2
    44ea:	09 f4       	brne	.+2      	; 0x44ee <Func_T_Calibration_Mode+0x10e>
    44ec:	ab c1       	rjmp	.+854    	; 0x4844 <Func_T_Calibration_Mode+0x464>
    44ee:	83 30       	cpi	r24, 0x03	; 3
    44f0:	38 f4       	brcc	.+14     	; 0x4500 <Func_T_Calibration_Mode+0x120>
    44f2:	88 23       	and	r24, r24
    44f4:	09 f4       	brne	.+2      	; 0x44f8 <Func_T_Calibration_Mode+0x118>
    44f6:	8a c0       	rjmp	.+276    	; 0x460c <Func_T_Calibration_Mode+0x22c>
    44f8:	81 30       	cpi	r24, 0x01	; 1
    44fa:	09 f0       	breq	.+2      	; 0x44fe <Func_T_Calibration_Mode+0x11e>
    44fc:	a7 c4       	rjmp	.+2382   	; 0x4e4c <Func_T_Calibration_Mode+0xa6c>
    44fe:	0c c1       	rjmp	.+536    	; 0x4718 <Func_T_Calibration_Mode+0x338>
    4500:	84 30       	cpi	r24, 0x04	; 4
    4502:	39 f0       	breq	.+14     	; 0x4512 <Func_T_Calibration_Mode+0x132>
    4504:	84 30       	cpi	r24, 0x04	; 4
    4506:	08 f4       	brcc	.+2      	; 0x450a <Func_T_Calibration_Mode+0x12a>
    4508:	2b c2       	rjmp	.+1110   	; 0x4960 <Func_T_Calibration_Mode+0x580>
    450a:	85 30       	cpi	r24, 0x05	; 5
    450c:	09 f0       	breq	.+2      	; 0x4510 <Func_T_Calibration_Mode+0x130>
    450e:	9e c4       	rjmp	.+2364   	; 0x4e4c <Func_T_Calibration_Mode+0xa6c>
    4510:	7d c0       	rjmp	.+250    	; 0x460c <Func_T_Calibration_Mode+0x22c>
			case 4:
				if(blackbody_ctr_flag){
    4512:	80 91 d4 0a 	lds	r24, 0x0AD4
    4516:	90 91 d5 0a 	lds	r25, 0x0AD5
    451a:	89 2b       	or	r24, r25
    451c:	09 f4       	brne	.+2      	; 0x4520 <Func_T_Calibration_Mode+0x140>
    451e:	76 c0       	rjmp	.+236    	; 0x460c <Func_T_Calibration_Mode+0x22c>
					blackbody_ctr_flag = 0;
    4520:	10 92 d5 0a 	sts	0x0AD5, r1
    4524:	10 92 d4 0a 	sts	0x0AD4, r1
					
					sprintf(lcd2_buf+display_point,"C");
    4528:	ce 01       	movw	r24, r28
    452a:	06 96       	adiw	r24, 0x06	; 6
    452c:	6c e2       	ldi	r22, 0x2C	; 44
    452e:	75 e0       	ldi	r23, 0x05	; 5
    4530:	0e 94 99 3d 	call	0x7b32	; 0x7b32 <strcpy>
					LCD_PartDis(LCDADD_LINE2_0+display_point, (U8*)(lcd2_buf+display_point),1);
    4534:	86 e4       	ldi	r24, 0x46	; 70
    4536:	be 01       	movw	r22, r28
    4538:	6a 5f       	subi	r22, 0xFA	; 250
    453a:	7f 4f       	sbci	r23, 0xFF	; 255
    453c:	41 e0       	ldi	r20, 0x01	; 1
    453e:	0e 94 c6 0e 	call	0x1d8c	; 0x1d8c <LCD_PartDis>
					
					sprintf(lcd2_buf,"00");
    4542:	ce 01       	movw	r24, r28
    4544:	6a ee       	ldi	r22, 0xEA	; 234
    4546:	75 e0       	ldi	r23, 0x05	; 5
    4548:	0e 94 99 3d 	call	0x7b32	; 0x7b32 <strcpy>
					LCD_Display(LCDADD_LINE2_13, lcd2_buf);
    454c:	8d e4       	ldi	r24, 0x4D	; 77
    454e:	be 01       	movw	r22, r28
    4550:	0e 94 e2 0e 	call	0x1dc4	; 0x1dc4 <LCD_Display>
					
					if(Calibration_Mode_Count == 0){
    4554:	80 91 b1 0a 	lds	r24, 0x0AB1
    4558:	88 23       	and	r24, r24
    455a:	09 f0       	breq	.+2      	; 0x455e <Func_T_Calibration_Mode+0x17e>
    455c:	57 c0       	rjmp	.+174    	; 0x460c <Func_T_Calibration_Mode+0x22c>
    455e:	c6 e8       	ldi	r28, 0x86	; 134
    4560:	da e0       	ldi	r29, 0x0A	; 10
    4562:	0b e8       	ldi	r16, 0x8B	; 139
    4564:	1c e1       	ldi	r17, 0x1C	; 28
    4566:	ff 24       	eor	r15, r15
    4568:	ee 24       	eor	r14, r14
						for(i=0;i<IR_SENSOR_MAX * 7;i++){
							DPRINT1(",%4d ", Det_IrAvPtoP_Data[i]);
    456a:	5d ee       	ldi	r21, 0xED	; 237
    456c:	c5 2e       	mov	r12, r21
    456e:	55 e0       	ldi	r21, 0x05	; 5
    4570:	d5 2e       	mov	r13, r21
    4572:	00 d0       	rcall	.+0      	; 0x4574 <Func_T_Calibration_Mode+0x194>
    4574:	0f 92       	push	r0
    4576:	ad b7       	in	r26, 0x3d	; 61
    4578:	be b7       	in	r27, 0x3e	; 62
    457a:	12 96       	adiw	r26, 0x02	; 2
    457c:	dc 92       	st	X, r13
    457e:	ce 92       	st	-X, r12
    4580:	11 97       	sbiw	r26, 0x01	; 1
    4582:	88 81       	ld	r24, Y
    4584:	99 81       	ldd	r25, Y+1	; 0x01
    4586:	14 96       	adiw	r26, 0x04	; 4
    4588:	9c 93       	st	X, r25
    458a:	8e 93       	st	-X, r24
    458c:	13 97       	sbiw	r26, 0x03	; 3
    458e:	0e 94 a0 3d 	call	0x7b40	; 0x7b40 <printf>
							if(i == 6){
    4592:	0f 90       	pop	r0
    4594:	0f 90       	pop	r0
    4596:	0f 90       	pop	r0
    4598:	0f 90       	pop	r0
    459a:	b6 e0       	ldi	r27, 0x06	; 6
    459c:	fb 16       	cp	r15, r27
    459e:	31 f0       	breq	.+12     	; 0x45ac <Func_T_Calibration_Mode+0x1cc>
								DPRINT("\n");
							}
							if(i == 13){
    45a0:	ed e0       	ldi	r30, 0x0D	; 13
    45a2:	fe 16       	cp	r15, r30
    45a4:	19 f0       	breq	.+6      	; 0x45ac <Func_T_Calibration_Mode+0x1cc>
								DPRINT("\n");
							}
							if(i == 20){
    45a6:	f4 e1       	ldi	r31, 0x14	; 20
    45a8:	ff 16       	cp	r15, r31
    45aa:	21 f4       	brne	.+8      	; 0x45b4 <Func_T_Calibration_Mode+0x1d4>
								DPRINT("\n");
    45ac:	8a e0       	ldi	r24, 0x0A	; 10
    45ae:	90 e0       	ldi	r25, 0x00	; 0
    45b0:	0e 94 b2 3d 	call	0x7b64	; 0x7b64 <putchar>
							}
							
							if(Det_IrAvPtoP_Data[i] != Det_Holding_Reg_Data[DET_EEP_CAL_BUF_IR430_01 + i]){
    45b4:	28 81       	ld	r18, Y
    45b6:	39 81       	ldd	r19, Y+1	; 0x01
    45b8:	d8 01       	movw	r26, r16
    45ba:	8d 91       	ld	r24, X+
    45bc:	9c 91       	ld	r25, X
    45be:	28 17       	cp	r18, r24
    45c0:	39 07       	cpc	r19, r25
    45c2:	09 f0       	breq	.+2      	; 0x45c6 <Func_T_Calibration_Mode+0x1e6>
								Err_cnt++;
    45c4:	e3 94       	inc	r14
					
					sprintf(lcd2_buf,"00");
					LCD_Display(LCDADD_LINE2_13, lcd2_buf);
					
					if(Calibration_Mode_Count == 0){
						for(i=0;i<IR_SENSOR_MAX * 7;i++){
    45c6:	f3 94       	inc	r15
    45c8:	22 96       	adiw	r28, 0x02	; 2
    45ca:	0e 5f       	subi	r16, 0xFE	; 254
    45cc:	1f 4f       	sbci	r17, 0xFF	; 255
    45ce:	b5 e1       	ldi	r27, 0x15	; 21
    45d0:	fb 16       	cp	r15, r27
    45d2:	79 f6       	brne	.-98     	; 0x4572 <Func_T_Calibration_Mode+0x192>
							if(Det_IrAvPtoP_Data[i] != Det_Holding_Reg_Data[DET_EEP_CAL_BUF_IR430_01 + i]){
								Err_cnt++;
							}
						}
						
						memset( Det_IrAvPtoP_Sum, 0, sizeof(Det_IrAvPtoP_Sum) );
    45d4:	86 e0       	ldi	r24, 0x06	; 6
    45d6:	ec e4       	ldi	r30, 0x4C	; 76
    45d8:	fa e0       	ldi	r31, 0x0A	; 10
    45da:	df 01       	movw	r26, r30
    45dc:	1d 92       	st	X+, r1
    45de:	8a 95       	dec	r24
    45e0:	e9 f7       	brne	.-6      	; 0x45dc <Func_T_Calibration_Mode+0x1fc>
						
						Calibration_Mode_Flow = 5;
    45e2:	85 e0       	ldi	r24, 0x05	; 5
    45e4:	80 93 82 0a 	sts	0x0A82, r24
						
						if(Err_cnt){
    45e8:	ee 20       	and	r14, r14
    45ea:	29 f0       	breq	.+10     	; 0x45f6 <Func_T_Calibration_Mode+0x216>
							//sprintf(lcd4_buf,"[ F    %02u    ]", Err_cnt);
							sprintf(lcd4_buf,"F");
    45ec:	82 ef       	ldi	r24, 0xF2	; 242
    45ee:	99 e0       	ldi	r25, 0x09	; 9
    45f0:	63 ef       	ldi	r22, 0xF3	; 243
    45f2:	75 e0       	ldi	r23, 0x05	; 5
    45f4:	04 c0       	rjmp	.+8      	; 0x45fe <Func_T_Calibration_Mode+0x21e>
							LCD_Display(LCDADD_LINE4_8, lcd4_buf);
						}
						else{
							//sprintf(lcd4_buf,"[      OK      ]");
							sprintf(lcd4_buf,"OK");
    45f6:	82 ef       	ldi	r24, 0xF2	; 242
    45f8:	99 e0       	ldi	r25, 0x09	; 9
    45fa:	6a e9       	ldi	r22, 0x9A	; 154
    45fc:	72 e0       	ldi	r23, 0x02	; 2
    45fe:	0e 94 99 3d 	call	0x7b32	; 0x7b32 <strcpy>
							LCD_Display(LCDADD_LINE4_8, lcd4_buf);
    4602:	88 e5       	ldi	r24, 0x58	; 88
    4604:	62 ef       	ldi	r22, 0xF2	; 242
    4606:	79 e0       	ldi	r23, 0x09	; 9
    4608:	0e 94 e2 0e 	call	0x1dc4	; 0x1dc4 <LCD_Display>
						}
					}
				}
			case 0:
			case 5:
				sprintf(lcd2_buf,"00/00");
    460c:	82 e1       	ldi	r24, 0x12	; 18
    460e:	9a e0       	ldi	r25, 0x0A	; 10
    4610:	65 ef       	ldi	r22, 0xF5	; 245
    4612:	75 e0       	ldi	r23, 0x05	; 5
    4614:	0e 94 99 3d 	call	0x7b32	; 0x7b32 <strcpy>
				LCD_Display(LCDADD_LINE2_10, lcd2_buf);
    4618:	8a e4       	ldi	r24, 0x4A	; 74
    461a:	62 e1       	ldi	r22, 0x12	; 18
    461c:	7a e0       	ldi	r23, 0x0A	; 10
    461e:	0e 94 e2 0e 	call	0x1dc4	; 0x1dc4 <LCD_Display>
				dac_flag_old = 0xff;
    4622:	8f ef       	ldi	r24, 0xFF	; 255
    4624:	90 e0       	ldi	r25, 0x00	; 0
    4626:	90 93 f3 0a 	sts	0x0AF3, r25
    462a:	80 93 f2 0a 	sts	0x0AF2, r24
				
				if(FullScaleMode){
    462e:	80 91 d0 0a 	lds	r24, 0x0AD0
    4632:	88 23       	and	r24, r24
    4634:	09 f4       	brne	.+2      	; 0x4638 <Func_T_Calibration_Mode+0x258>
    4636:	52 c0       	rjmp	.+164    	; 0x46dc <Func_T_Calibration_Mode+0x2fc>
					// Full scale Mode
					dac7571_dac_wr(dac_data);
    4638:	80 91 7e 0a 	lds	r24, 0x0A7E
    463c:	90 91 7f 0a 	lds	r25, 0x0A7F
    4640:	0e 94 4d 36 	call	0x6c9a	; 0x6c9a <dac7571_dac_wr>
					sprintf(lcd3_buf,"FS");
    4644:	84 e2       	ldi	r24, 0x24	; 36
    4646:	9a e0       	ldi	r25, 0x0A	; 10
    4648:	6b ef       	ldi	r22, 0xFB	; 251
    464a:	75 e0       	ldi	r23, 0x05	; 5
    464c:	0e 94 99 3d 	call	0x7b32	; 0x7b32 <strcpy>
					LCD_Display(LCDADD_LINE3_13, lcd3_buf);
    4650:	8d e1       	ldi	r24, 0x1D	; 29
    4652:	64 e2       	ldi	r22, 0x24	; 36
    4654:	7a e0       	ldi	r23, 0x0A	; 10
    4656:	0e 94 e2 0e 	call	0x1dc4	; 0x1dc4 <LCD_Display>
					if(dac_data == 0xfff){
    465a:	80 91 7e 0a 	lds	r24, 0x0A7E
    465e:	90 91 7f 0a 	lds	r25, 0x0A7F
    4662:	8f 5f       	subi	r24, 0xFF	; 255
    4664:	9f 40       	sbci	r25, 0x0F	; 15
    4666:	a1 f4       	brne	.+40     	; 0x4690 <Func_T_Calibration_Mode+0x2b0>
						dac_data = 200;
    4668:	88 ec       	ldi	r24, 0xC8	; 200
    466a:	90 e0       	ldi	r25, 0x00	; 0
    466c:	90 93 7f 0a 	sts	0x0A7F, r25
    4670:	80 93 7e 0a 	sts	0x0A7E, r24
						FullScaleMode = 0;
    4674:	10 92 d0 0a 	sts	0x0AD0, r1
						Det_Modbus_Buf[Det_Comm_Flow] = Commnication_Data_Set;
    4678:	88 e0       	ldi	r24, 0x08	; 8
    467a:	90 e0       	ldi	r25, 0x00	; 0
    467c:	90 93 1f 15 	sts	0x151F, r25
    4680:	80 93 1e 15 	sts	0x151E, r24
						Det_Write_Single_Func(DET_EEP_LOG_MODE, 0);
    4684:	85 e0       	ldi	r24, 0x05	; 5
    4686:	90 e0       	ldi	r25, 0x00	; 0
    4688:	60 e0       	ldi	r22, 0x00	; 0
    468a:	70 e0       	ldi	r23, 0x00	; 0
    468c:	0e 94 ad 33 	call	0x675a	; 0x675a <Det_Write_Single_Func>
					}
					if(dac_data < 200){
    4690:	80 91 7e 0a 	lds	r24, 0x0A7E
    4694:	90 91 7f 0a 	lds	r25, 0x0A7F
    4698:	88 3c       	cpi	r24, 0xC8	; 200
    469a:	91 05       	cpc	r25, r1
    469c:	90 f4       	brcc	.+36     	; 0x46c2 <Func_T_Calibration_Mode+0x2e2>
						dac_data = 200;
    469e:	88 ec       	ldi	r24, 0xC8	; 200
    46a0:	90 e0       	ldi	r25, 0x00	; 0
    46a2:	90 93 7f 0a 	sts	0x0A7F, r25
    46a6:	80 93 7e 0a 	sts	0x0A7E, r24
						Det_Modbus_Buf[Det_Comm_Flow] = Commnication_Data_Set;
    46aa:	88 e0       	ldi	r24, 0x08	; 8
    46ac:	90 e0       	ldi	r25, 0x00	; 0
    46ae:	90 93 1f 15 	sts	0x151F, r25
    46b2:	80 93 1e 15 	sts	0x151E, r24
						Det_Write_Single_Func(DET_EEP_LOG_MODE, 3);
    46b6:	85 e0       	ldi	r24, 0x05	; 5
    46b8:	90 e0       	ldi	r25, 0x00	; 0
    46ba:	63 e0       	ldi	r22, 0x03	; 3
    46bc:	70 e0       	ldi	r23, 0x00	; 0
    46be:	0e 94 ad 33 	call	0x675a	; 0x675a <Det_Write_Single_Func>
					}
					if(dac_data < 260){
    46c2:	80 91 7e 0a 	lds	r24, 0x0A7E
    46c6:	90 91 7f 0a 	lds	r25, 0x0A7F
    46ca:	84 50       	subi	r24, 0x04	; 4
    46cc:	91 40       	sbci	r25, 0x01	; 1
    46ce:	00 f1       	brcs	.+64     	; 0x4710 <Func_T_Calibration_Mode+0x330>
						EXT_BIT_ON();
					}
					else{
						EXT_BIT_OFF();
    46d0:	80 91 05 01 	lds	r24, 0x0105
    46d4:	8b 7f       	andi	r24, 0xFB	; 251
    46d6:	80 93 05 01 	sts	0x0105, r24
    46da:	b8 c3       	rjmp	.+1904   	; 0x4e4c <Func_T_Calibration_Mode+0xa6c>
					}
				}
				else{
					dac_data = 0;	
    46dc:	10 92 7f 0a 	sts	0x0A7F, r1
    46e0:	10 92 7e 0a 	sts	0x0A7E, r1
					dac7571_dac_wr(dac_data);
    46e4:	80 e0       	ldi	r24, 0x00	; 0
    46e6:	90 e0       	ldi	r25, 0x00	; 0
    46e8:	0e 94 4d 36 	call	0x6c9a	; 0x6c9a <dac7571_dac_wr>
					sprintf(lcd3_buf,"  ");
    46ec:	84 e2       	ldi	r24, 0x24	; 36
    46ee:	9a e0       	ldi	r25, 0x0A	; 10
    46f0:	6e ef       	ldi	r22, 0xFE	; 254
    46f2:	75 e0       	ldi	r23, 0x05	; 5
    46f4:	0e 94 99 3d 	call	0x7b32	; 0x7b32 <strcpy>
					LCD_Display(LCDADD_LINE3_13, lcd3_buf);
    46f8:	8d e1       	ldi	r24, 0x1D	; 29
    46fa:	64 e2       	ldi	r22, 0x24	; 36
    46fc:	7a e0       	ldi	r23, 0x0A	; 10
    46fe:	0e 94 e2 0e 	call	0x1dc4	; 0x1dc4 <LCD_Display>
					if(blackbody_freq > 500){
    4702:	80 91 84 0a 	lds	r24, 0x0A84
    4706:	90 91 85 0a 	lds	r25, 0x0A85
    470a:	85 5f       	subi	r24, 0xF5	; 245
    470c:	91 40       	sbci	r25, 0x01	; 1
    470e:	00 f3       	brcs	.-64     	; 0x46d0 <Func_T_Calibration_Mode+0x2f0>
						EXT_BIT_ON();
    4710:	80 91 05 01 	lds	r24, 0x0105
    4714:	84 60       	ori	r24, 0x04	; 4
    4716:	df cf       	rjmp	.-66     	; 0x46d6 <Func_T_Calibration_Mode+0x2f6>
						EXT_BIT_OFF();
					}
				}
				break;
			case 1:
				if(blackbody_ctr_flag){
    4718:	80 91 d4 0a 	lds	r24, 0x0AD4
    471c:	90 91 d5 0a 	lds	r25, 0x0AD5
    4720:	89 2b       	or	r24, r25
    4722:	09 f4       	brne	.+2      	; 0x4726 <Func_T_Calibration_Mode+0x346>
    4724:	85 c0       	rjmp	.+266    	; 0x4830 <Func_T_Calibration_Mode+0x450>
					blackbody_ctr_flag = 0;
    4726:	10 92 d5 0a 	sts	0x0AD5, r1
    472a:	10 92 d4 0a 	sts	0x0AD4, r1
					sprintf(lcd2_buf+display_point,"D");
    472e:	ce 01       	movw	r24, r28
    4730:	06 96       	adiw	r24, 0x06	; 6
    4732:	61 e0       	ldi	r22, 0x01	; 1
    4734:	76 e0       	ldi	r23, 0x06	; 6
    4736:	0e 94 99 3d 	call	0x7b32	; 0x7b32 <strcpy>
					LCD_PartDis(LCDADD_LINE2_0+display_point, (U8*)(lcd2_buf+display_point),1);
    473a:	86 e4       	ldi	r24, 0x46	; 70
    473c:	be 01       	movw	r22, r28
    473e:	6a 5f       	subi	r22, 0xFA	; 250
    4740:	7f 4f       	sbci	r23, 0xFF	; 255
    4742:	41 e0       	ldi	r20, 0x01	; 1
    4744:	0e 94 c6 0e 	call	0x1d8c	; 0x1d8c <LCD_PartDis>
					
					sprintf(lcd2_buf,"T:%02d/%02d", Calibration_Mode_Count, Det_BlackBody_Delay_Count);
    4748:	8d b7       	in	r24, 0x3d	; 61
    474a:	9e b7       	in	r25, 0x3e	; 62
    474c:	08 97       	sbiw	r24, 0x08	; 8
    474e:	0f b6       	in	r0, 0x3f	; 63
    4750:	f8 94       	cli
    4752:	9e bf       	out	0x3e, r25	; 62
    4754:	0f be       	out	0x3f, r0	; 63
    4756:	8d bf       	out	0x3d, r24	; 61
    4758:	ed b7       	in	r30, 0x3d	; 61
    475a:	fe b7       	in	r31, 0x3e	; 62
    475c:	31 96       	adiw	r30, 0x01	; 1
    475e:	ad b7       	in	r26, 0x3d	; 61
    4760:	be b7       	in	r27, 0x3e	; 62
    4762:	12 96       	adiw	r26, 0x02	; 2
    4764:	dc 93       	st	X, r29
    4766:	ce 93       	st	-X, r28
    4768:	11 97       	sbiw	r26, 0x01	; 1
    476a:	83 e0       	ldi	r24, 0x03	; 3
    476c:	96 e0       	ldi	r25, 0x06	; 6
    476e:	93 83       	std	Z+3, r25	; 0x03
    4770:	82 83       	std	Z+2, r24	; 0x02
    4772:	80 91 b1 0a 	lds	r24, 0x0AB1
    4776:	84 83       	std	Z+4, r24	; 0x04
    4778:	15 82       	std	Z+5, r1	; 0x05
    477a:	85 e0       	ldi	r24, 0x05	; 5
    477c:	90 e0       	ldi	r25, 0x00	; 0
    477e:	97 83       	std	Z+7, r25	; 0x07
    4780:	86 83       	std	Z+6, r24	; 0x06
    4782:	0e 94 ee 3d 	call	0x7bdc	; 0x7bdc <sprintf>
					LCD_Display(LCDADD_LINE2_8, lcd2_buf);
    4786:	ed b7       	in	r30, 0x3d	; 61
    4788:	fe b7       	in	r31, 0x3e	; 62
    478a:	38 96       	adiw	r30, 0x08	; 8
    478c:	0f b6       	in	r0, 0x3f	; 63
    478e:	f8 94       	cli
    4790:	fe bf       	out	0x3e, r31	; 62
    4792:	0f be       	out	0x3f, r0	; 63
    4794:	ed bf       	out	0x3d, r30	; 61
    4796:	88 e4       	ldi	r24, 0x48	; 72
    4798:	be 01       	movw	r22, r28
    479a:	0e 94 e2 0e 	call	0x1dc4	; 0x1dc4 <LCD_Display>
					//sprintf(lcd2_buf,"%02d", Det_BlackBody_Delay_Count);
					//LCD_Display(LCDADD_LINE2_13, lcd2_buf);
					
					//DPRINT1("CNT D = %d, ",Calibration_Mode_Count);
					if(dac_flag != dac_flag_old){
    479e:	20 91 b3 0a 	lds	r18, 0x0AB3
    47a2:	30 91 b4 0a 	lds	r19, 0x0AB4
    47a6:	80 91 f2 0a 	lds	r24, 0x0AF2
    47aa:	90 91 f3 0a 	lds	r25, 0x0AF3
    47ae:	28 17       	cp	r18, r24
    47b0:	39 07       	cpc	r19, r25
    47b2:	09 f4       	brne	.+2      	; 0x47b6 <Func_T_Calibration_Mode+0x3d6>
    47b4:	3d c0       	rjmp	.+122    	; 0x4830 <Func_T_Calibration_Mode+0x450>
						if(dac_flag == 1){
    47b6:	21 30       	cpi	r18, 0x01	; 1
    47b8:	31 05       	cpc	r19, r1
    47ba:	71 f4       	brne	.+28     	; 0x47d8 <Func_T_Calibration_Mode+0x3f8>
							printf("T = ");
    47bc:	0f 92       	push	r0
    47be:	0f 92       	push	r0
    47c0:	8f e0       	ldi	r24, 0x0F	; 15
    47c2:	96 e0       	ldi	r25, 0x06	; 6
    47c4:	ad b7       	in	r26, 0x3d	; 61
    47c6:	be b7       	in	r27, 0x3e	; 62
    47c8:	12 96       	adiw	r26, 0x02	; 2
    47ca:	9c 93       	st	X, r25
    47cc:	8e 93       	st	-X, r24
    47ce:	11 97       	sbiw	r26, 0x01	; 1
    47d0:	0e 94 a0 3d 	call	0x7b40	; 0x7b40 <printf>
    47d4:	0f 90       	pop	r0
    47d6:	0f 90       	pop	r0
						}	
						printf(",%d ", Det_Input_Reg_Data[DET_InputReg_Tempareture]);
    47d8:	00 d0       	rcall	.+0      	; 0x47da <Func_T_Calibration_Mode+0x3fa>
    47da:	0f 92       	push	r0
    47dc:	84 e1       	ldi	r24, 0x14	; 20
    47de:	96 e0       	ldi	r25, 0x06	; 6
    47e0:	ed b7       	in	r30, 0x3d	; 61
    47e2:	fe b7       	in	r31, 0x3e	; 62
    47e4:	92 83       	std	Z+2, r25	; 0x02
    47e6:	81 83       	std	Z+1, r24	; 0x01
    47e8:	80 91 9f 0f 	lds	r24, 0x0F9F
    47ec:	90 91 a0 0f 	lds	r25, 0x0FA0
    47f0:	94 83       	std	Z+4, r25	; 0x04
    47f2:	83 83       	std	Z+3, r24	; 0x03
    47f4:	0e 94 a0 3d 	call	0x7b40	; 0x7b40 <printf>
					
						dac_data = pgm_read_word( &DAC_DATA[dac_flag] );
    47f8:	e0 91 b3 0a 	lds	r30, 0x0AB3
    47fc:	f0 91 b4 0a 	lds	r31, 0x0AB4
    4800:	ee 0f       	add	r30, r30
    4802:	ff 1f       	adc	r31, r31
    4804:	e4 50       	subi	r30, 0x04	; 4
    4806:	ff 4e       	sbci	r31, 0xEF	; 239
    4808:	85 91       	lpm	r24, Z+
    480a:	94 91       	lpm	r25, Z+
    480c:	90 93 7f 0a 	sts	0x0A7F, r25
    4810:	80 93 7e 0a 	sts	0x0A7E, r24
						dac7571_dac_wr(dac_data);
    4814:	0f 90       	pop	r0
    4816:	0f 90       	pop	r0
    4818:	0f 90       	pop	r0
    481a:	0f 90       	pop	r0
    481c:	0e 94 4d 36 	call	0x6c9a	; 0x6c9a <dac7571_dac_wr>
						dac_flag_old = dac_flag;
    4820:	80 91 b3 0a 	lds	r24, 0x0AB3
    4824:	90 91 b4 0a 	lds	r25, 0x0AB4
    4828:	90 93 f3 0a 	sts	0x0AF3, r25
    482c:	80 93 f2 0a 	sts	0x0AF2, r24
						//DPRINT2("dac_flag = %d, dac_data = %d ", dac_flag, dac_data);
					}
					//DPRINT("\n");
				}
				
				if(Calibration_Mode_Count == 0){
    4830:	80 91 b1 0a 	lds	r24, 0x0AB1
    4834:	88 23       	and	r24, r24
    4836:	09 f0       	breq	.+2      	; 0x483a <Func_T_Calibration_Mode+0x45a>
    4838:	09 c3       	rjmp	.+1554   	; 0x4e4c <Func_T_Calibration_Mode+0xa6c>
					Calibration_Mode_Flow = 2;
    483a:	82 e0       	ldi	r24, 0x02	; 2
    483c:	80 93 82 0a 	sts	0x0A82, r24
					Calibration_Mode_Count = Det_BlackBody_Stabilize_Count;
    4840:	8c e3       	ldi	r24, 0x3C	; 60
    4842:	8b c0       	rjmp	.+278    	; 0x495a <Func_T_Calibration_Mode+0x57a>
				}
				break;
			case 2:
				if(blackbody_ctr_flag){
    4844:	80 91 d4 0a 	lds	r24, 0x0AD4
    4848:	90 91 d5 0a 	lds	r25, 0x0AD5
    484c:	89 2b       	or	r24, r25
    484e:	09 f4       	brne	.+2      	; 0x4852 <Func_T_Calibration_Mode+0x472>
    4850:	7b c0       	rjmp	.+246    	; 0x4948 <Func_T_Calibration_Mode+0x568>
					blackbody_ctr_flag = 0;
    4852:	10 92 d5 0a 	sts	0x0AD5, r1
    4856:	10 92 d4 0a 	sts	0x0AD4, r1
					sprintf(lcd2_buf+display_point,"S");
    485a:	ce 01       	movw	r24, r28
    485c:	06 96       	adiw	r24, 0x06	; 6
    485e:	69 e1       	ldi	r22, 0x19	; 25
    4860:	76 e0       	ldi	r23, 0x06	; 6
    4862:	0e 94 99 3d 	call	0x7b32	; 0x7b32 <strcpy>
					LCD_PartDis(LCDADD_LINE2_0+display_point, (U8*)(lcd2_buf+display_point),1);
    4866:	86 e4       	ldi	r24, 0x46	; 70
    4868:	be 01       	movw	r22, r28
    486a:	6a 5f       	subi	r22, 0xFA	; 250
    486c:	7f 4f       	sbci	r23, 0xFF	; 255
    486e:	41 e0       	ldi	r20, 0x01	; 1
    4870:	0e 94 c6 0e 	call	0x1d8c	; 0x1d8c <LCD_PartDis>
					
					sprintf(lcd2_buf,"T:%02d/%02d", Calibration_Mode_Count, Det_BlackBody_Stabilize_Count);
    4874:	8d b7       	in	r24, 0x3d	; 61
    4876:	9e b7       	in	r25, 0x3e	; 62
    4878:	08 97       	sbiw	r24, 0x08	; 8
    487a:	0f b6       	in	r0, 0x3f	; 63
    487c:	f8 94       	cli
    487e:	9e bf       	out	0x3e, r25	; 62
    4880:	0f be       	out	0x3f, r0	; 63
    4882:	8d bf       	out	0x3d, r24	; 61
    4884:	ed b7       	in	r30, 0x3d	; 61
    4886:	fe b7       	in	r31, 0x3e	; 62
    4888:	31 96       	adiw	r30, 0x01	; 1
    488a:	ad b7       	in	r26, 0x3d	; 61
    488c:	be b7       	in	r27, 0x3e	; 62
    488e:	12 96       	adiw	r26, 0x02	; 2
    4890:	dc 93       	st	X, r29
    4892:	ce 93       	st	-X, r28
    4894:	11 97       	sbiw	r26, 0x01	; 1
    4896:	83 e0       	ldi	r24, 0x03	; 3
    4898:	96 e0       	ldi	r25, 0x06	; 6
    489a:	93 83       	std	Z+3, r25	; 0x03
    489c:	82 83       	std	Z+2, r24	; 0x02
    489e:	80 91 b1 0a 	lds	r24, 0x0AB1
    48a2:	84 83       	std	Z+4, r24	; 0x04
    48a4:	15 82       	std	Z+5, r1	; 0x05
    48a6:	8c e3       	ldi	r24, 0x3C	; 60
    48a8:	90 e0       	ldi	r25, 0x00	; 0
    48aa:	97 83       	std	Z+7, r25	; 0x07
    48ac:	86 83       	std	Z+6, r24	; 0x06
    48ae:	0e 94 ee 3d 	call	0x7bdc	; 0x7bdc <sprintf>
					LCD_Display(LCDADD_LINE2_8, lcd2_buf);
    48b2:	ed b7       	in	r30, 0x3d	; 61
    48b4:	fe b7       	in	r31, 0x3e	; 62
    48b6:	38 96       	adiw	r30, 0x08	; 8
    48b8:	0f b6       	in	r0, 0x3f	; 63
    48ba:	f8 94       	cli
    48bc:	fe bf       	out	0x3e, r31	; 62
    48be:	0f be       	out	0x3f, r0	; 63
    48c0:	ed bf       	out	0x3d, r30	; 61
    48c2:	88 e4       	ldi	r24, 0x48	; 72
    48c4:	be 01       	movw	r22, r28
    48c6:	0e 94 e2 0e 	call	0x1dc4	; 0x1dc4 <LCD_Display>
					//sprintf(lcd2_buf,"%02d", Det_BlackBody_Stabilize_Count);
					//LCD_Display(LCDADD_LINE2_13, lcd2_buf);				
					
					//DPRINT1("CNT S= %d, ",Calibration_Mode_Count);
					if(blackbody_freq < (pgm_read_word( &FREQ_DATA[dac_flag] ) - 3) ){
    48ca:	40 91 84 0a 	lds	r20, 0x0A84
    48ce:	50 91 85 0a 	lds	r21, 0x0A85
    48d2:	e0 91 b3 0a 	lds	r30, 0x0AB3
    48d6:	f0 91 b4 0a 	lds	r31, 0x0AB4
    48da:	ee 0f       	add	r30, r30
    48dc:	ff 1f       	adc	r31, r31
    48de:	ea 5e       	subi	r30, 0xEA	; 234
    48e0:	fe 4e       	sbci	r31, 0xEE	; 238
    48e2:	25 91       	lpm	r18, Z+
    48e4:	34 91       	lpm	r19, Z+
    48e6:	c9 01       	movw	r24, r18
    48e8:	03 97       	sbiw	r24, 0x03	; 3
    48ea:	48 17       	cp	r20, r24
    48ec:	59 07       	cpc	r21, r25
    48ee:	78 f4       	brcc	.+30     	; 0x490e <Func_T_Calibration_Mode+0x52e>
						dac_data++;
    48f0:	80 91 7e 0a 	lds	r24, 0x0A7E
    48f4:	90 91 7f 0a 	lds	r25, 0x0A7F
    48f8:	01 96       	adiw	r24, 0x01	; 1
    48fa:	90 93 7f 0a 	sts	0x0A7F, r25
    48fe:	80 93 7e 0a 	sts	0x0A7E, r24
						dac7571_dac_wr(dac_data);
    4902:	0e 94 4d 36 	call	0x6c9a	; 0x6c9a <dac7571_dac_wr>
						//DPRINT3("1. dac = %d F = %d, FF=%d", dac_data, blackbody_freq, pgm_read_word( &FREQ_DATA[dac_flag]));
						//DPRINT2("1. F = %d, FF=%d", blackbody_freq, pgm_read_word( &FREQ_DATA[dac_flag]));
						sprintf(lcd3_buf,"UP");
    4906:	c7 01       	movw	r24, r14
    4908:	6b e1       	ldi	r22, 0x1B	; 27
    490a:	76 e0       	ldi	r23, 0x06	; 6
    490c:	17 c0       	rjmp	.+46     	; 0x493c <Func_T_Calibration_Mode+0x55c>
						LCD_Display(LCDADD_LINE3_13, lcd3_buf);
					}
					else if(blackbody_freq > (pgm_read_word( &FREQ_DATA[dac_flag] ) + 3) ){
    490e:	2d 5f       	subi	r18, 0xFD	; 253
    4910:	3f 4f       	sbci	r19, 0xFF	; 255
    4912:	24 17       	cp	r18, r20
    4914:	35 07       	cpc	r19, r21
    4916:	78 f4       	brcc	.+30     	; 0x4936 <Func_T_Calibration_Mode+0x556>
						dac_data--;
    4918:	80 91 7e 0a 	lds	r24, 0x0A7E
    491c:	90 91 7f 0a 	lds	r25, 0x0A7F
    4920:	01 97       	sbiw	r24, 0x01	; 1
    4922:	90 93 7f 0a 	sts	0x0A7F, r25
    4926:	80 93 7e 0a 	sts	0x0A7E, r24
						dac7571_dac_wr(dac_data);
    492a:	0e 94 4d 36 	call	0x6c9a	; 0x6c9a <dac7571_dac_wr>
						//DPRINT3("2. dac = %d F = %d, FF=%d", dac_data, blackbody_freq, pgm_read_word( &FREQ_DATA[dac_flag]));
						//DPRINT2("2. F = %d, FF=%d", blackbody_freq, pgm_read_word( &FREQ_DATA[dac_flag]));
						sprintf(lcd3_buf,"DW");
    492e:	c7 01       	movw	r24, r14
    4930:	6e e1       	ldi	r22, 0x1E	; 30
    4932:	76 e0       	ldi	r23, 0x06	; 6
    4934:	03 c0       	rjmp	.+6      	; 0x493c <Func_T_Calibration_Mode+0x55c>
						LCD_Display(LCDADD_LINE3_13, lcd3_buf);
					}
					else{
						//DPRINT3("3. dac = %d F = %d, FF=%d", dac_data, blackbody_freq, pgm_read_word( &FREQ_DATA[dac_flag]));
						//DPRINT2("3. F = %d, FF=%d", blackbody_freq, pgm_read_word( &FREQ_DATA[dac_flag]));
						sprintf(lcd3_buf,"  ");
    4936:	c7 01       	movw	r24, r14
    4938:	6e ef       	ldi	r22, 0xFE	; 254
    493a:	75 e0       	ldi	r23, 0x05	; 5
    493c:	0e 94 99 3d 	call	0x7b32	; 0x7b32 <strcpy>
						LCD_Display(LCDADD_LINE3_13, lcd3_buf);
    4940:	8d e1       	ldi	r24, 0x1D	; 29
    4942:	b7 01       	movw	r22, r14
    4944:	0e 94 e2 0e 	call	0x1dc4	; 0x1dc4 <LCD_Display>
					}
					//DPRINT("\n");
				}
				
				if(Calibration_Mode_Count == 0){
    4948:	80 91 b1 0a 	lds	r24, 0x0AB1
    494c:	88 23       	and	r24, r24
    494e:	09 f0       	breq	.+2      	; 0x4952 <Func_T_Calibration_Mode+0x572>
    4950:	7d c2       	rjmp	.+1274   	; 0x4e4c <Func_T_Calibration_Mode+0xa6c>
					Calibration_Mode_Flow = 3;
    4952:	83 e0       	ldi	r24, 0x03	; 3
    4954:	80 93 82 0a 	sts	0x0A82, r24
					Calibration_Mode_Count = Det_BlackBody_Average_Count;
    4958:	8a e0       	ldi	r24, 0x0A	; 10
    495a:	80 93 b1 0a 	sts	0x0AB1, r24
    495e:	76 c2       	rjmp	.+1260   	; 0x4e4c <Func_T_Calibration_Mode+0xa6c>
				}
				break;
			case 3:
				if(blackbody_ctr_flag){
    4960:	80 91 d4 0a 	lds	r24, 0x0AD4
    4964:	90 91 d5 0a 	lds	r25, 0x0AD5
    4968:	89 2b       	or	r24, r25
    496a:	09 f4       	brne	.+2      	; 0x496e <Func_T_Calibration_Mode+0x58e>
    496c:	b5 c0       	rjmp	.+362    	; 0x4ad8 <Func_T_Calibration_Mode+0x6f8>
					blackbody_ctr_flag = 0;
    496e:	10 92 d5 0a 	sts	0x0AD5, r1
    4972:	10 92 d4 0a 	sts	0x0AD4, r1
					sprintf(lcd2_buf+display_point,"A");
    4976:	ce 01       	movw	r24, r28
    4978:	06 96       	adiw	r24, 0x06	; 6
    497a:	61 e4       	ldi	r22, 0x41	; 65
    497c:	75 e0       	ldi	r23, 0x05	; 5
    497e:	0e 94 99 3d 	call	0x7b32	; 0x7b32 <strcpy>
					LCD_PartDis(LCDADD_LINE2_0+display_point, (U8*)(lcd2_buf+display_point),1);
    4982:	86 e4       	ldi	r24, 0x46	; 70
    4984:	be 01       	movw	r22, r28
    4986:	6a 5f       	subi	r22, 0xFA	; 250
    4988:	7f 4f       	sbci	r23, 0xFF	; 255
    498a:	41 e0       	ldi	r20, 0x01	; 1
    498c:	0e 94 c6 0e 	call	0x1d8c	; 0x1d8c <LCD_PartDis>
					
					sprintf(lcd2_buf,"T:%02d/%02d", Calibration_Mode_Count, Det_BlackBody_Average_Count);
    4990:	8d b7       	in	r24, 0x3d	; 61
    4992:	9e b7       	in	r25, 0x3e	; 62
    4994:	08 97       	sbiw	r24, 0x08	; 8
    4996:	0f b6       	in	r0, 0x3f	; 63
    4998:	f8 94       	cli
    499a:	9e bf       	out	0x3e, r25	; 62
    499c:	0f be       	out	0x3f, r0	; 63
    499e:	8d bf       	out	0x3d, r24	; 61
    49a0:	ed b7       	in	r30, 0x3d	; 61
    49a2:	fe b7       	in	r31, 0x3e	; 62
    49a4:	31 96       	adiw	r30, 0x01	; 1
    49a6:	ad b7       	in	r26, 0x3d	; 61
    49a8:	be b7       	in	r27, 0x3e	; 62
    49aa:	12 96       	adiw	r26, 0x02	; 2
    49ac:	dc 93       	st	X, r29
    49ae:	ce 93       	st	-X, r28
    49b0:	11 97       	sbiw	r26, 0x01	; 1
    49b2:	83 e0       	ldi	r24, 0x03	; 3
    49b4:	96 e0       	ldi	r25, 0x06	; 6
    49b6:	93 83       	std	Z+3, r25	; 0x03
    49b8:	82 83       	std	Z+2, r24	; 0x02
    49ba:	80 91 b1 0a 	lds	r24, 0x0AB1
    49be:	84 83       	std	Z+4, r24	; 0x04
    49c0:	15 82       	std	Z+5, r1	; 0x05
    49c2:	8a e0       	ldi	r24, 0x0A	; 10
    49c4:	90 e0       	ldi	r25, 0x00	; 0
    49c6:	97 83       	std	Z+7, r25	; 0x07
    49c8:	86 83       	std	Z+6, r24	; 0x06
    49ca:	0e 94 ee 3d 	call	0x7bdc	; 0x7bdc <sprintf>
					LCD_Display(LCDADD_LINE2_8, lcd2_buf);
    49ce:	ed b7       	in	r30, 0x3d	; 61
    49d0:	fe b7       	in	r31, 0x3e	; 62
    49d2:	38 96       	adiw	r30, 0x08	; 8
    49d4:	0f b6       	in	r0, 0x3f	; 63
    49d6:	f8 94       	cli
    49d8:	fe bf       	out	0x3e, r31	; 62
    49da:	0f be       	out	0x3f, r0	; 63
    49dc:	ed bf       	out	0x3d, r30	; 61
    49de:	88 e4       	ldi	r24, 0x48	; 72
    49e0:	be 01       	movw	r22, r28
    49e2:	0e 94 e2 0e 	call	0x1dc4	; 0x1dc4 <LCD_Display>
					//sprintf(lcd2_buf,"%02d", Det_BlackBody_Average_Count);
					//LCD_Display(LCDADD_LINE2_13, lcd2_buf);				
					
					if(blackbody_freq < (pgm_read_word( &FREQ_DATA[dac_flag] ) - 3) ){
    49e6:	40 91 84 0a 	lds	r20, 0x0A84
    49ea:	50 91 85 0a 	lds	r21, 0x0A85
    49ee:	e0 91 b3 0a 	lds	r30, 0x0AB3
    49f2:	f0 91 b4 0a 	lds	r31, 0x0AB4
    49f6:	ee 0f       	add	r30, r30
    49f8:	ff 1f       	adc	r31, r31
    49fa:	ea 5e       	subi	r30, 0xEA	; 234
    49fc:	fe 4e       	sbci	r31, 0xEE	; 238
    49fe:	25 91       	lpm	r18, Z+
    4a00:	34 91       	lpm	r19, Z+
    4a02:	c9 01       	movw	r24, r18
    4a04:	03 97       	sbiw	r24, 0x03	; 3
    4a06:	48 17       	cp	r20, r24
    4a08:	59 07       	cpc	r21, r25
    4a0a:	a0 f4       	brcc	.+40     	; 0x4a34 <Func_T_Calibration_Mode+0x654>
						Calibration_Mode_Count++;
    4a0c:	80 91 b1 0a 	lds	r24, 0x0AB1
    4a10:	8f 5f       	subi	r24, 0xFF	; 255
    4a12:	80 93 b1 0a 	sts	0x0AB1, r24
						dac_data++;
    4a16:	80 91 7e 0a 	lds	r24, 0x0A7E
    4a1a:	90 91 7f 0a 	lds	r25, 0x0A7F
    4a1e:	01 96       	adiw	r24, 0x01	; 1
    4a20:	90 93 7f 0a 	sts	0x0A7F, r25
    4a24:	80 93 7e 0a 	sts	0x0A7E, r24
						dac7571_dac_wr(dac_data);
    4a28:	0e 94 4d 36 	call	0x6c9a	; 0x6c9a <dac7571_dac_wr>
						//DPRINT3("1. dac = %d F = %d, FF=%d", dac_data, blackbody_freq, pgm_read_word( &FREQ_DATA[dac_flag]));
						//DPRINT2("1. F = %d, FF=%d", blackbody_freq, pgm_read_word( &FREQ_DATA[dac_flag]));
						sprintf(lcd3_buf,"UP");
    4a2c:	c7 01       	movw	r24, r14
    4a2e:	6b e1       	ldi	r22, 0x1B	; 27
    4a30:	76 e0       	ldi	r23, 0x06	; 6
    4a32:	18 c0       	rjmp	.+48     	; 0x4a64 <Func_T_Calibration_Mode+0x684>
						LCD_Display(LCDADD_LINE3_13, lcd3_buf);
					}
					else if(blackbody_freq > (pgm_read_word( &FREQ_DATA[dac_flag] ) + 3) ){
    4a34:	2d 5f       	subi	r18, 0xFD	; 253
    4a36:	3f 4f       	sbci	r19, 0xFF	; 255
    4a38:	24 17       	cp	r18, r20
    4a3a:	35 07       	cpc	r19, r21
    4a3c:	d0 f4       	brcc	.+52     	; 0x4a72 <Func_T_Calibration_Mode+0x692>
						Calibration_Mode_Count++;
    4a3e:	80 91 b1 0a 	lds	r24, 0x0AB1
    4a42:	8f 5f       	subi	r24, 0xFF	; 255
    4a44:	80 93 b1 0a 	sts	0x0AB1, r24
						dac_data--;
    4a48:	80 91 7e 0a 	lds	r24, 0x0A7E
    4a4c:	90 91 7f 0a 	lds	r25, 0x0A7F
    4a50:	01 97       	sbiw	r24, 0x01	; 1
    4a52:	90 93 7f 0a 	sts	0x0A7F, r25
    4a56:	80 93 7e 0a 	sts	0x0A7E, r24
						dac7571_dac_wr(dac_data);
    4a5a:	0e 94 4d 36 	call	0x6c9a	; 0x6c9a <dac7571_dac_wr>
						//DPRINT3("2. dac = %d F = %d, FF=%d", dac_data, blackbody_freq, pgm_read_word( &FREQ_DATA[dac_flag]));
						//DPRINT2("2. F = %d, FF=%d", blackbody_freq, pgm_read_word( &FREQ_DATA[dac_flag]));
						sprintf(lcd3_buf,"DW");
    4a5e:	c7 01       	movw	r24, r14
    4a60:	6e e1       	ldi	r22, 0x1E	; 30
    4a62:	76 e0       	ldi	r23, 0x06	; 6
    4a64:	0e 94 99 3d 	call	0x7b32	; 0x7b32 <strcpy>
						LCD_Display(LCDADD_LINE3_13, lcd3_buf);
    4a68:	8d e1       	ldi	r24, 0x1D	; 29
    4a6a:	b7 01       	movw	r22, r14
    4a6c:	0e 94 e2 0e 	call	0x1dc4	; 0x1dc4 <LCD_Display>
    4a70:	33 c0       	rjmp	.+102    	; 0x4ad8 <Func_T_Calibration_Mode+0x6f8>
					}
					else{
						sprintf(lcd3_buf,"  ");
    4a72:	c7 01       	movw	r24, r14
    4a74:	6e ef       	ldi	r22, 0xFE	; 254
    4a76:	75 e0       	ldi	r23, 0x05	; 5
    4a78:	0e 94 99 3d 	call	0x7b32	; 0x7b32 <strcpy>
						LCD_Display(LCDADD_LINE3_13, lcd3_buf);
    4a7c:	8d e1       	ldi	r24, 0x1D	; 29
    4a7e:	b7 01       	movw	r22, r14
    4a80:	0e 94 e2 0e 	call	0x1dc4	; 0x1dc4 <LCD_Display>
						Det_IrAvPtoP_Sum[IR_466] += Det_Input_Reg_Data[DET_InputReg_IrAvPtoP_466];
    4a84:	80 91 d1 0f 	lds	r24, 0x0FD1
    4a88:	90 91 d2 0f 	lds	r25, 0x0FD2
    4a8c:	20 91 4c 0a 	lds	r18, 0x0A4C
    4a90:	30 91 4d 0a 	lds	r19, 0x0A4D
    4a94:	82 0f       	add	r24, r18
    4a96:	93 1f       	adc	r25, r19
    4a98:	90 93 4d 0a 	sts	0x0A4D, r25
    4a9c:	80 93 4c 0a 	sts	0x0A4C, r24
						Det_IrAvPtoP_Sum[IR_395] += Det_Input_Reg_Data[DET_InputReg_IrAvPtoP_395];
    4aa0:	80 91 e9 0f 	lds	r24, 0x0FE9
    4aa4:	90 91 ea 0f 	lds	r25, 0x0FEA
    4aa8:	20 91 4e 0a 	lds	r18, 0x0A4E
    4aac:	30 91 4f 0a 	lds	r19, 0x0A4F
    4ab0:	82 0f       	add	r24, r18
    4ab2:	93 1f       	adc	r25, r19
    4ab4:	90 93 4f 0a 	sts	0x0A4F, r25
    4ab8:	80 93 4e 0a 	sts	0x0A4E, r24
						Det_IrAvPtoP_Sum[IR_530] += Det_Input_Reg_Data[DET_InputReg_IrAvPtoP_530];
    4abc:	80 91 01 10 	lds	r24, 0x1001
    4ac0:	90 91 02 10 	lds	r25, 0x1002
    4ac4:	20 91 50 0a 	lds	r18, 0x0A50
    4ac8:	30 91 51 0a 	lds	r19, 0x0A51
    4acc:	82 0f       	add	r24, r18
    4ace:	93 1f       	adc	r25, r19
    4ad0:	90 93 51 0a 	sts	0x0A51, r25
    4ad4:	80 93 50 0a 	sts	0x0A50, r24
						//DPRINT3("CNT A = %d, %u, %u\n", Calibration_Mode_Count, Det_IrAvPtoP_Sum[IR_466], Det_Input_Reg_Data[DET_InputReg_IrAvPtoP_466]);
					}
				}
				
				if(Calibration_Mode_Count == 0){
    4ad8:	80 91 b1 0a 	lds	r24, 0x0AB1
    4adc:	88 23       	and	r24, r24
    4ade:	09 f0       	breq	.+2      	; 0x4ae2 <Func_T_Calibration_Mode+0x702>
    4ae0:	b5 c1       	rjmp	.+874    	; 0x4e4c <Func_T_Calibration_Mode+0xa6c>
					switch(dac_flag){
    4ae2:	20 91 b3 0a 	lds	r18, 0x0AB3
    4ae6:	30 91 b4 0a 	lds	r19, 0x0AB4
    4aea:	26 30       	cpi	r18, 0x06	; 6
    4aec:	31 05       	cpc	r19, r1
    4aee:	09 f4       	brne	.+2      	; 0x4af2 <Func_T_Calibration_Mode+0x712>
    4af0:	9d c0       	rjmp	.+314    	; 0x4c2c <Func_T_Calibration_Mode+0x84c>
    4af2:	27 30       	cpi	r18, 0x07	; 7
    4af4:	31 05       	cpc	r19, r1
    4af6:	c0 f4       	brcc	.+48     	; 0x4b28 <Func_T_Calibration_Mode+0x748>
    4af8:	23 30       	cpi	r18, 0x03	; 3
    4afa:	31 05       	cpc	r19, r1
    4afc:	09 f4       	brne	.+2      	; 0x4b00 <Func_T_Calibration_Mode+0x720>
    4afe:	6f c0       	rjmp	.+222    	; 0x4bde <Func_T_Calibration_Mode+0x7fe>
    4b00:	24 30       	cpi	r18, 0x04	; 4
    4b02:	31 05       	cpc	r19, r1
    4b04:	40 f4       	brcc	.+16     	; 0x4b16 <Func_T_Calibration_Mode+0x736>
    4b06:	21 30       	cpi	r18, 0x01	; 1
    4b08:	31 05       	cpc	r19, r1
    4b0a:	59 f1       	breq	.+86     	; 0x4b62 <Func_T_Calibration_Mode+0x782>
    4b0c:	22 30       	cpi	r18, 0x02	; 2
    4b0e:	31 05       	cpc	r19, r1
    4b10:	09 f0       	breq	.+2      	; 0x4b14 <Func_T_Calibration_Mode+0x734>
    4b12:	2f c1       	rjmp	.+606    	; 0x4d72 <Func_T_Calibration_Mode+0x992>
    4b14:	4b c0       	rjmp	.+150    	; 0x4bac <Func_T_Calibration_Mode+0x7cc>
    4b16:	24 30       	cpi	r18, 0x04	; 4
    4b18:	31 05       	cpc	r19, r1
    4b1a:	09 f4       	brne	.+2      	; 0x4b1e <Func_T_Calibration_Mode+0x73e>
    4b1c:	6d c0       	rjmp	.+218    	; 0x4bf8 <Func_T_Calibration_Mode+0x818>
    4b1e:	25 30       	cpi	r18, 0x05	; 5
    4b20:	31 05       	cpc	r19, r1
    4b22:	09 f0       	breq	.+2      	; 0x4b26 <Func_T_Calibration_Mode+0x746>
    4b24:	26 c1       	rjmp	.+588    	; 0x4d72 <Func_T_Calibration_Mode+0x992>
    4b26:	75 c0       	rjmp	.+234    	; 0x4c12 <Func_T_Calibration_Mode+0x832>
    4b28:	29 30       	cpi	r18, 0x09	; 9
    4b2a:	31 05       	cpc	r19, r1
    4b2c:	09 f4       	brne	.+2      	; 0x4b30 <Func_T_Calibration_Mode+0x750>
    4b2e:	bd c0       	rjmp	.+378    	; 0x4caa <Func_T_Calibration_Mode+0x8ca>
    4b30:	2a 30       	cpi	r18, 0x0A	; 10
    4b32:	31 05       	cpc	r19, r1
    4b34:	48 f4       	brcc	.+18     	; 0x4b48 <Func_T_Calibration_Mode+0x768>
    4b36:	27 30       	cpi	r18, 0x07	; 7
    4b38:	31 05       	cpc	r19, r1
    4b3a:	09 f4       	brne	.+2      	; 0x4b3e <Func_T_Calibration_Mode+0x75e>
    4b3c:	9c c0       	rjmp	.+312    	; 0x4c76 <Func_T_Calibration_Mode+0x896>
    4b3e:	28 30       	cpi	r18, 0x08	; 8
    4b40:	31 05       	cpc	r19, r1
    4b42:	09 f0       	breq	.+2      	; 0x4b46 <Func_T_Calibration_Mode+0x766>
    4b44:	16 c1       	rjmp	.+556    	; 0x4d72 <Func_T_Calibration_Mode+0x992>
    4b46:	a4 c0       	rjmp	.+328    	; 0x4c90 <Func_T_Calibration_Mode+0x8b0>
    4b48:	2b 30       	cpi	r18, 0x0B	; 11
    4b4a:	31 05       	cpc	r19, r1
    4b4c:	09 f4       	brne	.+2      	; 0x4b50 <Func_T_Calibration_Mode+0x770>
    4b4e:	df c0       	rjmp	.+446    	; 0x4d0e <Func_T_Calibration_Mode+0x92e>
    4b50:	2b 30       	cpi	r18, 0x0B	; 11
    4b52:	31 05       	cpc	r19, r1
    4b54:	08 f4       	brcc	.+2      	; 0x4b58 <Func_T_Calibration_Mode+0x778>
    4b56:	ce c0       	rjmp	.+412    	; 0x4cf4 <Func_T_Calibration_Mode+0x914>
    4b58:	2c 30       	cpi	r18, 0x0C	; 12
    4b5a:	31 05       	cpc	r19, r1
    4b5c:	09 f0       	breq	.+2      	; 0x4b60 <Func_T_Calibration_Mode+0x780>
    4b5e:	09 c1       	rjmp	.+530    	; 0x4d72 <Func_T_Calibration_Mode+0x992>
    4b60:	fb c0       	rjmp	.+502    	; 0x4d58 <Func_T_Calibration_Mode+0x978>
						case 1:		// Freq: 6.03Hz
							Det_IrAvPtoP_Data[DET_EEP_CAL_BUF_IR430_07 - 41] = Det_IrAvPtoP_Sum[IR_466] / Det_BlackBody_Average_Count;
    4b62:	80 91 4c 0a 	lds	r24, 0x0A4C
    4b66:	90 91 4d 0a 	lds	r25, 0x0A4D
    4b6a:	6a e0       	ldi	r22, 0x0A	; 10
    4b6c:	70 e0       	ldi	r23, 0x00	; 0
    4b6e:	0e 94 4e 3d 	call	0x7a9c	; 0x7a9c <__udivmodhi4>
    4b72:	70 93 93 0a 	sts	0x0A93, r23
    4b76:	60 93 92 0a 	sts	0x0A92, r22
							Det_IrAvPtoP_Data[DET_EEP_CAL_BUF_IR395_07 - 41] = Det_IrAvPtoP_Sum[IR_395] / Det_BlackBody_Average_Count;
    4b7a:	80 91 4e 0a 	lds	r24, 0x0A4E
    4b7e:	90 91 4f 0a 	lds	r25, 0x0A4F
    4b82:	6a e0       	ldi	r22, 0x0A	; 10
    4b84:	70 e0       	ldi	r23, 0x00	; 0
    4b86:	0e 94 4e 3d 	call	0x7a9c	; 0x7a9c <__udivmodhi4>
    4b8a:	70 93 a1 0a 	sts	0x0AA1, r23
    4b8e:	60 93 a0 0a 	sts	0x0AA0, r22
							Det_IrAvPtoP_Data[DET_EEP_CAL_BUF_IR530_07 - 41] = Det_IrAvPtoP_Sum[IR_530] / Det_BlackBody_Average_Count;
    4b92:	80 91 50 0a 	lds	r24, 0x0A50
    4b96:	90 91 51 0a 	lds	r25, 0x0A51
    4b9a:	6a e0       	ldi	r22, 0x0A	; 10
    4b9c:	70 e0       	ldi	r23, 0x00	; 0
    4b9e:	0e 94 4e 3d 	call	0x7a9c	; 0x7a9c <__udivmodhi4>
    4ba2:	70 93 af 0a 	sts	0x0AAF, r23
    4ba6:	60 93 ae 0a 	sts	0x0AAE, r22
    4baa:	3d c1       	rjmp	.+634    	; 0x4e26 <Func_T_Calibration_Mode+0xa46>
							break;
						case 2:		// Freq: 34.67Hz
							Det_IrAvPtoP_Data[DET_EEP_CAL_BUF_IR395_06 - 41] = Det_IrAvPtoP_Sum[IR_395] / Det_BlackBody_Average_Count;
    4bac:	80 91 4e 0a 	lds	r24, 0x0A4E
    4bb0:	90 91 4f 0a 	lds	r25, 0x0A4F
    4bb4:	6a e0       	ldi	r22, 0x0A	; 10
    4bb6:	70 e0       	ldi	r23, 0x00	; 0
    4bb8:	0e 94 4e 3d 	call	0x7a9c	; 0x7a9c <__udivmodhi4>
    4bbc:	70 93 9f 0a 	sts	0x0A9F, r23
    4bc0:	60 93 9e 0a 	sts	0x0A9E, r22
							Det_IrAvPtoP_Data[DET_EEP_CAL_BUF_IR530_06 - 41] = Det_IrAvPtoP_Sum[IR_530] / Det_BlackBody_Average_Count;
    4bc4:	80 91 50 0a 	lds	r24, 0x0A50
    4bc8:	90 91 51 0a 	lds	r25, 0x0A51
    4bcc:	6a e0       	ldi	r22, 0x0A	; 10
    4bce:	70 e0       	ldi	r23, 0x00	; 0
    4bd0:	0e 94 4e 3d 	call	0x7a9c	; 0x7a9c <__udivmodhi4>
    4bd4:	70 93 ad 0a 	sts	0x0AAD, r23
    4bd8:	60 93 ac 0a 	sts	0x0AAC, r22
    4bdc:	24 c1       	rjmp	.+584    	; 0x4e26 <Func_T_Calibration_Mode+0xa46>
							break;
						case 3:		// Freq: 42.60Hz
							Det_IrAvPtoP_Data[DET_EEP_CAL_BUF_IR395_05 - 41] = Det_IrAvPtoP_Sum[IR_395] / Det_BlackBody_Average_Count;
    4bde:	80 91 4e 0a 	lds	r24, 0x0A4E
    4be2:	90 91 4f 0a 	lds	r25, 0x0A4F
    4be6:	6a e0       	ldi	r22, 0x0A	; 10
    4be8:	70 e0       	ldi	r23, 0x00	; 0
    4bea:	0e 94 4e 3d 	call	0x7a9c	; 0x7a9c <__udivmodhi4>
    4bee:	70 93 9d 0a 	sts	0x0A9D, r23
    4bf2:	60 93 9c 0a 	sts	0x0A9C, r22
    4bf6:	17 c1       	rjmp	.+558    	; 0x4e26 <Func_T_Calibration_Mode+0xa46>
							break;
						case 4:		// Freq: 45.55Hz
							Det_IrAvPtoP_Data[DET_EEP_CAL_BUF_IR395_04 - 41] = Det_IrAvPtoP_Sum[IR_395] / Det_BlackBody_Average_Count;
    4bf8:	80 91 4e 0a 	lds	r24, 0x0A4E
    4bfc:	90 91 4f 0a 	lds	r25, 0x0A4F
    4c00:	6a e0       	ldi	r22, 0x0A	; 10
    4c02:	70 e0       	ldi	r23, 0x00	; 0
    4c04:	0e 94 4e 3d 	call	0x7a9c	; 0x7a9c <__udivmodhi4>
    4c08:	70 93 9b 0a 	sts	0x0A9B, r23
    4c0c:	60 93 9a 0a 	sts	0x0A9A, r22
    4c10:	0a c1       	rjmp	.+532    	; 0x4e26 <Func_T_Calibration_Mode+0xa46>
							break;
						case 5:		// Freq: 47.05Hz
							Det_IrAvPtoP_Data[DET_EEP_CAL_BUF_IR530_05 - 41] = Det_IrAvPtoP_Sum[IR_530] / Det_BlackBody_Average_Count;
    4c12:	80 91 50 0a 	lds	r24, 0x0A50
    4c16:	90 91 51 0a 	lds	r25, 0x0A51
    4c1a:	6a e0       	ldi	r22, 0x0A	; 10
    4c1c:	70 e0       	ldi	r23, 0x00	; 0
    4c1e:	0e 94 4e 3d 	call	0x7a9c	; 0x7a9c <__udivmodhi4>
    4c22:	70 93 ab 0a 	sts	0x0AAB, r23
    4c26:	60 93 aa 0a 	sts	0x0AAA, r22
    4c2a:	fd c0       	rjmp	.+506    	; 0x4e26 <Func_T_Calibration_Mode+0xa46>
							break;
						case 6:		// Freq: 50.48Hz
							Det_IrAvPtoP_Data[DET_EEP_CAL_BUF_IR430_06 - 41] = Det_IrAvPtoP_Sum[IR_466] / Det_BlackBody_Average_Count;
    4c2c:	80 91 4c 0a 	lds	r24, 0x0A4C
    4c30:	90 91 4d 0a 	lds	r25, 0x0A4D
    4c34:	6a e0       	ldi	r22, 0x0A	; 10
    4c36:	70 e0       	ldi	r23, 0x00	; 0
    4c38:	0e 94 4e 3d 	call	0x7a9c	; 0x7a9c <__udivmodhi4>
    4c3c:	70 93 91 0a 	sts	0x0A91, r23
    4c40:	60 93 90 0a 	sts	0x0A90, r22
							Det_IrAvPtoP_Data[DET_EEP_CAL_BUF_IR395_03 - 41] = Det_IrAvPtoP_Sum[IR_395] / Det_BlackBody_Average_Count;
    4c44:	80 91 4e 0a 	lds	r24, 0x0A4E
    4c48:	90 91 4f 0a 	lds	r25, 0x0A4F
    4c4c:	6a e0       	ldi	r22, 0x0A	; 10
    4c4e:	70 e0       	ldi	r23, 0x00	; 0
    4c50:	0e 94 4e 3d 	call	0x7a9c	; 0x7a9c <__udivmodhi4>
    4c54:	70 93 99 0a 	sts	0x0A99, r23
    4c58:	60 93 98 0a 	sts	0x0A98, r22
							Det_IrAvPtoP_Data[DET_EEP_CAL_BUF_IR530_04 - 41] = Det_IrAvPtoP_Sum[IR_530] / Det_BlackBody_Average_Count;
    4c5c:	80 91 50 0a 	lds	r24, 0x0A50
    4c60:	90 91 51 0a 	lds	r25, 0x0A51
    4c64:	6a e0       	ldi	r22, 0x0A	; 10
    4c66:	70 e0       	ldi	r23, 0x00	; 0
    4c68:	0e 94 4e 3d 	call	0x7a9c	; 0x7a9c <__udivmodhi4>
    4c6c:	70 93 a9 0a 	sts	0x0AA9, r23
    4c70:	60 93 a8 0a 	sts	0x0AA8, r22
    4c74:	d8 c0       	rjmp	.+432    	; 0x4e26 <Func_T_Calibration_Mode+0xa46>
							break;
						case 7:		// Freq: 58.36Hz
							Det_IrAvPtoP_Data[DET_EEP_CAL_BUF_IR530_03 - 41] = Det_IrAvPtoP_Sum[IR_530] / Det_BlackBody_Average_Count;
    4c76:	80 91 50 0a 	lds	r24, 0x0A50
    4c7a:	90 91 51 0a 	lds	r25, 0x0A51
    4c7e:	6a e0       	ldi	r22, 0x0A	; 10
    4c80:	70 e0       	ldi	r23, 0x00	; 0
    4c82:	0e 94 4e 3d 	call	0x7a9c	; 0x7a9c <__udivmodhi4>
    4c86:	70 93 a7 0a 	sts	0x0AA7, r23
    4c8a:	60 93 a6 0a 	sts	0x0AA6, r22
    4c8e:	cb c0       	rjmp	.+406    	; 0x4e26 <Func_T_Calibration_Mode+0xa46>
							break;
						case 8:		// Freq: 59.84Hz
							Det_IrAvPtoP_Data[DET_EEP_CAL_BUF_IR430_05 - 41] = Det_IrAvPtoP_Sum[IR_466] / Det_BlackBody_Average_Count;
    4c90:	80 91 4c 0a 	lds	r24, 0x0A4C
    4c94:	90 91 4d 0a 	lds	r25, 0x0A4D
    4c98:	6a e0       	ldi	r22, 0x0A	; 10
    4c9a:	70 e0       	ldi	r23, 0x00	; 0
    4c9c:	0e 94 4e 3d 	call	0x7a9c	; 0x7a9c <__udivmodhi4>
    4ca0:	70 93 8f 0a 	sts	0x0A8F, r23
    4ca4:	60 93 8e 0a 	sts	0x0A8E, r22
    4ca8:	be c0       	rjmp	.+380    	; 0x4e26 <Func_T_Calibration_Mode+0xa46>
							break;
						case 9:		// Freq: 66.25Hz
							Det_IrAvPtoP_Data[DET_EEP_CAL_BUF_IR430_04 - 41] = Det_IrAvPtoP_Sum[IR_466] / Det_BlackBody_Average_Count;
    4caa:	80 91 4c 0a 	lds	r24, 0x0A4C
    4cae:	90 91 4d 0a 	lds	r25, 0x0A4D
    4cb2:	6a e0       	ldi	r22, 0x0A	; 10
    4cb4:	70 e0       	ldi	r23, 0x00	; 0
    4cb6:	0e 94 4e 3d 	call	0x7a9c	; 0x7a9c <__udivmodhi4>
    4cba:	70 93 8d 0a 	sts	0x0A8D, r23
    4cbe:	60 93 8c 0a 	sts	0x0A8C, r22
							Det_IrAvPtoP_Data[DET_EEP_CAL_BUF_IR395_02 - 41] = Det_IrAvPtoP_Sum[IR_395] / Det_BlackBody_Average_Count;
    4cc2:	80 91 4e 0a 	lds	r24, 0x0A4E
    4cc6:	90 91 4f 0a 	lds	r25, 0x0A4F
    4cca:	6a e0       	ldi	r22, 0x0A	; 10
    4ccc:	70 e0       	ldi	r23, 0x00	; 0
    4cce:	0e 94 4e 3d 	call	0x7a9c	; 0x7a9c <__udivmodhi4>
    4cd2:	70 93 97 0a 	sts	0x0A97, r23
    4cd6:	60 93 96 0a 	sts	0x0A96, r22
							Det_IrAvPtoP_Data[DET_EEP_CAL_BUF_IR530_02 - 41] = Det_IrAvPtoP_Sum[IR_530] / Det_BlackBody_Average_Count;
    4cda:	80 91 50 0a 	lds	r24, 0x0A50
    4cde:	90 91 51 0a 	lds	r25, 0x0A51
    4ce2:	6a e0       	ldi	r22, 0x0A	; 10
    4ce4:	70 e0       	ldi	r23, 0x00	; 0
    4ce6:	0e 94 4e 3d 	call	0x7a9c	; 0x7a9c <__udivmodhi4>
    4cea:	70 93 a5 0a 	sts	0x0AA5, r23
    4cee:	60 93 a4 0a 	sts	0x0AA4, r22
    4cf2:	99 c0       	rjmp	.+306    	; 0x4e26 <Func_T_Calibration_Mode+0xa46>
							break;
						case 10:		// Freq: 75.60Hz
							Det_IrAvPtoP_Data[DET_EEP_CAL_BUF_IR430_03 - 41] = Det_IrAvPtoP_Sum[IR_466] / Det_BlackBody_Average_Count;
    4cf4:	80 91 4c 0a 	lds	r24, 0x0A4C
    4cf8:	90 91 4d 0a 	lds	r25, 0x0A4D
    4cfc:	6a e0       	ldi	r22, 0x0A	; 10
    4cfe:	70 e0       	ldi	r23, 0x00	; 0
    4d00:	0e 94 4e 3d 	call	0x7a9c	; 0x7a9c <__udivmodhi4>
    4d04:	70 93 8b 0a 	sts	0x0A8B, r23
    4d08:	60 93 8a 0a 	sts	0x0A8A, r22
    4d0c:	8c c0       	rjmp	.+280    	; 0x4e26 <Func_T_Calibration_Mode+0xa46>
							break;
						case 11:		// Freq: 90.37Hz
							Det_IrAvPtoP_Data[DET_EEP_CAL_BUF_IR430_02 - 41] = Det_IrAvPtoP_Sum[IR_466] / Det_BlackBody_Average_Count;
    4d0e:	80 91 4c 0a 	lds	r24, 0x0A4C
    4d12:	90 91 4d 0a 	lds	r25, 0x0A4D
    4d16:	6a e0       	ldi	r22, 0x0A	; 10
    4d18:	70 e0       	ldi	r23, 0x00	; 0
    4d1a:	0e 94 4e 3d 	call	0x7a9c	; 0x7a9c <__udivmodhi4>
    4d1e:	70 93 89 0a 	sts	0x0A89, r23
    4d22:	60 93 88 0a 	sts	0x0A88, r22
							Det_IrAvPtoP_Data[DET_EEP_CAL_BUF_IR395_01 - 41] = Det_IrAvPtoP_Sum[IR_395] / Det_BlackBody_Average_Count;
    4d26:	80 91 4e 0a 	lds	r24, 0x0A4E
    4d2a:	90 91 4f 0a 	lds	r25, 0x0A4F
    4d2e:	6a e0       	ldi	r22, 0x0A	; 10
    4d30:	70 e0       	ldi	r23, 0x00	; 0
    4d32:	0e 94 4e 3d 	call	0x7a9c	; 0x7a9c <__udivmodhi4>
    4d36:	70 93 95 0a 	sts	0x0A95, r23
    4d3a:	60 93 94 0a 	sts	0x0A94, r22
							Det_IrAvPtoP_Data[DET_EEP_CAL_BUF_IR530_01 - 41] = Det_IrAvPtoP_Sum[IR_530] / Det_BlackBody_Average_Count;
    4d3e:	80 91 50 0a 	lds	r24, 0x0A50
    4d42:	90 91 51 0a 	lds	r25, 0x0A51
    4d46:	6a e0       	ldi	r22, 0x0A	; 10
    4d48:	70 e0       	ldi	r23, 0x00	; 0
    4d4a:	0e 94 4e 3d 	call	0x7a9c	; 0x7a9c <__udivmodhi4>
    4d4e:	70 93 a3 0a 	sts	0x0AA3, r23
    4d52:	60 93 a2 0a 	sts	0x0AA2, r22
    4d56:	67 c0       	rjmp	.+206    	; 0x4e26 <Func_T_Calibration_Mode+0xa46>
							break;
						case 12:		// Freq: 125.85Hz
							Det_IrAvPtoP_Data[DET_EEP_CAL_BUF_IR430_01 - 41] = Det_IrAvPtoP_Sum[IR_466] / Det_BlackBody_Average_Count;
    4d58:	80 91 4c 0a 	lds	r24, 0x0A4C
    4d5c:	90 91 4d 0a 	lds	r25, 0x0A4D
    4d60:	6a e0       	ldi	r22, 0x0A	; 10
    4d62:	70 e0       	ldi	r23, 0x00	; 0
    4d64:	0e 94 4e 3d 	call	0x7a9c	; 0x7a9c <__udivmodhi4>
    4d68:	70 93 87 0a 	sts	0x0A87, r23
    4d6c:	60 93 86 0a 	sts	0x0A86, r22
    4d70:	04 c0       	rjmp	.+8      	; 0x4d7a <Func_T_Calibration_Mode+0x99a>
							break;
					}
					
					if(dac_flag > 11){
    4d72:	2c 30       	cpi	r18, 0x0C	; 12
    4d74:	31 05       	cpc	r19, r1
    4d76:	08 f4       	brcc	.+2      	; 0x4d7a <Func_T_Calibration_Mode+0x99a>
    4d78:	56 c0       	rjmp	.+172    	; 0x4e26 <Func_T_Calibration_Mode+0xa46>
						Calibration_Mode_Flow = 4;
    4d7a:	84 e0       	ldi	r24, 0x04	; 4
    4d7c:	80 93 82 0a 	sts	0x0A82, r24
						dac_flag = 0;
    4d80:	10 92 b4 0a 	sts	0x0AB4, r1
    4d84:	10 92 b3 0a 	sts	0x0AB3, r1
    4d88:	a0 91 f5 0a 	lds	r26, 0x0AF5
    4d8c:	20 e0       	ldi	r18, 0x00	; 0
    4d8e:	30 e0       	ldi	r19, 0x00	; 0
						for(i=0;i<(DET_EEP_CAL_BUF_IR530_07 - DET_EEP_CAL_BUF_IR430_01)+1;i++){
							if(Det_IrAvPtoP_Data[i] < pgm_read_word( &DET_EEP_SYS_LO_LIMIT[DET_EEP_CAL_BUF_IR430_01 + i])){
    4d90:	f9 01       	movw	r30, r18
    4d92:	ea 57       	subi	r30, 0x7A	; 122
    4d94:	f5 4f       	sbci	r31, 0xF5	; 245
    4d96:	60 81       	ld	r22, Z
    4d98:	71 81       	ldd	r23, Z+1	; 0x01
	}
	*/
}

void Func_T_Calibration_Mode(void)
{
    4d9a:	a9 01       	movw	r20, r18
    4d9c:	4e 5a       	subi	r20, 0xAE	; 174
    4d9e:	5f 4f       	sbci	r21, 0xFF	; 255
    4da0:	fa 01       	movw	r30, r20
    4da2:	e2 52       	subi	r30, 0x22	; 34
    4da4:	fd 4e       	sbci	r31, 0xED	; 237
					
					if(dac_flag > 11){
						Calibration_Mode_Flow = 4;
						dac_flag = 0;
						for(i=0;i<(DET_EEP_CAL_BUF_IR530_07 - DET_EEP_CAL_BUF_IR430_01)+1;i++){
							if(Det_IrAvPtoP_Data[i] < pgm_read_word( &DET_EEP_SYS_LO_LIMIT[DET_EEP_CAL_BUF_IR430_01 + i])){
    4da6:	85 91       	lpm	r24, Z+
    4da8:	94 91       	lpm	r25, Z+
    4daa:	68 17       	cp	r22, r24
    4dac:	79 07       	cpc	r23, r25
    4dae:	40 f0       	brcs	.+16     	; 0x4dc0 <Func_T_Calibration_Mode+0x9e0>
								Det_System_Fault_Flag++;
    4db0:	fa 01       	movw	r30, r20
    4db2:	e4 57       	subi	r30, 0x74	; 116
    4db4:	fb 4e       	sbci	r31, 0xEB	; 235
							}
							else if(Det_IrAvPtoP_Data[i] > pgm_read_word( &DET_EEP_SYS_UP_LIMIT[DET_EEP_CAL_BUF_IR430_01 + i])){
    4db6:	85 91       	lpm	r24, Z+
    4db8:	94 91       	lpm	r25, Z+
    4dba:	86 17       	cp	r24, r22
    4dbc:	97 07       	cpc	r25, r23
    4dbe:	08 f4       	brcc	.+2      	; 0x4dc2 <Func_T_Calibration_Mode+0x9e2>
								Det_System_Fault_Flag++;
    4dc0:	af 5f       	subi	r26, 0xFF	; 255
    4dc2:	2e 5f       	subi	r18, 0xFE	; 254
    4dc4:	3f 4f       	sbci	r19, 0xFF	; 255
					}
					
					if(dac_flag > 11){
						Calibration_Mode_Flow = 4;
						dac_flag = 0;
						for(i=0;i<(DET_EEP_CAL_BUF_IR530_07 - DET_EEP_CAL_BUF_IR430_01)+1;i++){
    4dc6:	2a 32       	cpi	r18, 0x2A	; 42
    4dc8:	31 05       	cpc	r19, r1
    4dca:	11 f7       	brne	.-60     	; 0x4d90 <Func_T_Calibration_Mode+0x9b0>
    4dcc:	a0 93 f5 0a 	sts	0x0AF5, r26
							}
							else if(Det_IrAvPtoP_Data[i] > pgm_read_word( &DET_EEP_SYS_UP_LIMIT[DET_EEP_CAL_BUF_IR430_01 + i])){
								Det_System_Fault_Flag++;
							}
						}
						printf(",%d\n", Det_Input_Reg_Data[DET_InputReg_Tempareture]);
    4dd0:	00 d0       	rcall	.+0      	; 0x4dd2 <Func_T_Calibration_Mode+0x9f2>
    4dd2:	0f 92       	push	r0
    4dd4:	81 e2       	ldi	r24, 0x21	; 33
    4dd6:	96 e0       	ldi	r25, 0x06	; 6
    4dd8:	ad b7       	in	r26, 0x3d	; 61
    4dda:	be b7       	in	r27, 0x3e	; 62
    4ddc:	12 96       	adiw	r26, 0x02	; 2
    4dde:	9c 93       	st	X, r25
    4de0:	8e 93       	st	-X, r24
    4de2:	11 97       	sbiw	r26, 0x01	; 1
    4de4:	80 91 9f 0f 	lds	r24, 0x0F9F
    4de8:	90 91 a0 0f 	lds	r25, 0x0FA0
    4dec:	14 96       	adiw	r26, 0x04	; 4
    4dee:	9c 93       	st	X, r25
    4df0:	8e 93       	st	-X, r24
    4df2:	13 97       	sbiw	r26, 0x03	; 3
    4df4:	0e 94 a0 3d 	call	0x7b40	; 0x7b40 <printf>
						
						if(!Det_System_Fault_Flag){
    4df8:	0f 90       	pop	r0
    4dfa:	0f 90       	pop	r0
    4dfc:	0f 90       	pop	r0
    4dfe:	0f 90       	pop	r0
    4e00:	80 91 f5 0a 	lds	r24, 0x0AF5
    4e04:	88 23       	and	r24, r24
    4e06:	51 f4       	brne	.+20     	; 0x4e1c <Func_T_Calibration_Mode+0xa3c>
							Det_Modbus_Buf[Det_Comm_Flow] = Commnication_IR_Calribration_Set;
    4e08:	86 e0       	ldi	r24, 0x06	; 6
    4e0a:	90 e0       	ldi	r25, 0x00	; 0
    4e0c:	90 93 1f 15 	sts	0x151F, r25
    4e10:	80 93 1e 15 	sts	0x151E, r24
							Calibration_Mode_Count = Det_BlackBody_DataCheck_Count;
    4e14:	85 e0       	ldi	r24, 0x05	; 5
    4e16:	80 93 b1 0a 	sts	0x0AB1, r24
    4e1a:	02 c0       	rjmp	.+4      	; 0x4e20 <Func_T_Calibration_Mode+0xa40>
						}
						else{
							Calibration_Mode_Count = 0;
    4e1c:	10 92 b1 0a 	sts	0x0AB1, r1
						}
						
						Det_System_Fault_Flag = 0;
    4e20:	10 92 f5 0a 	sts	0x0AF5, r1
    4e24:	13 c0       	rjmp	.+38     	; 0x4e4c <Func_T_Calibration_Mode+0xa6c>
					}
					else{
						dac_flag++;
    4e26:	2f 5f       	subi	r18, 0xFF	; 255
    4e28:	3f 4f       	sbci	r19, 0xFF	; 255
    4e2a:	30 93 b4 0a 	sts	0x0AB4, r19
    4e2e:	20 93 b3 0a 	sts	0x0AB3, r18
						Calibration_Mode_Flow = 1;
    4e32:	81 e0       	ldi	r24, 0x01	; 1
    4e34:	80 93 82 0a 	sts	0x0A82, r24
						Calibration_Mode_Count = Det_BlackBody_Delay_Count;
    4e38:	85 e0       	ldi	r24, 0x05	; 5
    4e3a:	80 93 b1 0a 	sts	0x0AB1, r24
						memset( Det_IrAvPtoP_Sum, 0, sizeof(Det_IrAvPtoP_Sum) );
    4e3e:	86 e0       	ldi	r24, 0x06	; 6
    4e40:	ec e4       	ldi	r30, 0x4C	; 76
    4e42:	fa e0       	ldi	r31, 0x0A	; 10
    4e44:	df 01       	movw	r26, r30
    4e46:	1d 92       	st	X+, r1
    4e48:	8a 95       	dec	r24
    4e4a:	e9 f7       	brne	.-6      	; 0x4e46 <Func_T_Calibration_Mode+0xa66>
				}
				break;
		}
#endif
	}
}
    4e4c:	df 91       	pop	r29
    4e4e:	cf 91       	pop	r28
    4e50:	1f 91       	pop	r17
    4e52:	0f 91       	pop	r16
    4e54:	ff 90       	pop	r15
    4e56:	ef 90       	pop	r14
    4e58:	df 90       	pop	r13
    4e5a:	cf 90       	pop	r12
    4e5c:	08 95       	ret

00004e5e <LCD_Operating>:
	}
}

void LCD_Operating(void)
{
	switch(mmi_mode){
    4e5e:	80 91 cf 0a 	lds	r24, 0x0ACF
    4e62:	8c 30       	cpi	r24, 0x0C	; 12
    4e64:	a9 f1       	breq	.+106    	; 0x4ed0 <LCD_Operating+0x72>
    4e66:	8d 30       	cpi	r24, 0x0D	; 13
    4e68:	a0 f4       	brcc	.+40     	; 0x4e92 <LCD_Operating+0x34>
    4e6a:	84 30       	cpi	r24, 0x04	; 4
    4e6c:	59 f1       	breq	.+86     	; 0x4ec4 <LCD_Operating+0x66>
    4e6e:	85 30       	cpi	r24, 0x05	; 5
    4e70:	40 f4       	brcc	.+16     	; 0x4e82 <LCD_Operating+0x24>
    4e72:	81 30       	cpi	r24, 0x01	; 1
    4e74:	09 f1       	breq	.+66     	; 0x4eb8 <LCD_Operating+0x5a>
    4e76:	81 30       	cpi	r24, 0x01	; 1
    4e78:	e0 f0       	brcs	.+56     	; 0x4eb2 <LCD_Operating+0x54>
    4e7a:	82 30       	cpi	r24, 0x02	; 2
    4e7c:	09 f0       	breq	.+2      	; 0x4e80 <LCD_Operating+0x22>
    4e7e:	45 c0       	rjmp	.+138    	; 0x4f0a <LCD_Operating+0xac>
    4e80:	1e c0       	rjmp	.+60     	; 0x4ebe <LCD_Operating+0x60>
    4e82:	8a 30       	cpi	r24, 0x0A	; 10
    4e84:	09 f4       	brne	.+2      	; 0x4e88 <LCD_Operating+0x2a>
    4e86:	3f c0       	rjmp	.+126    	; 0x4f06 <LCD_Operating+0xa8>
    4e88:	8b 30       	cpi	r24, 0x0B	; 11
    4e8a:	f8 f4       	brcc	.+62     	; 0x4eca <LCD_Operating+0x6c>
    4e8c:	85 30       	cpi	r24, 0x05	; 5
    4e8e:	e9 f5       	brne	.+122    	; 0x4f0a <LCD_Operating+0xac>
    4e90:	37 c0       	rjmp	.+110    	; 0x4f00 <LCD_Operating+0xa2>
    4e92:	80 31       	cpi	r24, 0x10	; 16
    4e94:	79 f1       	breq	.+94     	; 0x4ef4 <LCD_Operating+0x96>
    4e96:	81 31       	cpi	r24, 0x11	; 17
    4e98:	28 f4       	brcc	.+10     	; 0x4ea4 <LCD_Operating+0x46>
    4e9a:	8e 30       	cpi	r24, 0x0E	; 14
    4e9c:	f9 f0       	breq	.+62     	; 0x4edc <LCD_Operating+0x7e>
    4e9e:	8f 30       	cpi	r24, 0x0F	; 15
    4ea0:	30 f5       	brcc	.+76     	; 0x4eee <LCD_Operating+0x90>
    4ea2:	19 c0       	rjmp	.+50     	; 0x4ed6 <LCD_Operating+0x78>
    4ea4:	82 31       	cpi	r24, 0x12	; 18
    4ea6:	e9 f0       	breq	.+58     	; 0x4ee2 <LCD_Operating+0x84>
    4ea8:	82 31       	cpi	r24, 0x12	; 18
    4eaa:	38 f1       	brcs	.+78     	; 0x4efa <LCD_Operating+0x9c>
    4eac:	83 31       	cpi	r24, 0x13	; 19
    4eae:	69 f5       	brne	.+90     	; 0x4f0a <LCD_Operating+0xac>
    4eb0:	1b c0       	rjmp	.+54     	; 0x4ee8 <LCD_Operating+0x8a>
		case FMODE_WARM_UP:
			Func_Warm_Up();
    4eb2:	0e 94 61 1b 	call	0x36c2	; 0x36c2 <Func_Warm_Up>
    4eb6:	29 c0       	rjmp	.+82     	; 0x4f0a <LCD_Operating+0xac>
			break;
		case FMODE_DET_SYSTEM_CHECK:
			Func_Det_System_Check_Mode();
    4eb8:	0e 94 64 19 	call	0x32c8	; 0x32c8 <Func_Det_System_Check_Mode>
    4ebc:	26 c0       	rjmp	.+76     	; 0x4f0a <LCD_Operating+0xac>
			break;
		case FMODE_NORMAL:
			Func_Normal();
    4ebe:	0e 94 f0 1e 	call	0x3de0	; 0x3de0 <Func_Normal>
    4ec2:	23 c0       	rjmp	.+70     	; 0x4f0a <LCD_Operating+0xac>
			break;
		case FMODE_U_CALIBRATION_MODE:
			Func_U_Calibration_Mode();
			break;
		case FMODE_T_CALIBRATION_MODE:
			Func_T_Calibration_Mode();
    4ec4:	0e 94 f0 21 	call	0x43e0	; 0x43e0 <Func_T_Calibration_Mode>
    4ec8:	20 c0       	rjmp	.+64     	; 0x4f0a <LCD_Operating+0xac>
			break;
		case FMODE_CONFIGIURATION:
			Func_Configration();
    4eca:	0e 94 0e 1c 	call	0x381c	; 0x381c <Func_Configration>
    4ece:	1d c0       	rjmp	.+58     	; 0x4f0a <LCD_Operating+0xac>
			break;
		case FMODE_DET_CONFIGIURATION:
			Func_Det_Configration();
    4ed0:	0e 94 e6 1b 	call	0x37cc	; 0x37cc <Func_Det_Configration>
    4ed4:	1a c0       	rjmp	.+52     	; 0x4f0a <LCD_Operating+0xac>
			break;
		case FMODE_DEV_CONFIGIURATION:
			Func_Dev_Configration();
    4ed6:	0e 94 c9 1b 	call	0x3792	; 0x3792 <Func_Dev_Configration>
    4eda:	17 c0       	rjmp	.+46     	; 0x4f0a <LCD_Operating+0xac>
			break;
		case FMODE_ADDRESS_SET:
			Func_Address_Set();
    4edc:	0e 94 47 1e 	call	0x3c8e	; 0x3c8e <Func_Address_Set>
    4ee0:	14 c0       	rjmp	.+40     	; 0x4f0a <LCD_Operating+0xac>
			break;
		//case FMODE_DET_MA_CAL_SET:
			//Func_Det_mA_Cal_Set();
		//	break;
		case FMODE_DEV_MA_CAL_SET:
			Func_Dev_mA_Cal_Set();
    4ee2:	0e 94 c6 1a 	call	0x358c	; 0x358c <Func_Dev_mA_Cal_Set>
    4ee6:	11 c0       	rjmp	.+34     	; 0x4f0a <LCD_Operating+0xac>
			break;
		case FMODE_DEV_MODE_SET:
			Func_Dev_Mode_Set();
    4ee8:	0e 94 07 1e 	call	0x3c0e	; 0x3c0e <Func_Dev_Mode_Set>
    4eec:	0e c0       	rjmp	.+28     	; 0x4f0a <LCD_Operating+0xac>
			break;
		case FMODE_DET_RELAY_SET:
			Func_Det_Relay_Set();
    4eee:	0e 94 87 1d 	call	0x3b0e	; 0x3b0e <Func_Det_Relay_Set>
    4ef2:	0b c0       	rjmp	.+22     	; 0x4f0a <LCD_Operating+0xac>
			break;
		case FMODE_DET_IR_RESPONSIVITY_SET:
			Func_Det_IR_Responsivity_Set();
    4ef4:	0e 94 0f 1d 	call	0x3a1e	; 0x3a1e <Func_Det_IR_Responsivity_Set>
    4ef8:	08 c0       	rjmp	.+16     	; 0x4f0a <LCD_Operating+0xac>
			break;
		case FMODE_DET_FUNCTION_SET:
			Func_Det_Function_Set();
    4efa:	0e 94 36 1c 	call	0x386c	; 0x386c <Func_Det_Function_Set>
    4efe:	05 c0       	rjmp	.+10     	; 0x4f0a <LCD_Operating+0xac>
			break;
		case FMODE_DET_EEP_CLEAR_MODE:
			Func_Det_Eep_Clear_Mode();
    4f00:	0e 94 ec 20 	call	0x41d8	; 0x41d8 <Func_Det_Eep_Clear_Mode>
    4f04:	02 c0       	rjmp	.+4      	; 0x4f0a <LCD_Operating+0xac>
			break;
		case FMODE_DET_TEST_MODE:
			Func_Det_Test_Mode();
    4f06:	0e 94 0b 19 	call	0x3216	; 0x3216 <Func_Det_Test_Mode>
			break;
	}
	
	if(mmi_mode != mmi_mode_old){
    4f0a:	90 91 cf 0a 	lds	r25, 0x0ACF
    4f0e:	80 91 d8 0a 	lds	r24, 0x0AD8
    4f12:	98 17       	cp	r25, r24
    4f14:	41 f0       	breq	.+16     	; 0x4f26 <LCD_Operating+0xc8>
		LCD_Clear_Line_All();
    4f16:	0e 94 44 0f 	call	0x1e88	; 0x1e88 <LCD_Clear_Line_All>
		if(mmi_mode == 99){
    4f1a:	80 91 cf 0a 	lds	r24, 0x0ACF
    4f1e:	83 36       	cpi	r24, 0x63	; 99
    4f20:	11 f4       	brne	.+4      	; 0x4f26 <LCD_Operating+0xc8>
			Mode_Select();
    4f22:	0e 94 57 17 	call	0x2eae	; 0x2eae <Mode_Select>
		}
	}
	mmi_mode_old = mmi_mode;
    4f26:	80 91 cf 0a 	lds	r24, 0x0ACF
    4f2a:	80 93 d8 0a 	sts	0x0AD8, r24
}
    4f2e:	08 95       	ret

00004f30 <CRC16>:
	Dvc_Address = epr_sm[EEP_Device_Address];
}

/////////////////////////////////////////////////////////////////////////////////////////////////////////////////////////////////////
U16 CRC16( const U8 *nData, U16 wLength )
{
    4f30:	dc 01       	movw	r26, r24
    4f32:	2f ef       	ldi	r18, 0xFF	; 255
    4f34:	3f ef       	ldi	r19, 0xFF	; 255
    4f36:	0f c0       	rjmp	.+30     	; 0x4f56 <CRC16+0x26>
	U8 nTemp;
	U16 wCRCWord = 0xFFFF;
	
	while (wLength--)
	{
		nTemp = *nData++ ^ wCRCWord;
    4f38:	ed 91       	ld	r30, X+
    4f3a:	e2 27       	eor	r30, r18
		wCRCWord >>= 8;
    4f3c:	23 2f       	mov	r18, r19
    4f3e:	33 27       	eor	r19, r19
		wCRCWord  ^= wCRCTable[nTemp];
    4f40:	f0 e0       	ldi	r31, 0x00	; 0
    4f42:	ee 0f       	add	r30, r30
    4f44:	ff 1f       	adc	r31, r31
    4f46:	e8 56       	subi	r30, 0x68	; 104
    4f48:	f9 4f       	sbci	r31, 0xF9	; 249
    4f4a:	80 81       	ld	r24, Z
    4f4c:	91 81       	ldd	r25, Z+1	; 0x01
    4f4e:	28 27       	eor	r18, r24
    4f50:	39 27       	eor	r19, r25
    4f52:	61 50       	subi	r22, 0x01	; 1
    4f54:	70 40       	sbci	r23, 0x00	; 0
U16 CRC16( const U8 *nData, U16 wLength )
{
	U8 nTemp;
	U16 wCRCWord = 0xFFFF;
	
	while (wLength--)
    4f56:	61 15       	cp	r22, r1
    4f58:	71 05       	cpc	r23, r1
    4f5a:	71 f7       	brne	.-36     	; 0x4f38 <CRC16+0x8>
		wCRCWord >>= 8;
		wCRCWord  ^= wCRCTable[nTemp];
	}
	
	return wCRCWord;
}
    4f5c:	c9 01       	movw	r24, r18
    4f5e:	08 95       	ret

00004f60 <Com_Write_Multiple_Register_Slave>:
	*/
}

/////////////////////////////////////////////////////////////////////////////////////////////////////////////////////////////////////
void Com_Write_Multiple_Register_Slave( U8 *rxbuf )
{
    4f60:	1f 93       	push	r17
    4f62:	df 93       	push	r29
    4f64:	cf 93       	push	r28
    4f66:	cd b7       	in	r28, 0x3d	; 61
    4f68:	de b7       	in	r29, 0x3e	; 62
    4f6a:	28 97       	sbiw	r28, 0x08	; 8
    4f6c:	0f b6       	in	r0, 0x3f	; 63
    4f6e:	f8 94       	cli
    4f70:	de bf       	out	0x3e, r29	; 62
    4f72:	0f be       	out	0x3f, r0	; 63
    4f74:	cd bf       	out	0x3d, r28	; 61
    4f76:	bc 01       	movw	r22, r24
	U16		i;
	U8		bc;
	U8		bData[8];
	
	//DPRINT("Multi Write PC\n");
	bc = *(rxbuf+MRX_BYTECNT);
    4f78:	fc 01       	movw	r30, r24
    4f7a:	16 81       	ldd	r17, Z+6	; 0x06
	wCRC = CRC16( rxbuf, bc+7 );
    4f7c:	21 2f       	mov	r18, r17
    4f7e:	30 e0       	ldi	r19, 0x00	; 0
    4f80:	29 5f       	subi	r18, 0xF9	; 249
    4f82:	3f 4f       	sbci	r19, 0xFF	; 255
    4f84:	dc 01       	movw	r26, r24
    4f86:	4f ef       	ldi	r20, 0xFF	; 255
    4f88:	5f ef       	ldi	r21, 0xFF	; 255
	U8 nTemp;
	U16 wCRCWord = 0xFFFF;
	
	while (wLength--)
	{
		nTemp = *nData++ ^ wCRCWord;
    4f8a:	ed 91       	ld	r30, X+
    4f8c:	e4 27       	eor	r30, r20
		wCRCWord >>= 8;
    4f8e:	45 2f       	mov	r20, r21
    4f90:	55 27       	eor	r21, r21
		wCRCWord  ^= wCRCTable[nTemp];
    4f92:	f0 e0       	ldi	r31, 0x00	; 0
    4f94:	ee 0f       	add	r30, r30
    4f96:	ff 1f       	adc	r31, r31
    4f98:	e8 56       	subi	r30, 0x68	; 104
    4f9a:	f9 4f       	sbci	r31, 0xF9	; 249
    4f9c:	80 81       	ld	r24, Z
    4f9e:	91 81       	ldd	r25, Z+1	; 0x01
    4fa0:	48 27       	eor	r20, r24
    4fa2:	59 27       	eor	r21, r25
    4fa4:	21 50       	subi	r18, 0x01	; 1
    4fa6:	30 40       	sbci	r19, 0x00	; 0
U16 CRC16( const U8 *nData, U16 wLength )
{
	U8 nTemp;
	U16 wCRCWord = 0xFFFF;
	
	while (wLength--)
    4fa8:	81 f7       	brne	.-32     	; 0x4f8a <Com_Write_Multiple_Register_Slave+0x2a>
	U8		bData[8];
	
	//DPRINT("Multi Write PC\n");
	bc = *(rxbuf+MRX_BYTECNT);
	wCRC = CRC16( rxbuf, bc+7 );
	if( !( ((wCRC&255) == *(rxbuf+bc+7)) && ((wCRC>>8&255) == *(rxbuf+bc+8)) )){
    4faa:	9a 01       	movw	r18, r20
    4fac:	30 70       	andi	r19, 0x00	; 0
    4fae:	fb 01       	movw	r30, r22
    4fb0:	e1 0f       	add	r30, r17
    4fb2:	f1 1d       	adc	r31, r1
    4fb4:	87 81       	ldd	r24, Z+7	; 0x07
    4fb6:	90 e0       	ldi	r25, 0x00	; 0
    4fb8:	28 17       	cp	r18, r24
    4fba:	39 07       	cpc	r19, r25
    4fbc:	39 f4       	brne	.+14     	; 0x4fcc <Com_Write_Multiple_Register_Slave+0x6c>
    4fbe:	25 2f       	mov	r18, r21
    4fc0:	33 27       	eor	r19, r19
    4fc2:	80 85       	ldd	r24, Z+8	; 0x08
    4fc4:	90 e0       	ldi	r25, 0x00	; 0
    4fc6:	28 17       	cp	r18, r24
    4fc8:	39 07       	cpc	r19, r25
    4fca:	29 f0       	breq	.+10     	; 0x4fd6 <Com_Write_Multiple_Register_Slave+0x76>
		DPRINT("CRC multi Fail\n");
    4fcc:	86 e2       	ldi	r24, 0x26	; 38
    4fce:	96 e0       	ldi	r25, 0x06	; 6
    4fd0:	0e 94 b9 3d 	call	0x7b72	; 0x7b72 <puts>
    4fd4:	58 c0       	rjmp	.+176    	; 0x5086 <Com_Write_Multiple_Register_Slave+0x126>
		return;
	}
	
	Det_Modbus_Buf[Det_Write_Register_Addr] = (((U16)*(rxbuf+MRX_ADDHGH))<<8) | ((U16)*(rxbuf+MRX_ADDLOW));
    4fd6:	fb 01       	movw	r30, r22
    4fd8:	92 81       	ldd	r25, Z+2	; 0x02
    4fda:	80 e0       	ldi	r24, 0x00	; 0
    4fdc:	23 81       	ldd	r18, Z+3	; 0x03
    4fde:	30 e0       	ldi	r19, 0x00	; 0
    4fe0:	82 2b       	or	r24, r18
    4fe2:	93 2b       	or	r25, r19
    4fe4:	90 93 2d 15 	sts	0x152D, r25
    4fe8:	80 93 2c 15 	sts	0x152C, r24
	Det_Modbus_Buf[Det_Write_Register_Data] = (((U16)*(rxbuf+MRX_DATACHGH))<<8) | ((U16)*(rxbuf+MRX_DATACLOW));
    4fec:	94 81       	ldd	r25, Z+4	; 0x04
    4fee:	80 e0       	ldi	r24, 0x00	; 0
    4ff0:	25 81       	ldd	r18, Z+5	; 0x05
    4ff2:	30 e0       	ldi	r19, 0x00	; 0
    4ff4:	28 2b       	or	r18, r24
    4ff6:	39 2b       	or	r19, r25
    4ff8:	30 93 2f 15 	sts	0x152F, r19
    4ffc:	20 93 2e 15 	sts	0x152E, r18
    5000:	a9 ef       	ldi	r26, 0xF9	; 249
    5002:	ba e0       	ldi	r27, 0x0A	; 10
		DPRINT("Buff Size 3 Fail\n");
		return;
	}
	*/
	
	for( i=0; i<Det_Modbus_Buf[Det_Write_Register_Data]; i++ ){
    5004:	22 0f       	add	r18, r18
    5006:	33 1f       	adc	r19, r19
    5008:	2a 0f       	add	r18, r26
    500a:	3b 1f       	adc	r19, r27
    500c:	08 c0       	rjmp	.+16     	; 0x501e <Com_Write_Multiple_Register_Slave+0xbe>
		data = (((S16)*(rxbuf+7+i*2))<<8) | ((S16)*(rxbuf+8+i*2));
		write_register_data_arry[i] = data;
    500e:	55 81       	ldd	r21, Z+5	; 0x05
    5010:	40 e0       	ldi	r20, 0x00	; 0
    5012:	86 81       	ldd	r24, Z+6	; 0x06
    5014:	90 e0       	ldi	r25, 0x00	; 0
    5016:	84 2b       	or	r24, r20
    5018:	95 2b       	or	r25, r21
    501a:	8d 93       	st	X+, r24
    501c:	9d 93       	st	X+, r25
    501e:	32 96       	adiw	r30, 0x02	; 2
		DPRINT("Buff Size 3 Fail\n");
		return;
	}
	*/
	
	for( i=0; i<Det_Modbus_Buf[Det_Write_Register_Data]; i++ ){
    5020:	a2 17       	cp	r26, r18
    5022:	b3 07       	cpc	r27, r19
    5024:	a1 f7       	brne	.-24     	; 0x500e <Com_Write_Multiple_Register_Slave+0xae>
    5026:	20 e0       	ldi	r18, 0x00	; 0
    5028:	30 e0       	ldi	r19, 0x00	; 0
	else {
		EepErrorFlag = 0;
	}
	*/
	for( i=0; i<6; i++ ){
		bData[i] = *(rxbuf+i);
    502a:	ae 01       	movw	r20, r28
    502c:	4f 5f       	subi	r20, 0xFF	; 255
    502e:	5f 4f       	sbci	r21, 0xFF	; 255
    5030:	fa 01       	movw	r30, r20
    5032:	e2 0f       	add	r30, r18
    5034:	f3 1f       	adc	r31, r19
    5036:	db 01       	movw	r26, r22
    5038:	a2 0f       	add	r26, r18
    503a:	b3 1f       	adc	r27, r19
    503c:	8c 91       	ld	r24, X
    503e:	80 83       	st	Z, r24
	}
	else {
		EepErrorFlag = 0;
	}
	*/
	for( i=0; i<6; i++ ){
    5040:	2f 5f       	subi	r18, 0xFF	; 255
    5042:	3f 4f       	sbci	r19, 0xFF	; 255
    5044:	26 30       	cpi	r18, 0x06	; 6
    5046:	31 05       	cpc	r19, r1
    5048:	99 f7       	brne	.-26     	; 0x5030 <Com_Write_Multiple_Register_Slave+0xd0>
    504a:	da 01       	movw	r26, r20
    504c:	2f ef       	ldi	r18, 0xFF	; 255
    504e:	3f ef       	ldi	r19, 0xFF	; 255
U16 CRC16( const U8 *nData, U16 wLength )
{
	U8 nTemp;
	U16 wCRCWord = 0xFFFF;
	
	while (wLength--)
    5050:	ae 01       	movw	r20, r28
    5052:	49 5f       	subi	r20, 0xF9	; 249
    5054:	5f 4f       	sbci	r21, 0xFF	; 255
    5056:	0d c0       	rjmp	.+26     	; 0x5072 <Com_Write_Multiple_Register_Slave+0x112>
	{
		nTemp = *nData++ ^ wCRCWord;
    5058:	ed 91       	ld	r30, X+
    505a:	e2 27       	eor	r30, r18
		wCRCWord >>= 8;
    505c:	23 2f       	mov	r18, r19
    505e:	33 27       	eor	r19, r19
		wCRCWord  ^= wCRCTable[nTemp];
    5060:	f0 e0       	ldi	r31, 0x00	; 0
    5062:	ee 0f       	add	r30, r30
    5064:	ff 1f       	adc	r31, r31
    5066:	e8 56       	subi	r30, 0x68	; 104
    5068:	f9 4f       	sbci	r31, 0xF9	; 249
    506a:	80 81       	ld	r24, Z
    506c:	91 81       	ldd	r25, Z+1	; 0x01
    506e:	28 27       	eor	r18, r24
    5070:	39 27       	eor	r19, r25
U16 CRC16( const U8 *nData, U16 wLength )
{
	U8 nTemp;
	U16 wCRCWord = 0xFFFF;
	
	while (wLength--)
    5072:	a4 17       	cp	r26, r20
    5074:	b5 07       	cpc	r27, r21
    5076:	81 f7       	brne	.-32     	; 0x5058 <Com_Write_Multiple_Register_Slave+0xf8>
	*/
	for( i=0; i<6; i++ ){
		bData[i] = *(rxbuf+i);
	}
	wCRC = CRC16( bData, 6 );
	bData[6] = wCRC & 255;
    5078:	2f 83       	std	Y+7, r18	; 0x07
	bData[7] = wCRC >> 8 & 255;
    507a:	38 87       	std	Y+8, r19	; 0x08
	USART1_Packet_Send( bData, 8 );
    507c:	ce 01       	movw	r24, r28
    507e:	01 96       	adiw	r24, 0x01	; 1
    5080:	68 e0       	ldi	r22, 0x08	; 8
    5082:	0e 94 3b 30 	call	0x6076	; 0x6076 <USART1_Packet_Send>
}
    5086:	28 96       	adiw	r28, 0x08	; 8
    5088:	0f b6       	in	r0, 0x3f	; 63
    508a:	f8 94       	cli
    508c:	de bf       	out	0x3e, r29	; 62
    508e:	0f be       	out	0x3f, r0	; 63
    5090:	cd bf       	out	0x3d, r28	; 61
    5092:	cf 91       	pop	r28
    5094:	df 91       	pop	r29
    5096:	1f 91       	pop	r17
    5098:	08 95       	ret

0000509a <Com_Read_Holding_Register_Slave>:
	USART1_Packet_Send( bData, Len );
}

/////////////////////////////////////////////////////////////////////////////////////////////////////////////////////////////////////
void Com_Read_Holding_Register_Slave( U8 *rxbuf )
{
    509a:	ff 92       	push	r15
    509c:	0f 93       	push	r16
    509e:	1f 93       	push	r17
    50a0:	df 93       	push	r29
    50a2:	cf 93       	push	r28
    50a4:	cd b7       	in	r28, 0x3d	; 61
    50a6:	de b7       	in	r29, 0x3e	; 62
    50a8:	c0 50       	subi	r28, 0x00	; 0
    50aa:	d1 40       	sbci	r29, 0x01	; 1
    50ac:	0f b6       	in	r0, 0x3f	; 63
    50ae:	f8 94       	cli
    50b0:	de bf       	out	0x3e, r29	; 62
    50b2:	0f be       	out	0x3f, r0	; 63
    50b4:	cd bf       	out	0x3d, r28	; 61
    50b6:	bc 01       	movw	r22, r24
    50b8:	dc 01       	movw	r26, r24
    50ba:	26 e0       	ldi	r18, 0x06	; 6
    50bc:	30 e0       	ldi	r19, 0x00	; 0
    50be:	4f ef       	ldi	r20, 0xFF	; 255
    50c0:	5f ef       	ldi	r21, 0xFF	; 255
    50c2:	0d c0       	rjmp	.+26     	; 0x50de <Com_Read_Holding_Register_Slave+0x44>
	U8 nTemp;
	U16 wCRCWord = 0xFFFF;
	
	while (wLength--)
	{
		nTemp = *nData++ ^ wCRCWord;
    50c4:	ed 91       	ld	r30, X+
    50c6:	e4 27       	eor	r30, r20
		wCRCWord >>= 8;
    50c8:	45 2f       	mov	r20, r21
    50ca:	55 27       	eor	r21, r21
		wCRCWord  ^= wCRCTable[nTemp];
    50cc:	f0 e0       	ldi	r31, 0x00	; 0
    50ce:	ee 0f       	add	r30, r30
    50d0:	ff 1f       	adc	r31, r31
    50d2:	e8 56       	subi	r30, 0x68	; 104
    50d4:	f9 4f       	sbci	r31, 0xF9	; 249
    50d6:	80 81       	ld	r24, Z
    50d8:	91 81       	ldd	r25, Z+1	; 0x01
    50da:	48 27       	eor	r20, r24
    50dc:	59 27       	eor	r21, r25
U16 CRC16( const U8 *nData, U16 wLength )
{
	U8 nTemp;
	U16 wCRCWord = 0xFFFF;
	
	while (wLength--)
    50de:	21 50       	subi	r18, 0x01	; 1
    50e0:	30 40       	sbci	r19, 0x00	; 0
    50e2:	8f ef       	ldi	r24, 0xFF	; 255
    50e4:	2f 3f       	cpi	r18, 0xFF	; 255
    50e6:	38 07       	cpc	r19, r24
    50e8:	69 f7       	brne	.-38     	; 0x50c4 <Com_Read_Holding_Register_Slave+0x2a>
	U16		bc;
	U8		bData[256], Len;
	
	//printf("HOLDING\n");
	wCRC = CRC16( rxbuf, MRX_CHKSUM_LOW );
	if( !( ((wCRC&255) == *(rxbuf+MRX_CHKSUM_LOW)) && ((wCRC>>8&255) == *(rxbuf+MRX_CHKSUM_HGH)) )){
    50ea:	9a 01       	movw	r18, r20
    50ec:	30 70       	andi	r19, 0x00	; 0
    50ee:	fb 01       	movw	r30, r22
    50f0:	86 81       	ldd	r24, Z+6	; 0x06
    50f2:	90 e0       	ldi	r25, 0x00	; 0
    50f4:	28 17       	cp	r18, r24
    50f6:	39 07       	cpc	r19, r25
    50f8:	39 f4       	brne	.+14     	; 0x5108 <Com_Read_Holding_Register_Slave+0x6e>
    50fa:	25 2f       	mov	r18, r21
    50fc:	33 27       	eor	r19, r19
    50fe:	87 81       	ldd	r24, Z+7	; 0x07
    5100:	90 e0       	ldi	r25, 0x00	; 0
    5102:	28 17       	cp	r18, r24
    5104:	39 07       	cpc	r19, r25
    5106:	29 f0       	breq	.+10     	; 0x5112 <Com_Read_Holding_Register_Slave+0x78>
		DPRINT("CRC holding Fail\n");
    5108:	85 e3       	ldi	r24, 0x35	; 53
    510a:	96 e0       	ldi	r25, 0x06	; 6
    510c:	0e 94 b9 3d 	call	0x7b72	; 0x7b72 <puts>
    5110:	5b c0       	rjmp	.+182    	; 0x51c8 <Com_Read_Holding_Register_Slave+0x12e>
		return;
	}
	
	ad = (((U16)*(rxbuf+MRX_ADDHGH))<<8) | ((U16)*(rxbuf+MRX_ADDLOW));
    5112:	fb 01       	movw	r30, r22
    5114:	92 81       	ldd	r25, Z+2	; 0x02
    5116:	80 e0       	ldi	r24, 0x00	; 0
    5118:	23 81       	ldd	r18, Z+3	; 0x03
    511a:	a2 2f       	mov	r26, r18
    511c:	b0 e0       	ldi	r27, 0x00	; 0
    511e:	a8 2b       	or	r26, r24
    5120:	b9 2b       	or	r27, r25
	wc = (((U16)*(rxbuf+MRX_DATACHGH))<<8) | ((U16)*(rxbuf+MRX_DATACLOW));
	bc = wc*2;
    5122:	94 81       	ldd	r25, Z+4	; 0x04
    5124:	80 e0       	ldi	r24, 0x00	; 0
    5126:	25 81       	ldd	r18, Z+5	; 0x05
    5128:	42 2f       	mov	r20, r18
    512a:	50 e0       	ldi	r21, 0x00	; 0
    512c:	48 2b       	or	r20, r24
    512e:	59 2b       	or	r21, r25
    5130:	44 0f       	add	r20, r20
    5132:	55 1f       	adc	r21, r21
	if( ad+wc > EEP_MAX ){
		DPRINT("Buff Size 3 Fail\n");
		return;
	}
*/	
	bData[MTX_STATNO] = *(rxbuf+MRX_STATNO);
    5134:	80 81       	ld	r24, Z
    5136:	89 83       	std	Y+1, r24	; 0x01
	bData[MTX_FUNCODE] = *(rxbuf+MRX_FUNCODE);
    5138:	81 81       	ldd	r24, Z+1	; 0x01
    513a:	8a 83       	std	Y+2, r24	; 0x02
	bData[MTX_BYTECNT] = bc;
    513c:	f4 2e       	mov	r15, r20
    513e:	4b 83       	std	Y+3, r20	; 0x03
    5140:	aa 0f       	add	r26, r26
    5142:	bb 1f       	adc	r27, r27
    5144:	a7 5c       	subi	r26, 0xC7	; 199
    5146:	b3 4e       	sbci	r27, 0xE3	; 227
    5148:	fe 01       	movw	r30, r28
    514a:	31 96       	adiw	r30, 0x01	; 1
	
	for( i=0; i<wc; i++ ){
    514c:	cf 01       	movw	r24, r30
    514e:	1e 2f       	mov	r17, r30
    5150:	09 2f       	mov	r16, r25
    5152:	9f 01       	movw	r18, r30
    5154:	24 0f       	add	r18, r20
    5156:	35 1f       	adc	r19, r21
    5158:	08 c0       	rjmp	.+16     	; 0x516a <Com_Read_Holding_Register_Slave+0xd0>
		bData[MTX_DATACHGH+i*2] = Det_Holding_Reg_Data[ad+i] >> 8 & 255;
    515a:	9c 91       	ld	r25, X
    515c:	11 96       	adiw	r26, 0x01	; 1
    515e:	8c 91       	ld	r24, X
    5160:	11 97       	sbiw	r26, 0x01	; 1
    5162:	83 83       	std	Z+3, r24	; 0x03
		bData[MTX_DATACLOW+i*2] = Det_Holding_Reg_Data[ad+i] & 255;
    5164:	94 83       	std	Z+4, r25	; 0x04
    5166:	12 96       	adiw	r26, 0x02	; 2
    5168:	32 96       	adiw	r30, 0x02	; 2
*/	
	bData[MTX_STATNO] = *(rxbuf+MRX_STATNO);
	bData[MTX_FUNCODE] = *(rxbuf+MRX_FUNCODE);
	bData[MTX_BYTECNT] = bc;
	
	for( i=0; i<wc; i++ ){
    516a:	e2 17       	cp	r30, r18
    516c:	f3 07       	cpc	r31, r19
    516e:	a9 f7       	brne	.-22     	; 0x515a <Com_Read_Holding_Register_Slave+0xc0>
		bData[MTX_DATACHGH+i*2] = Det_Holding_Reg_Data[ad+i] >> 8 & 255;
		bData[MTX_DATACLOW+i*2] = Det_Holding_Reg_Data[ad+i] & 255;
	}
	
	wCRC = CRC16( &bData[0], bc+MTX_DATA );
    5170:	da 01       	movw	r26, r20
    5172:	13 96       	adiw	r26, 0x03	; 3
    5174:	bd 01       	movw	r22, r26
    5176:	81 2f       	mov	r24, r17
    5178:	90 2f       	mov	r25, r16
    517a:	8c 01       	movw	r16, r24
    517c:	2f ef       	ldi	r18, 0xFF	; 255
    517e:	3f ef       	ldi	r19, 0xFF	; 255
    5180:	12 c0       	rjmp	.+36     	; 0x51a6 <Com_Read_Holding_Register_Slave+0x10c>
	U8 nTemp;
	U16 wCRCWord = 0xFFFF;
	
	while (wLength--)
	{
		nTemp = *nData++ ^ wCRCWord;
    5182:	f8 01       	movw	r30, r16
    5184:	81 91       	ld	r24, Z+
    5186:	8f 01       	movw	r16, r30
    5188:	82 27       	eor	r24, r18
		wCRCWord >>= 8;
    518a:	23 2f       	mov	r18, r19
    518c:	33 27       	eor	r19, r19
		wCRCWord  ^= wCRCTable[nTemp];
    518e:	e8 2f       	mov	r30, r24
    5190:	f0 e0       	ldi	r31, 0x00	; 0
    5192:	ee 0f       	add	r30, r30
    5194:	ff 1f       	adc	r31, r31
    5196:	e8 56       	subi	r30, 0x68	; 104
    5198:	f9 4f       	sbci	r31, 0xF9	; 249
    519a:	80 81       	ld	r24, Z
    519c:	91 81       	ldd	r25, Z+1	; 0x01
    519e:	28 27       	eor	r18, r24
    51a0:	39 27       	eor	r19, r25
    51a2:	61 50       	subi	r22, 0x01	; 1
    51a4:	70 40       	sbci	r23, 0x00	; 0
U16 CRC16( const U8 *nData, U16 wLength )
{
	U8 nTemp;
	U16 wCRCWord = 0xFFFF;
	
	while (wLength--)
    51a6:	61 15       	cp	r22, r1
    51a8:	71 05       	cpc	r23, r1
    51aa:	59 f7       	brne	.-42     	; 0x5182 <Com_Read_Holding_Register_Slave+0xe8>
		bData[MTX_DATACHGH+i*2] = Det_Holding_Reg_Data[ad+i] >> 8 & 255;
		bData[MTX_DATACLOW+i*2] = Det_Holding_Reg_Data[ad+i] & 255;
	}
	
	wCRC = CRC16( &bData[0], bc+MTX_DATA );
	bData[bc+3] = wCRC & 255;
    51ac:	ce 01       	movw	r24, r28
    51ae:	01 96       	adiw	r24, 0x01	; 1
    51b0:	a8 0f       	add	r26, r24
    51b2:	b9 1f       	adc	r27, r25
    51b4:	2c 93       	st	X, r18
	bData[bc+4] = wCRC >> 8 & 255;
    51b6:	4c 0f       	add	r20, r28
    51b8:	5d 1f       	adc	r21, r29
    51ba:	fa 01       	movw	r30, r20
    51bc:	35 83       	std	Z+5, r19	; 0x05
	
	Len = bc+5;
	
	USART1_Packet_Send( bData, Len );
    51be:	f5 e0       	ldi	r31, 0x05	; 5
    51c0:	ff 0e       	add	r15, r31
    51c2:	6f 2d       	mov	r22, r15
    51c4:	0e 94 3b 30 	call	0x6076	; 0x6076 <USART1_Packet_Send>
}
    51c8:	c0 50       	subi	r28, 0x00	; 0
    51ca:	df 4f       	sbci	r29, 0xFF	; 255
    51cc:	0f b6       	in	r0, 0x3f	; 63
    51ce:	f8 94       	cli
    51d0:	de bf       	out	0x3e, r29	; 62
    51d2:	0f be       	out	0x3f, r0	; 63
    51d4:	cd bf       	out	0x3d, r28	; 61
    51d6:	cf 91       	pop	r28
    51d8:	df 91       	pop	r29
    51da:	1f 91       	pop	r17
    51dc:	0f 91       	pop	r16
    51de:	ff 90       	pop	r15
    51e0:	08 95       	ret

000051e2 <Com_Read_Input_Register_Slave>:
	}
}

/////////////////////////////////////////////////////////////////////////////////////////////////////////////////////////////////////
void Com_Read_Input_Register_Slave( U8 *rxbuf )
{
    51e2:	ff 92       	push	r15
    51e4:	0f 93       	push	r16
    51e6:	1f 93       	push	r17
    51e8:	df 93       	push	r29
    51ea:	cf 93       	push	r28
    51ec:	cd b7       	in	r28, 0x3d	; 61
    51ee:	de b7       	in	r29, 0x3e	; 62
    51f0:	c0 50       	subi	r28, 0x00	; 0
    51f2:	d1 40       	sbci	r29, 0x01	; 1
    51f4:	0f b6       	in	r0, 0x3f	; 63
    51f6:	f8 94       	cli
    51f8:	de bf       	out	0x3e, r29	; 62
    51fa:	0f be       	out	0x3f, r0	; 63
    51fc:	cd bf       	out	0x3d, r28	; 61
    51fe:	dc 01       	movw	r26, r24
    5200:	bc 01       	movw	r22, r24
    5202:	26 e0       	ldi	r18, 0x06	; 6
    5204:	30 e0       	ldi	r19, 0x00	; 0
    5206:	4f ef       	ldi	r20, 0xFF	; 255
    5208:	5f ef       	ldi	r21, 0xFF	; 255
    520a:	10 c0       	rjmp	.+32     	; 0x522c <Com_Read_Input_Register_Slave+0x4a>
	U8 nTemp;
	U16 wCRCWord = 0xFFFF;
	
	while (wLength--)
	{
		nTemp = *nData++ ^ wCRCWord;
    520c:	fb 01       	movw	r30, r22
    520e:	81 91       	ld	r24, Z+
    5210:	bf 01       	movw	r22, r30
    5212:	84 27       	eor	r24, r20
		wCRCWord >>= 8;
    5214:	45 2f       	mov	r20, r21
    5216:	55 27       	eor	r21, r21
		wCRCWord  ^= wCRCTable[nTemp];
    5218:	e8 2f       	mov	r30, r24
    521a:	f0 e0       	ldi	r31, 0x00	; 0
    521c:	ee 0f       	add	r30, r30
    521e:	ff 1f       	adc	r31, r31
    5220:	e8 56       	subi	r30, 0x68	; 104
    5222:	f9 4f       	sbci	r31, 0xF9	; 249
    5224:	80 81       	ld	r24, Z
    5226:	91 81       	ldd	r25, Z+1	; 0x01
    5228:	48 27       	eor	r20, r24
    522a:	59 27       	eor	r21, r25
U16 CRC16( const U8 *nData, U16 wLength )
{
	U8 nTemp;
	U16 wCRCWord = 0xFFFF;
	
	while (wLength--)
    522c:	21 50       	subi	r18, 0x01	; 1
    522e:	30 40       	sbci	r19, 0x00	; 0
    5230:	ff ef       	ldi	r31, 0xFF	; 255
    5232:	2f 3f       	cpi	r18, 0xFF	; 255
    5234:	3f 07       	cpc	r19, r31
    5236:	51 f7       	brne	.-44     	; 0x520c <Com_Read_Input_Register_Slave+0x2a>
	U16		bc;
	U8		bData[256], Len;
	
	//printf("INPUT\n");
	wCRC = CRC16( rxbuf, MRX_CHKSUM_LOW );
	if( !( ((wCRC&255) == *(rxbuf+MRX_CHKSUM_LOW)) && ((wCRC>>8&255) == *(rxbuf+MRX_CHKSUM_HGH)) )){
    5238:	9a 01       	movw	r18, r20
    523a:	30 70       	andi	r19, 0x00	; 0
    523c:	16 96       	adiw	r26, 0x06	; 6
    523e:	8c 91       	ld	r24, X
    5240:	16 97       	sbiw	r26, 0x06	; 6
    5242:	90 e0       	ldi	r25, 0x00	; 0
    5244:	28 17       	cp	r18, r24
    5246:	39 07       	cpc	r19, r25
    5248:	49 f4       	brne	.+18     	; 0x525c <Com_Read_Input_Register_Slave+0x7a>
    524a:	25 2f       	mov	r18, r21
    524c:	33 27       	eor	r19, r19
    524e:	17 96       	adiw	r26, 0x07	; 7
    5250:	8c 91       	ld	r24, X
    5252:	17 97       	sbiw	r26, 0x07	; 7
    5254:	90 e0       	ldi	r25, 0x00	; 0
    5256:	28 17       	cp	r18, r24
    5258:	39 07       	cpc	r19, r25
    525a:	19 f0       	breq	.+6      	; 0x5262 <Com_Read_Input_Register_Slave+0x80>
		DPRINT("CRC Input Fail\n");
    525c:	86 e4       	ldi	r24, 0x46	; 70
    525e:	96 e0       	ldi	r25, 0x06	; 6
    5260:	2c c0       	rjmp	.+88     	; 0x52ba <Com_Read_Input_Register_Slave+0xd8>
		return;
	}
	
	ad = (((U16)*(rxbuf+MRX_ADDHGH))<<8) | ((U16)*(rxbuf+MRX_ADDLOW));
    5262:	12 96       	adiw	r26, 0x02	; 2
    5264:	9c 91       	ld	r25, X
    5266:	12 97       	sbiw	r26, 0x02	; 2
    5268:	80 e0       	ldi	r24, 0x00	; 0
    526a:	13 96       	adiw	r26, 0x03	; 3
    526c:	2c 91       	ld	r18, X
    526e:	13 97       	sbiw	r26, 0x03	; 3
    5270:	30 e0       	ldi	r19, 0x00	; 0
    5272:	28 2b       	or	r18, r24
    5274:	39 2b       	or	r19, r25
	wc = (((U16)*(rxbuf+MRX_DATACHGH))<<8) | ((U16)*(rxbuf+MRX_DATACLOW));
    5276:	14 96       	adiw	r26, 0x04	; 4
    5278:	4c 91       	ld	r20, X
    527a:	14 97       	sbiw	r26, 0x04	; 4
    527c:	15 96       	adiw	r26, 0x05	; 5
    527e:	5c 91       	ld	r21, X
    5280:	15 97       	sbiw	r26, 0x05	; 5
	bc = wc*2;
	
	if( ad >= MAX_INPUT_REGISTER ){
    5282:	21 34       	cpi	r18, 0x41	; 65
    5284:	31 05       	cpc	r19, r1
    5286:	18 f0       	brcs	.+6      	; 0x528e <Com_Read_Input_Register_Slave+0xac>
		DPRINT("Buff Size 1 Fail\n");
    5288:	85 e5       	ldi	r24, 0x55	; 85
    528a:	96 e0       	ldi	r25, 0x06	; 6
    528c:	16 c0       	rjmp	.+44     	; 0x52ba <Com_Read_Input_Register_Slave+0xd8>
		DPRINT("CRC Input Fail\n");
		return;
	}
	
	ad = (((U16)*(rxbuf+MRX_ADDHGH))<<8) | ((U16)*(rxbuf+MRX_ADDLOW));
	wc = (((U16)*(rxbuf+MRX_DATACHGH))<<8) | ((U16)*(rxbuf+MRX_DATACLOW));
    528e:	94 2f       	mov	r25, r20
    5290:	80 e0       	ldi	r24, 0x00	; 0
    5292:	45 2f       	mov	r20, r21
    5294:	50 e0       	ldi	r21, 0x00	; 0
    5296:	48 2b       	or	r20, r24
    5298:	59 2b       	or	r21, r25
	
	if( ad >= MAX_INPUT_REGISTER ){
		DPRINT("Buff Size 1 Fail\n");
		return;
	}
	if( wc == 0 || wc > 125 || wc > MAX_INPUT_REGISTER ){
    529a:	ca 01       	movw	r24, r20
    529c:	01 97       	sbiw	r24, 0x01	; 1
    529e:	81 34       	cpi	r24, 0x41	; 65
    52a0:	91 05       	cpc	r25, r1
    52a2:	18 f0       	brcs	.+6      	; 0x52aa <Com_Read_Input_Register_Slave+0xc8>
		DPRINT("Buff Size 2 Fail\n");
    52a4:	86 e6       	ldi	r24, 0x66	; 102
    52a6:	96 e0       	ldi	r25, 0x06	; 6
    52a8:	08 c0       	rjmp	.+16     	; 0x52ba <Com_Read_Input_Register_Slave+0xd8>
		return;
	}
	if( ad+wc > MAX_INPUT_REGISTER ){
    52aa:	ca 01       	movw	r24, r20
    52ac:	82 0f       	add	r24, r18
    52ae:	93 1f       	adc	r25, r19
    52b0:	82 34       	cpi	r24, 0x42	; 66
    52b2:	91 05       	cpc	r25, r1
    52b4:	28 f0       	brcs	.+10     	; 0x52c0 <Com_Read_Input_Register_Slave+0xde>
		DPRINT("Buff Size 3 Fail\n");
    52b6:	87 e7       	ldi	r24, 0x77	; 119
    52b8:	96 e0       	ldi	r25, 0x06	; 6
    52ba:	0e 94 b9 3d 	call	0x7b72	; 0x7b72 <puts>
    52be:	4e c0       	rjmp	.+156    	; 0x535c <Com_Read_Input_Register_Slave+0x17a>
		return;
	}
	
	ad = (((U16)*(rxbuf+MRX_ADDHGH))<<8) | ((U16)*(rxbuf+MRX_ADDLOW));
	wc = (((U16)*(rxbuf+MRX_DATACHGH))<<8) | ((U16)*(rxbuf+MRX_DATACLOW));
	bc = wc*2;
    52c0:	44 0f       	add	r20, r20
    52c2:	55 1f       	adc	r21, r21
	if( ad+wc > MAX_INPUT_REGISTER ){
		DPRINT("Buff Size 3 Fail\n");
		return;
	}
	
	bData[MTX_STATNO] = *(rxbuf+MRX_STATNO);
    52c4:	8c 91       	ld	r24, X
    52c6:	89 83       	std	Y+1, r24	; 0x01
	bData[MTX_FUNCODE] = *(rxbuf+MRX_FUNCODE);
    52c8:	11 96       	adiw	r26, 0x01	; 1
    52ca:	8c 91       	ld	r24, X
    52cc:	8a 83       	std	Y+2, r24	; 0x02
	bData[MTX_BYTECNT] = bc;
    52ce:	f4 2e       	mov	r15, r20
    52d0:	4b 83       	std	Y+3, r20	; 0x03
    52d2:	d9 01       	movw	r26, r18
    52d4:	aa 0f       	add	r26, r26
    52d6:	bb 1f       	adc	r27, r27
    52d8:	a7 56       	subi	r26, 0x67	; 103
    52da:	b0 4f       	sbci	r27, 0xF0	; 240
    52dc:	fe 01       	movw	r30, r28
    52de:	31 96       	adiw	r30, 0x01	; 1
	
	for( i=0; i<wc; i++ ){
    52e0:	cf 01       	movw	r24, r30
    52e2:	1e 2f       	mov	r17, r30
    52e4:	09 2f       	mov	r16, r25
    52e6:	9f 01       	movw	r18, r30
    52e8:	24 0f       	add	r18, r20
    52ea:	35 1f       	adc	r19, r21
    52ec:	08 c0       	rjmp	.+16     	; 0x52fe <Com_Read_Input_Register_Slave+0x11c>
		bData[MTX_DATACHGH+i*2] = Det_Input_Reg_Data[ad+i] >> 8 & 255;
    52ee:	9c 91       	ld	r25, X
    52f0:	11 96       	adiw	r26, 0x01	; 1
    52f2:	8c 91       	ld	r24, X
    52f4:	11 97       	sbiw	r26, 0x01	; 1
    52f6:	83 83       	std	Z+3, r24	; 0x03
		bData[MTX_DATACLOW+i*2] = Det_Input_Reg_Data[ad+i] & 255;
    52f8:	94 83       	std	Z+4, r25	; 0x04
    52fa:	12 96       	adiw	r26, 0x02	; 2
    52fc:	32 96       	adiw	r30, 0x02	; 2
	
	bData[MTX_STATNO] = *(rxbuf+MRX_STATNO);
	bData[MTX_FUNCODE] = *(rxbuf+MRX_FUNCODE);
	bData[MTX_BYTECNT] = bc;
	
	for( i=0; i<wc; i++ ){
    52fe:	e2 17       	cp	r30, r18
    5300:	f3 07       	cpc	r31, r19
    5302:	a9 f7       	brne	.-22     	; 0x52ee <Com_Read_Input_Register_Slave+0x10c>
		bData[MTX_DATACLOW+i*2] = Det_Input_Reg_Data[ad+i] & 255;
		//bData[MTX_DATACHGH+i*2] = epr_sm[ad+i] >> 8 & 255;
		//bData[MTX_DATACLOW+i*2] = epr_sm[ad+i] & 255;
	}
	
	wCRC = CRC16( &bData[0], bc+MTX_DATA );
    5304:	da 01       	movw	r26, r20
    5306:	13 96       	adiw	r26, 0x03	; 3
    5308:	bd 01       	movw	r22, r26
    530a:	81 2f       	mov	r24, r17
    530c:	90 2f       	mov	r25, r16
    530e:	8c 01       	movw	r16, r24
    5310:	2f ef       	ldi	r18, 0xFF	; 255
    5312:	3f ef       	ldi	r19, 0xFF	; 255
    5314:	12 c0       	rjmp	.+36     	; 0x533a <Com_Read_Input_Register_Slave+0x158>
	U8 nTemp;
	U16 wCRCWord = 0xFFFF;
	
	while (wLength--)
	{
		nTemp = *nData++ ^ wCRCWord;
    5316:	f8 01       	movw	r30, r16
    5318:	81 91       	ld	r24, Z+
    531a:	8f 01       	movw	r16, r30
    531c:	82 27       	eor	r24, r18
		wCRCWord >>= 8;
    531e:	23 2f       	mov	r18, r19
    5320:	33 27       	eor	r19, r19
		wCRCWord  ^= wCRCTable[nTemp];
    5322:	e8 2f       	mov	r30, r24
    5324:	f0 e0       	ldi	r31, 0x00	; 0
    5326:	ee 0f       	add	r30, r30
    5328:	ff 1f       	adc	r31, r31
    532a:	e8 56       	subi	r30, 0x68	; 104
    532c:	f9 4f       	sbci	r31, 0xF9	; 249
    532e:	80 81       	ld	r24, Z
    5330:	91 81       	ldd	r25, Z+1	; 0x01
    5332:	28 27       	eor	r18, r24
    5334:	39 27       	eor	r19, r25
    5336:	61 50       	subi	r22, 0x01	; 1
    5338:	70 40       	sbci	r23, 0x00	; 0
U16 CRC16( const U8 *nData, U16 wLength )
{
	U8 nTemp;
	U16 wCRCWord = 0xFFFF;
	
	while (wLength--)
    533a:	61 15       	cp	r22, r1
    533c:	71 05       	cpc	r23, r1
    533e:	59 f7       	brne	.-42     	; 0x5316 <Com_Read_Input_Register_Slave+0x134>
		//bData[MTX_DATACHGH+i*2] = epr_sm[ad+i] >> 8 & 255;
		//bData[MTX_DATACLOW+i*2] = epr_sm[ad+i] & 255;
	}
	
	wCRC = CRC16( &bData[0], bc+MTX_DATA );
	bData[bc+3] = wCRC & 255;
    5340:	ce 01       	movw	r24, r28
    5342:	01 96       	adiw	r24, 0x01	; 1
    5344:	a8 0f       	add	r26, r24
    5346:	b9 1f       	adc	r27, r25
    5348:	2c 93       	st	X, r18
	bData[bc+4] = wCRC >> 8 & 255;
    534a:	4c 0f       	add	r20, r28
    534c:	5d 1f       	adc	r21, r29
    534e:	fa 01       	movw	r30, r20
    5350:	35 83       	std	Z+5, r19	; 0x05
	
	Len = bc+5;
	
	USART1_Packet_Send( bData, Len );
    5352:	f5 e0       	ldi	r31, 0x05	; 5
    5354:	ff 0e       	add	r15, r31
    5356:	6f 2d       	mov	r22, r15
    5358:	0e 94 3b 30 	call	0x6076	; 0x6076 <USART1_Packet_Send>
}
    535c:	c0 50       	subi	r28, 0x00	; 0
    535e:	df 4f       	sbci	r29, 0xFF	; 255
    5360:	0f b6       	in	r0, 0x3f	; 63
    5362:	f8 94       	cli
    5364:	de bf       	out	0x3e, r29	; 62
    5366:	0f be       	out	0x3f, r0	; 63
    5368:	cd bf       	out	0x3d, r28	; 61
    536a:	cf 91       	pop	r28
    536c:	df 91       	pop	r29
    536e:	1f 91       	pop	r17
    5370:	0f 91       	pop	r16
    5372:	ff 90       	pop	r15
    5374:	08 95       	ret

00005376 <Com_Write_Single_Register_Slave>:
	USART1_Packet_Send( bData, Len );
}

/////////////////////////////////////////////////////////////////////////////////////////////////////////////////////////////////////
void Com_Write_Single_Register_Slave( U8 *rxbuf )
{
    5376:	cf 93       	push	r28
    5378:	df 93       	push	r29
    537a:	dc 01       	movw	r26, r24
    537c:	ec 01       	movw	r28, r24
    537e:	26 e0       	ldi	r18, 0x06	; 6
    5380:	30 e0       	ldi	r19, 0x00	; 0
    5382:	4f ef       	ldi	r20, 0xFF	; 255
    5384:	5f ef       	ldi	r21, 0xFF	; 255
    5386:	0d c0       	rjmp	.+26     	; 0x53a2 <Com_Write_Single_Register_Slave+0x2c>
	U8 nTemp;
	U16 wCRCWord = 0xFFFF;
	
	while (wLength--)
	{
		nTemp = *nData++ ^ wCRCWord;
    5388:	e9 91       	ld	r30, Y+
    538a:	e4 27       	eor	r30, r20
		wCRCWord >>= 8;
    538c:	45 2f       	mov	r20, r21
    538e:	55 27       	eor	r21, r21
		wCRCWord  ^= wCRCTable[nTemp];
    5390:	f0 e0       	ldi	r31, 0x00	; 0
    5392:	ee 0f       	add	r30, r30
    5394:	ff 1f       	adc	r31, r31
    5396:	e8 56       	subi	r30, 0x68	; 104
    5398:	f9 4f       	sbci	r31, 0xF9	; 249
    539a:	80 81       	ld	r24, Z
    539c:	91 81       	ldd	r25, Z+1	; 0x01
    539e:	48 27       	eor	r20, r24
    53a0:	59 27       	eor	r21, r25
U16 CRC16( const U8 *nData, U16 wLength )
{
	U8 nTemp;
	U16 wCRCWord = 0xFFFF;
	
	while (wLength--)
    53a2:	21 50       	subi	r18, 0x01	; 1
    53a4:	30 40       	sbci	r19, 0x00	; 0
    53a6:	8f ef       	ldi	r24, 0xFF	; 255
    53a8:	2f 3f       	cpi	r18, 0xFF	; 255
    53aa:	38 07       	cpc	r19, r24
    53ac:	69 f7       	brne	.-38     	; 0x5388 <Com_Write_Single_Register_Slave+0x12>
{
U16		wCRC;
	
	//DPRINT("Single Write PC\n");
	wCRC = CRC16( rxbuf, MRX_CHKSUM_LOW );
	if( !( ((wCRC&255) == *(rxbuf+MRX_CHKSUM_LOW)) && ((wCRC>>8&255) == *(rxbuf+MRX_CHKSUM_HGH)) )){
    53ae:	9a 01       	movw	r18, r20
    53b0:	30 70       	andi	r19, 0x00	; 0
    53b2:	16 96       	adiw	r26, 0x06	; 6
    53b4:	8c 91       	ld	r24, X
    53b6:	16 97       	sbiw	r26, 0x06	; 6
    53b8:	90 e0       	ldi	r25, 0x00	; 0
    53ba:	28 17       	cp	r18, r24
    53bc:	39 07       	cpc	r19, r25
    53be:	49 f4       	brne	.+18     	; 0x53d2 <Com_Write_Single_Register_Slave+0x5c>
    53c0:	25 2f       	mov	r18, r21
    53c2:	33 27       	eor	r19, r19
    53c4:	17 96       	adiw	r26, 0x07	; 7
    53c6:	8c 91       	ld	r24, X
    53c8:	17 97       	sbiw	r26, 0x07	; 7
    53ca:	90 e0       	ldi	r25, 0x00	; 0
    53cc:	28 17       	cp	r18, r24
    53ce:	39 07       	cpc	r19, r25
    53d0:	29 f0       	breq	.+10     	; 0x53dc <Com_Write_Single_Register_Slave+0x66>
		DPRINT("CRC Single Fail\n");
    53d2:	88 e8       	ldi	r24, 0x88	; 136
    53d4:	96 e0       	ldi	r25, 0x06	; 6
    53d6:	0e 94 b9 3d 	call	0x7b72	; 0x7b72 <puts>
    53da:	30 c0       	rjmp	.+96     	; 0x543c <Com_Write_Single_Register_Slave+0xc6>
		return;
	}
	
	Det_Modbus_Buf[Det_Write_Register_Addr] = (((U16)*(rxbuf+MRX_ADDHGH))<<8) | ((U16)*(rxbuf+MRX_ADDLOW));
    53dc:	12 96       	adiw	r26, 0x02	; 2
    53de:	9c 91       	ld	r25, X
    53e0:	12 97       	sbiw	r26, 0x02	; 2
    53e2:	80 e0       	ldi	r24, 0x00	; 0
    53e4:	13 96       	adiw	r26, 0x03	; 3
    53e6:	2c 91       	ld	r18, X
    53e8:	13 97       	sbiw	r26, 0x03	; 3
    53ea:	30 e0       	ldi	r19, 0x00	; 0
    53ec:	82 2b       	or	r24, r18
    53ee:	93 2b       	or	r25, r19
    53f0:	90 93 2d 15 	sts	0x152D, r25
    53f4:	80 93 2c 15 	sts	0x152C, r24
	Det_Modbus_Buf[Det_Write_Register_Data] = (((S16)*(rxbuf+MRX_DATACHGH))<<8) | ((S16)*(rxbuf+MRX_DATACLOW));
    53f8:	14 96       	adiw	r26, 0x04	; 4
    53fa:	9c 91       	ld	r25, X
    53fc:	14 97       	sbiw	r26, 0x04	; 4
    53fe:	80 e0       	ldi	r24, 0x00	; 0
    5400:	15 96       	adiw	r26, 0x05	; 5
    5402:	2c 91       	ld	r18, X
    5404:	15 97       	sbiw	r26, 0x05	; 5
    5406:	30 e0       	ldi	r19, 0x00	; 0
    5408:	82 2b       	or	r24, r18
    540a:	93 2b       	or	r25, r19
    540c:	90 93 2f 15 	sts	0x152F, r25
    5410:	80 93 2e 15 	sts	0x152E, r24
		return;
	}
	*/	
	
	//Det_Input_Reg_Data[ad] = data;
	USART1_Packet_Send( rxbuf, 8 );
    5414:	cd 01       	movw	r24, r26
    5416:	68 e0       	ldi	r22, 0x08	; 8
    5418:	0e 94 3b 30 	call	0x6076	; 0x6076 <USART1_Packet_Send>
	Det_Modbus_Buf[Det_Comm_Flow] = Commnication_Dev_Single;
    541c:	87 e0       	ldi	r24, 0x07	; 7
    541e:	90 e0       	ldi	r25, 0x00	; 0
    5420:	90 93 1f 15 	sts	0x151F, r25
    5424:	80 93 1e 15 	sts	0x151E, r24
	Det_Write_Single_Func(Det_Modbus_Buf[Det_Write_Register_Addr],Det_Modbus_Buf[Det_Write_Register_Data]);
    5428:	60 91 2e 15 	lds	r22, 0x152E
    542c:	70 91 2f 15 	lds	r23, 0x152F
    5430:	80 91 2c 15 	lds	r24, 0x152C
    5434:	90 91 2d 15 	lds	r25, 0x152D
    5438:	0e 94 ad 33 	call	0x675a	; 0x675a <Det_Write_Single_Func>
	}
	else {
		DPRINT3(" OVER RANGE, IN: %d, LO: %d, UP: %d\n", data, pgm_read_word( &EEP_SYS_LO_LIMIT[ad] ), pgm_read_word( &EEP_SYS_UP_LIMIT[ad] ));
	}
	*/
}
    543c:	df 91       	pop	r29
    543e:	cf 91       	pop	r28
    5440:	08 95       	ret

00005442 <MODBUS_Packet_Decoder>:
	return wCRCWord;
}

/////////////////////////////////////////////////////////////////////////////////////////////////////////////////////////////////////
void MODBUS_Packet_Decoder( U8* pBuf )
{
    5442:	fc 01       	movw	r30, r24
	switch( *(pBuf+MRX_FUNCODE) ){
    5444:	81 81       	ldd	r24, Z+1	; 0x01
    5446:	84 30       	cpi	r24, 0x04	; 4
    5448:	71 f0       	breq	.+28     	; 0x5466 <MODBUS_Packet_Decoder+0x24>
    544a:	85 30       	cpi	r24, 0x05	; 5
    544c:	18 f4       	brcc	.+6      	; 0x5454 <MODBUS_Packet_Decoder+0x12>
    544e:	83 30       	cpi	r24, 0x03	; 3
    5450:	09 f5       	brne	.+66     	; 0x5494 <MODBUS_Packet_Decoder+0x52>
    5452:	05 c0       	rjmp	.+10     	; 0x545e <MODBUS_Packet_Decoder+0x1c>
    5454:	86 30       	cpi	r24, 0x06	; 6
    5456:	59 f0       	breq	.+22     	; 0x546e <MODBUS_Packet_Decoder+0x2c>
    5458:	80 31       	cpi	r24, 0x10	; 16
    545a:	e1 f4       	brne	.+56     	; 0x5494 <MODBUS_Packet_Decoder+0x52>
    545c:	12 c0       	rjmp	.+36     	; 0x5482 <MODBUS_Packet_Decoder+0x40>
		case 0x03:
			Com_Read_Holding_Register_Slave( pBuf );
    545e:	cf 01       	movw	r24, r30
    5460:	0e 94 4d 28 	call	0x509a	; 0x509a <Com_Read_Holding_Register_Slave>
    5464:	08 95       	ret
			break;
		case 0x04:
			Com_Read_Input_Register_Slave( pBuf );
    5466:	cf 01       	movw	r24, r30
    5468:	0e 94 f1 28 	call	0x51e2	; 0x51e2 <Com_Read_Input_Register_Slave>
    546c:	08 95       	ret
			break;
		case 0x06:
			Det_Modbus_Buf[Det_Write_Register_Flag] = 1;
    546e:	81 e0       	ldi	r24, 0x01	; 1
    5470:	90 e0       	ldi	r25, 0x00	; 0
    5472:	90 93 2b 15 	sts	0x152B, r25
    5476:	80 93 2a 15 	sts	0x152A, r24
			Com_Write_Single_Register_Slave( pBuf );
    547a:	cf 01       	movw	r24, r30
    547c:	0e 94 bb 29 	call	0x5376	; 0x5376 <Com_Write_Single_Register_Slave>
    5480:	08 95       	ret
			break;
		case 0x10:
			Det_Modbus_Buf[Det_Write_Register_Flag] = 2;
    5482:	82 e0       	ldi	r24, 0x02	; 2
    5484:	90 e0       	ldi	r25, 0x00	; 0
    5486:	90 93 2b 15 	sts	0x152B, r25
    548a:	80 93 2a 15 	sts	0x152A, r24
			Com_Write_Multiple_Register_Slave( pBuf );
    548e:	cf 01       	movw	r24, r30
    5490:	0e 94 b0 27 	call	0x4f60	; 0x4f60 <Com_Write_Multiple_Register_Slave>
    5494:	08 95       	ret

00005496 <Initialize_MODBUS>:
void Com_Write_Multiple_Register_Slave( U8 *rxbuf );

/////////////////////////////////////////////////////////////////////////////////////////////////////////////////////////////////////
void Initialize_MODBUS( void )
{
	memset( write_register_data_arry, 0, sizeof(write_register_data_arry) );
    5496:	80 e0       	ldi	r24, 0x00	; 0
    5498:	94 e0       	ldi	r25, 0x04	; 4
    549a:	e9 ef       	ldi	r30, 0xF9	; 249
    549c:	fa e0       	ldi	r31, 0x0A	; 10
    549e:	df 01       	movw	r26, r30
    54a0:	9c 01       	movw	r18, r24
    54a2:	1d 92       	st	X+, r1
    54a4:	21 50       	subi	r18, 0x01	; 1
    54a6:	30 40       	sbci	r19, 0x00	; 0
    54a8:	e1 f7       	brne	.-8      	; 0x54a2 <Initialize_MODBUS+0xc>
	Det_Address = epr_sm[EEP_Detector_Address];
    54aa:	80 91 e1 09 	lds	r24, 0x09E1
    54ae:	80 93 f9 0e 	sts	0x0EF9, r24
	Dvc_Address = epr_sm[EEP_Device_Address];
    54b2:	80 91 e3 09 	lds	r24, 0x09E3
    54b6:	80 93 fa 0e 	sts	0x0EFA, r24
}
    54ba:	08 95       	ret

000054bc <Initialize_Potentiometer>:
U8 Potentiometer_Byte_Wr( U8 bData );
U8 Potentiometer_Wr( U8 addr, U8 data);

void Initialize_Potentiometer( void )
{
	POTENTIOMETER_SDA_H();
    54bc:	e2 e0       	ldi	r30, 0x02	; 2
    54be:	f1 e0       	ldi	r31, 0x01	; 1
    54c0:	80 81       	ld	r24, Z
    54c2:	80 64       	ori	r24, 0x40	; 64
    54c4:	80 83       	st	Z, r24
	POTENTIOMETER_SCL_H();
    54c6:	80 81       	ld	r24, Z
    54c8:	80 62       	ori	r24, 0x20	; 32
    54ca:	80 83       	st	Z, r24
	
	//Potentiometer_Wr(0x10, 0x40);
}
    54cc:	08 95       	ret

000054ce <Potentiometer_AckRead>:
	POTENTIOMETER_SDA_H();
	Delay_us(10);
}

U8 Potentiometer_AckRead( void )
{
    54ce:	ff 92       	push	r15
    54d0:	0f 93       	push	r16
    54d2:	1f 93       	push	r17
	U8		bAck;
	
	POTENTIOMETER_SCL_H();
    54d4:	02 e0       	ldi	r16, 0x02	; 2
    54d6:	11 e0       	ldi	r17, 0x01	; 1
    54d8:	f8 01       	movw	r30, r16
    54da:	80 81       	ld	r24, Z
    54dc:	80 62       	ori	r24, 0x20	; 32
    54de:	80 83       	st	Z, r24
	Delay_us( 10 );
    54e0:	8a e0       	ldi	r24, 0x0A	; 10
    54e2:	0e 94 11 2b 	call	0x5622	; 0x5622 <Delay_us>
	bAck = POTENTIOMETER_SDA_R();
    54e6:	f0 90 00 01 	lds	r15, 0x0100
	POTENTIOMETER_SCL_L();
    54ea:	f8 01       	movw	r30, r16
    54ec:	80 81       	ld	r24, Z
    54ee:	8f 7d       	andi	r24, 0xDF	; 223
    54f0:	80 83       	st	Z, r24
	Delay_us( 10 );
    54f2:	8a e0       	ldi	r24, 0x0A	; 10
    54f4:	0e 94 11 2b 	call	0x5622	; 0x5622 <Delay_us>
    54f8:	f2 94       	swap	r15
    54fa:	f6 94       	lsr	r15
    54fc:	f6 94       	lsr	r15
    54fe:	83 e0       	ldi	r24, 0x03	; 3
    5500:	f8 22       	and	r15, r24
	
	return bAck;
}
    5502:	8f 2d       	mov	r24, r15
    5504:	81 70       	andi	r24, 0x01	; 1
    5506:	1f 91       	pop	r17
    5508:	0f 91       	pop	r16
    550a:	ff 90       	pop	r15
    550c:	08 95       	ret

0000550e <Potentiometer_Byte_Wr>:

U8 Potentiometer_Byte_Wr( U8 bData )
{
    550e:	1f 93       	push	r17
    5510:	cf 93       	push	r28
    5512:	df 93       	push	r29
    5514:	18 2f       	mov	r17, r24
    5516:	c0 e0       	ldi	r28, 0x00	; 0
    5518:	d0 e0       	ldi	r29, 0x00	; 0
	U16		i;
	
	for( i=0; i<8; i++ ){
		if( bData & 0x80 ){
    551a:	17 ff       	sbrs	r17, 7
    551c:	04 c0       	rjmp	.+8      	; 0x5526 <Potentiometer_Byte_Wr+0x18>
			POTENTIOMETER_SDA_H();	
    551e:	80 91 02 01 	lds	r24, 0x0102
    5522:	80 64       	ori	r24, 0x40	; 64
    5524:	03 c0       	rjmp	.+6      	; 0x552c <Potentiometer_Byte_Wr+0x1e>
		}
		else {
			POTENTIOMETER_SDA_L();	
    5526:	80 91 02 01 	lds	r24, 0x0102
    552a:	8f 7b       	andi	r24, 0xBF	; 191
    552c:	80 93 02 01 	sts	0x0102, r24
		}
		bData <<= 1;
		POTENTIOMETER_SCL_H();
    5530:	80 91 02 01 	lds	r24, 0x0102
    5534:	80 62       	ori	r24, 0x20	; 32
    5536:	80 93 02 01 	sts	0x0102, r24
		Delay_us( 10 );
    553a:	8a e0       	ldi	r24, 0x0A	; 10
    553c:	0e 94 11 2b 	call	0x5622	; 0x5622 <Delay_us>
		POTENTIOMETER_SCL_L();
    5540:	80 91 02 01 	lds	r24, 0x0102
    5544:	8f 7d       	andi	r24, 0xDF	; 223
    5546:	80 93 02 01 	sts	0x0102, r24
		Delay_us( 10 );
    554a:	8a e0       	ldi	r24, 0x0A	; 10
    554c:	0e 94 11 2b 	call	0x5622	; 0x5622 <Delay_us>

U8 Potentiometer_Byte_Wr( U8 bData )
{
	U16		i;
	
	for( i=0; i<8; i++ ){
    5550:	21 96       	adiw	r28, 0x01	; 1
    5552:	c8 30       	cpi	r28, 0x08	; 8
    5554:	d1 05       	cpc	r29, r1
    5556:	11 f0       	breq	.+4      	; 0x555c <Potentiometer_Byte_Wr+0x4e>
			POTENTIOMETER_SDA_H();	
		}
		else {
			POTENTIOMETER_SDA_L();	
		}
		bData <<= 1;
    5558:	11 0f       	add	r17, r17
    555a:	df cf       	rjmp	.-66     	; 0x551a <Potentiometer_Byte_Wr+0xc>
		Delay_us( 10 );
		POTENTIOMETER_SCL_L();
		Delay_us( 10 );
	}
	
	return Potentiometer_AckRead();
    555c:	0e 94 67 2a 	call	0x54ce	; 0x54ce <Potentiometer_AckRead>
}
    5560:	df 91       	pop	r29
    5562:	cf 91       	pop	r28
    5564:	1f 91       	pop	r17
    5566:	08 95       	ret

00005568 <Potentiometer_Stop>:
	POTENTIOMETER_SCL_L();
	Delay_us(10);
}

void Potentiometer_Stop(void)
{
    5568:	0f 93       	push	r16
    556a:	1f 93       	push	r17
	POTENTIOMETER_SDA_L();
    556c:	02 e0       	ldi	r16, 0x02	; 2
    556e:	11 e0       	ldi	r17, 0x01	; 1
    5570:	f8 01       	movw	r30, r16
    5572:	80 81       	ld	r24, Z
    5574:	8f 7b       	andi	r24, 0xBF	; 191
    5576:	80 83       	st	Z, r24
	Delay_us(10);
    5578:	8a e0       	ldi	r24, 0x0A	; 10
    557a:	0e 94 11 2b 	call	0x5622	; 0x5622 <Delay_us>
	POTENTIOMETER_SCL_H();
    557e:	f8 01       	movw	r30, r16
    5580:	80 81       	ld	r24, Z
    5582:	80 62       	ori	r24, 0x20	; 32
    5584:	80 83       	st	Z, r24
	Delay_us(10);
    5586:	8a e0       	ldi	r24, 0x0A	; 10
    5588:	0e 94 11 2b 	call	0x5622	; 0x5622 <Delay_us>
	POTENTIOMETER_SDA_H();
    558c:	f8 01       	movw	r30, r16
    558e:	80 81       	ld	r24, Z
    5590:	80 64       	ori	r24, 0x40	; 64
    5592:	80 83       	st	Z, r24
	Delay_us(10);
    5594:	8a e0       	ldi	r24, 0x0A	; 10
    5596:	0e 94 11 2b 	call	0x5622	; 0x5622 <Delay_us>
}
    559a:	1f 91       	pop	r17
    559c:	0f 91       	pop	r16
    559e:	08 95       	ret

000055a0 <Potentiometer_Start>:
	POTENTIOMETER_SCL_H();
	
	//Potentiometer_Wr(0x10, 0x40);
}
void Potentiometer_Start(void)
{
    55a0:	0f 93       	push	r16
    55a2:	1f 93       	push	r17
	POTENTIOMETER_SDA_H();
    55a4:	02 e0       	ldi	r16, 0x02	; 2
    55a6:	11 e0       	ldi	r17, 0x01	; 1
    55a8:	f8 01       	movw	r30, r16
    55aa:	80 81       	ld	r24, Z
    55ac:	80 64       	ori	r24, 0x40	; 64
    55ae:	80 83       	st	Z, r24
	Delay_us(10);
    55b0:	8a e0       	ldi	r24, 0x0A	; 10
    55b2:	0e 94 11 2b 	call	0x5622	; 0x5622 <Delay_us>
	POTENTIOMETER_SCL_H();
    55b6:	f8 01       	movw	r30, r16
    55b8:	80 81       	ld	r24, Z
    55ba:	80 62       	ori	r24, 0x20	; 32
    55bc:	80 83       	st	Z, r24
	Delay_us(10);
    55be:	8a e0       	ldi	r24, 0x0A	; 10
    55c0:	0e 94 11 2b 	call	0x5622	; 0x5622 <Delay_us>
	POTENTIOMETER_SDA_L();
    55c4:	f8 01       	movw	r30, r16
    55c6:	80 81       	ld	r24, Z
    55c8:	8f 7b       	andi	r24, 0xBF	; 191
    55ca:	80 83       	st	Z, r24
	Delay_us(10);
    55cc:	8a e0       	ldi	r24, 0x0A	; 10
    55ce:	0e 94 11 2b 	call	0x5622	; 0x5622 <Delay_us>
	POTENTIOMETER_SCL_L();
    55d2:	f8 01       	movw	r30, r16
    55d4:	80 81       	ld	r24, Z
    55d6:	8f 7d       	andi	r24, 0xDF	; 223
    55d8:	80 83       	st	Z, r24
	Delay_us(10);
    55da:	8a e0       	ldi	r24, 0x0A	; 10
    55dc:	0e 94 11 2b 	call	0x5622	; 0x5622 <Delay_us>
}
    55e0:	1f 91       	pop	r17
    55e2:	0f 91       	pop	r16
    55e4:	08 95       	ret

000055e6 <Potentiometer_Wr>:
	
	return Potentiometer_AckRead();
}

U8 Potentiometer_Wr( U8 addr, U8 data)
{
    55e6:	ff 92       	push	r15
    55e8:	0f 93       	push	r16
    55ea:	1f 93       	push	r17
    55ec:	08 2f       	mov	r16, r24
    55ee:	f6 2e       	mov	r15, r22
	U8		bAck = 0;
	
	//DPRINT("potentionmetor\n");
	Potentiometer_Start();
    55f0:	0e 94 d0 2a 	call	0x55a0	; 0x55a0 <Potentiometer_Start>
	if( Potentiometer_Byte_Wr(0xA0) ){	// Slave Address
    55f4:	80 ea       	ldi	r24, 0xA0	; 160
    55f6:	0e 94 87 2a 	call	0x550e	; 0x550e <Potentiometer_Byte_Wr>
    55fa:	81 11       	cpse	r24, r1
    55fc:	81 e0       	ldi	r24, 0x01	; 1
    55fe:	18 2f       	mov	r17, r24
		bAck |= 1;
	}
	if( Potentiometer_Byte_Wr(addr) ){	// Register Address
    5600:	80 2f       	mov	r24, r16
    5602:	0e 94 87 2a 	call	0x550e	; 0x550e <Potentiometer_Byte_Wr>
    5606:	81 11       	cpse	r24, r1
		bAck |= 2;
    5608:	12 60       	ori	r17, 0x02	; 2
	}
	if( Potentiometer_Byte_Wr(data) ){	// Data Byte to Register
    560a:	8f 2d       	mov	r24, r15
    560c:	0e 94 87 2a 	call	0x550e	; 0x550e <Potentiometer_Byte_Wr>
    5610:	81 11       	cpse	r24, r1
		bAck |= 4;
    5612:	14 60       	ori	r17, 0x04	; 4
	}
	Potentiometer_Stop();
    5614:	0e 94 b4 2a 	call	0x5568	; 0x5568 <Potentiometer_Stop>
	
	//DPRINT1("bAck = %d\n", bAck);
	
	return bAck;
    5618:	81 2f       	mov	r24, r17
    561a:	1f 91       	pop	r17
    561c:	0f 91       	pop	r16
    561e:	ff 90       	pop	r15
    5620:	08 95       	ret

00005622 <Delay_us>:

#include "global.h"
#include "sw_lib.h"

void Delay_us(unsigned char time_us)            /* time delay for us */
{
    5622:	90 e0       	ldi	r25, 0x00	; 0
    5624:	07 c0       	rjmp	.+14     	; 0x5634 <Delay_us+0x12>
	register unsigned char i;
	for(i = 0; i < time_us; i++)		// 4 cycle +
	{
		asm volatile(" PUSH  R0 ");	// 2 cycle +
    5626:	0f 92       	push	r0
		asm volatile(" POP   R0 ");	// 2 cycle +
    5628:	0f 90       	pop	r0
		asm volatile(" PUSH  R0 ");	// 2 cycle +
    562a:	0f 92       	push	r0
		asm volatile(" POP   R0 ");	// 2 cycle +
    562c:	0f 90       	pop	r0
		asm volatile(" PUSH  R0 ");	// 2 cycle +
    562e:	0f 92       	push	r0
		asm volatile(" POP   R0 ");	// 2 cycle = 16 cycle = 1 us for 16MHz
    5630:	0f 90       	pop	r0
#include "sw_lib.h"

void Delay_us(unsigned char time_us)            /* time delay for us */
{
	register unsigned char i;
	for(i = 0; i < time_us; i++)		// 4 cycle +
    5632:	9f 5f       	subi	r25, 0xFF	; 255
    5634:	98 17       	cp	r25, r24
    5636:	b8 f3       	brcs	.-18     	; 0x5626 <Delay_us+0x4>
		asm volatile(" PUSH  R0 ");	// 2 cycle +
		asm volatile(" POP   R0 ");	// 2 cycle +
		asm volatile(" PUSH  R0 ");	// 2 cycle +
		asm volatile(" POP   R0 ");	// 2 cycle = 16 cycle = 1 us for 16MHz
	}
}
    5638:	08 95       	ret

0000563a <Delay_ms>:

void Delay_ms(unsigned int time_ms)		/* time delay for ms */
{
    563a:	0f 93       	push	r16
    563c:	1f 93       	push	r17
    563e:	cf 93       	push	r28
    5640:	df 93       	push	r29
    5642:	8c 01       	movw	r16, r24
    5644:	c0 e0       	ldi	r28, 0x00	; 0
    5646:	d0 e0       	ldi	r29, 0x00	; 0
    5648:	0d c0       	rjmp	.+26     	; 0x5664 <Delay_ms+0x2a>
	register unsigned int i;
	for(i = 0; i < time_ms; i++)
	{
		Delay_us(250);
    564a:	8a ef       	ldi	r24, 0xFA	; 250
    564c:	0e 94 11 2b 	call	0x5622	; 0x5622 <Delay_us>
		Delay_us(250);
    5650:	8a ef       	ldi	r24, 0xFA	; 250
    5652:	0e 94 11 2b 	call	0x5622	; 0x5622 <Delay_us>
		Delay_us(250);
    5656:	8a ef       	ldi	r24, 0xFA	; 250
    5658:	0e 94 11 2b 	call	0x5622	; 0x5622 <Delay_us>
		Delay_us(250);
    565c:	8a ef       	ldi	r24, 0xFA	; 250
    565e:	0e 94 11 2b 	call	0x5622	; 0x5622 <Delay_us>
}

void Delay_ms(unsigned int time_ms)		/* time delay for ms */
{
	register unsigned int i;
	for(i = 0; i < time_ms; i++)
    5662:	21 96       	adiw	r28, 0x01	; 1
    5664:	c0 17       	cp	r28, r16
    5666:	d1 07       	cpc	r29, r17
    5668:	80 f3       	brcs	.-32     	; 0x564a <Delay_ms+0x10>
		Delay_us(250);
		Delay_us(250);
		Delay_us(250);

	}
}
    566a:	df 91       	pop	r29
    566c:	cf 91       	pop	r28
    566e:	1f 91       	pop	r17
    5670:	0f 91       	pop	r16
    5672:	08 95       	ret

00005674 <sys_reboot>:

void sys_reboot(void)
{
	asm volatile("jmp 0x0000");
    5674:	0c 94 00 00 	jmp	0	; 0x0 <__vectors>
}
    5678:	08 95       	ret

0000567a <Initialize_Timer>:

/////////////////////////////////////////////////////////////////////////////////////////////////////////////////////////////////////

void Initialize_Timer( void )
{
	TCCR1A = 0x00;
    567a:	10 92 80 00 	sts	0x0080, r1
	TCCR1B = 0x01; 			//No prescaling
    567e:	81 e0       	ldi	r24, 0x01	; 1
    5680:	80 93 81 00 	sts	0x0081, r24
	TCNT1 = TMR3_REG_VALUE; 	//Enable TOIE3
    5684:	20 e8       	ldi	r18, 0x80	; 128
    5686:	31 ec       	ldi	r19, 0xC1	; 193
    5688:	30 93 85 00 	sts	0x0085, r19
    568c:	20 93 84 00 	sts	0x0084, r18
	
	TIMSK1 = 0x01;
    5690:	80 93 6f 00 	sts	0x006F, r24

	TCCR3A = 0x00;
    5694:	10 92 90 00 	sts	0x0090, r1
	TCCR3B = 0x01; 			//No prescaling
    5698:	80 93 91 00 	sts	0x0091, r24
	TCNT3 = TMR3_REG_VALUE; 	//Enable TOIE3
    569c:	30 93 95 00 	sts	0x0095, r19
    56a0:	20 93 94 00 	sts	0x0094, r18
	
	TIMSK3 = 0x01;
    56a4:	80 93 71 00 	sts	0x0071, r24
	
	PCICR = 0x01;
    56a8:	80 93 68 00 	sts	0x0068, r24
	PCMSK0 = 0x80;
    56ac:	80 e8       	ldi	r24, 0x80	; 128
    56ae:	80 93 6b 00 	sts	0x006B, r24
	
	sTimerTick[TMR_10MS] = 10;
    56b2:	8a e0       	ldi	r24, 0x0A	; 10
    56b4:	90 e0       	ldi	r25, 0x00	; 0
    56b6:	90 93 02 0f 	sts	0x0F02, r25
    56ba:	80 93 01 0f 	sts	0x0F01, r24
	sTimerFlag[TMR_10MS] = 0;
    56be:	10 92 2c 0f 	sts	0x0F2C, r1
    56c2:	10 92 2b 0f 	sts	0x0F2B, r1
	
	sTimerTick[TMR_50MS] = 50;
    56c6:	22 e3       	ldi	r18, 0x32	; 50
    56c8:	30 e0       	ldi	r19, 0x00	; 0
    56ca:	30 93 04 0f 	sts	0x0F04, r19
    56ce:	20 93 03 0f 	sts	0x0F03, r18
	sTimerFlag[TMR_50MS] = 0;
    56d2:	10 92 2e 0f 	sts	0x0F2E, r1
    56d6:	10 92 2d 0f 	sts	0x0F2D, r1
	
	sTimerTick[TMR_100MS] = 100;
    56da:	84 e6       	ldi	r24, 0x64	; 100
    56dc:	90 e0       	ldi	r25, 0x00	; 0
    56de:	90 93 06 0f 	sts	0x0F06, r25
    56e2:	80 93 05 0f 	sts	0x0F05, r24
	sTimerFlag[TMR_100MS] = 0;
    56e6:	10 92 30 0f 	sts	0x0F30, r1
    56ea:	10 92 2f 0f 	sts	0x0F2F, r1
	
	sTimerTick[TMR_200MS] = 200;
    56ee:	88 ec       	ldi	r24, 0xC8	; 200
    56f0:	90 e0       	ldi	r25, 0x00	; 0
    56f2:	90 93 08 0f 	sts	0x0F08, r25
    56f6:	80 93 07 0f 	sts	0x0F07, r24
	sTimerFlag[TMR_200MS] = 0;
    56fa:	10 92 32 0f 	sts	0x0F32, r1
    56fe:	10 92 31 0f 	sts	0x0F31, r1

	sTimerTick[TMR_250MS] = 250;
    5702:	8a ef       	ldi	r24, 0xFA	; 250
    5704:	90 e0       	ldi	r25, 0x00	; 0
    5706:	90 93 0a 0f 	sts	0x0F0A, r25
    570a:	80 93 09 0f 	sts	0x0F09, r24
	sTimerFlag[TMR_250MS] = 0;
    570e:	10 92 34 0f 	sts	0x0F34, r1
    5712:	10 92 33 0f 	sts	0x0F33, r1

	sTimerTick[TMR_500MS] = 500;
    5716:	84 ef       	ldi	r24, 0xF4	; 244
    5718:	91 e0       	ldi	r25, 0x01	; 1
    571a:	90 93 0c 0f 	sts	0x0F0C, r25
    571e:	80 93 0b 0f 	sts	0x0F0B, r24
	sTimerFlag[TMR_500MS] = 0;
    5722:	10 92 36 0f 	sts	0x0F36, r1
    5726:	10 92 35 0f 	sts	0x0F35, r1

	sTimerTick[TMR_1000MS] = 1000;
    572a:	88 ee       	ldi	r24, 0xE8	; 232
    572c:	93 e0       	ldi	r25, 0x03	; 3
    572e:	90 93 0e 0f 	sts	0x0F0E, r25
    5732:	80 93 0d 0f 	sts	0x0F0D, r24
	sTimerFlag[TMR_1000MS] = 0;
    5736:	10 92 38 0f 	sts	0x0F38, r1
    573a:	10 92 37 0f 	sts	0x0F37, r1

	sTimerTick[TMR_SELFTEST] = 2;
    573e:	82 e0       	ldi	r24, 0x02	; 2
    5740:	90 e0       	ldi	r25, 0x00	; 0
    5742:	90 93 16 0f 	sts	0x0F16, r25
    5746:	80 93 15 0f 	sts	0x0F15, r24
	
	sTimerFlag[TMR_DET_SYSTEM_CHECK] = 0;
    574a:	10 92 50 0f 	sts	0x0F50, r1
    574e:	10 92 4f 0f 	sts	0x0F4F, r1

	sTimerTick[TMR_NORMAL_RETURN] = NORMAL_RETURN_CNT;
    5752:	8e e1       	ldi	r24, 0x1E	; 30
    5754:	90 e0       	ldi	r25, 0x00	; 0
    5756:	90 93 18 0f 	sts	0x0F18, r25
    575a:	80 93 17 0f 	sts	0x0F17, r24
	sTimerFlag[TMR_NORMAL_RETURN] = 0;
    575e:	10 92 42 0f 	sts	0x0F42, r1
    5762:	10 92 41 0f 	sts	0x0F41, r1

	sTimerTick[TMR_MODBUS_START] = MODBUS_START_TIME;
    5766:	30 93 1a 0f 	sts	0x0F1A, r19
    576a:	20 93 19 0f 	sts	0x0F19, r18
	sTimerFlag[TMR_MODBUS_START] = 0;
    576e:	10 92 44 0f 	sts	0x0F44, r1
    5772:	10 92 43 0f 	sts	0x0F43, r1

	sTimerTick[TMR_MODBUS_TIMEOUT] = 0;
    5776:	10 92 1e 0f 	sts	0x0F1E, r1
    577a:	10 92 1d 0f 	sts	0x0F1D, r1
	sTimerFlag[TMR_MODBUS_TIMEOUT] = 0;
    577e:	10 92 48 0f 	sts	0x0F48, r1
    5782:	10 92 47 0f 	sts	0x0F47, r1
	
	sTimerTick[TMR_MODBUS_DELAY] = 5;
    5786:	85 e0       	ldi	r24, 0x05	; 5
    5788:	90 e0       	ldi	r25, 0x00	; 0
    578a:	90 93 20 0f 	sts	0x0F20, r25
    578e:	80 93 1f 0f 	sts	0x0F1F, r24
	sTimerFlag[TMR_MODBUS_DELAY] = 0;
    5792:	10 92 4a 0f 	sts	0x0F4A, r1
    5796:	10 92 49 0f 	sts	0x0F49, r1
	sTimerTick[TMR_MODBUS_ERR] = 5000;
    579a:	88 e8       	ldi	r24, 0x88	; 136
    579c:	93 e1       	ldi	r25, 0x13	; 19
    579e:	90 93 22 0f 	sts	0x0F22, r25
    57a2:	80 93 21 0f 	sts	0x0F21, r24
	
	sTimerTick[TMR_ADC_TASK] = 0x8018;
    57a6:	88 e1       	ldi	r24, 0x18	; 24
    57a8:	90 e8       	ldi	r25, 0x80	; 128
    57aa:	90 93 12 0f 	sts	0x0F12, r25
    57ae:	80 93 11 0f 	sts	0x0F11, r24
	sTimerFlag[TMR_ADC_TASK] = 0;
    57b2:	10 92 3c 0f 	sts	0x0F3C, r1
    57b6:	10 92 3b 0f 	sts	0x0F3B, r1
	
	sTimerTick[TMR_KEY_CNK] = 1;
    57ba:	81 e0       	ldi	r24, 0x01	; 1
    57bc:	90 e0       	ldi	r25, 0x00	; 0
    57be:	90 93 14 0f 	sts	0x0F14, r25
    57c2:	80 93 13 0f 	sts	0x0F13, r24
	sTimerFlag[TMR_KEY_CNK] = 0;
    57c6:	10 92 3e 0f 	sts	0x0F3E, r1
    57ca:	10 92 3d 0f 	sts	0x0F3D, r1
}
    57ce:	08 95       	ret

000057d0 <__vector_9>:

/////////////////////////////////////////////////////////////////////////////////////////////////////////////////////////////////////
ISR(PCINT0_vect)
{
    57d0:	1f 92       	push	r1
    57d2:	0f 92       	push	r0
    57d4:	0f b6       	in	r0, 0x3f	; 63
    57d6:	0f 92       	push	r0
    57d8:	0b b6       	in	r0, 0x3b	; 59
    57da:	0f 92       	push	r0
    57dc:	11 24       	eor	r1, r1
    57de:	af 92       	push	r10
    57e0:	bf 92       	push	r11
    57e2:	cf 92       	push	r12
    57e4:	df 92       	push	r13
    57e6:	ef 92       	push	r14
    57e8:	ff 92       	push	r15
    57ea:	0f 93       	push	r16
    57ec:	1f 93       	push	r17
    57ee:	2f 93       	push	r18
    57f0:	3f 93       	push	r19
    57f2:	4f 93       	push	r20
    57f4:	5f 93       	push	r21
    57f6:	6f 93       	push	r22
    57f8:	7f 93       	push	r23
    57fa:	8f 93       	push	r24
    57fc:	9f 93       	push	r25
    57fe:	af 93       	push	r26
    5800:	bf 93       	push	r27
    5802:	ef 93       	push	r30
    5804:	ff 93       	push	r31
	if( PINB & 0x80 ){
    5806:	1f 9b       	sbis	0x03, 7	; 3
    5808:	48 c0       	rjmp	.+144    	; 0x589a <__vector_9+0xca>
		EncoderFreqTick[0] = TCNT1;
    580a:	e0 90 84 00 	lds	r14, 0x0084
    580e:	f0 90 85 00 	lds	r15, 0x0085
    5812:	f0 92 fc 0e 	sts	0x0EFC, r15
    5816:	e0 92 fb 0e 	sts	0x0EFB, r14
		TCNT1 = 0;
    581a:	10 92 85 00 	sts	0x0085, r1
    581e:	10 92 84 00 	sts	0x0084, r1
		EncoderFreqTick[1] = sTimerTick[TMR_ENC_FREQ];
    5822:	60 91 27 0f 	lds	r22, 0x0F27
    5826:	70 91 28 0f 	lds	r23, 0x0F28
    582a:	70 93 fe 0e 	sts	0x0EFE, r23
    582e:	60 93 fd 0e 	sts	0x0EFD, r22
		sTimerTick[TMR_ENC_FREQ] = 0;
    5832:	10 92 28 0f 	sts	0x0F28, r1
    5836:	10 92 27 0f 	sts	0x0F27, r1
		sTimerFlag[TMR_ENC_FREQ] = 1;
		
		if( sTimerFlag[TMR_ENC_FREQ] ){
			sTimerFlag[TMR_ENC_FREQ] = 0;
    583a:	10 92 52 0f 	sts	0x0F52, r1
    583e:	10 92 51 0f 	sts	0x0F51, r1
			
			blackbody_freq = 1 / (( 65536.f * EncoderFreqTick[1] + EncoderFreqTick[0] ) * 0.000000000625 );
    5842:	80 e0       	ldi	r24, 0x00	; 0
    5844:	90 e0       	ldi	r25, 0x00	; 0
    5846:	0e 94 e0 3a 	call	0x75c0	; 0x75c0 <__floatunsisf>
    584a:	20 e0       	ldi	r18, 0x00	; 0
    584c:	30 e0       	ldi	r19, 0x00	; 0
    584e:	40 e8       	ldi	r20, 0x80	; 128
    5850:	57 e4       	ldi	r21, 0x47	; 71
    5852:	0e 94 58 38 	call	0x70b0	; 0x70b0 <__mulsf3>
    5856:	5b 01       	movw	r10, r22
    5858:	6c 01       	movw	r12, r24
    585a:	00 e0       	ldi	r16, 0x00	; 0
    585c:	10 e0       	ldi	r17, 0x00	; 0
    585e:	c8 01       	movw	r24, r16
    5860:	b7 01       	movw	r22, r14
    5862:	0e 94 e0 3a 	call	0x75c0	; 0x75c0 <__floatunsisf>
    5866:	9b 01       	movw	r18, r22
    5868:	ac 01       	movw	r20, r24
    586a:	c6 01       	movw	r24, r12
    586c:	b5 01       	movw	r22, r10
    586e:	0e 94 2b 38 	call	0x7056	; 0x7056 <__addsf3>
    5872:	27 e7       	ldi	r18, 0x77	; 119
    5874:	3c ec       	ldi	r19, 0xCC	; 204
    5876:	4b e2       	ldi	r20, 0x2B	; 43
    5878:	50 e3       	ldi	r21, 0x30	; 48
    587a:	0e 94 58 38 	call	0x70b0	; 0x70b0 <__mulsf3>
    587e:	9b 01       	movw	r18, r22
    5880:	ac 01       	movw	r20, r24
    5882:	60 e0       	ldi	r22, 0x00	; 0
    5884:	70 e0       	ldi	r23, 0x00	; 0
    5886:	80 e8       	ldi	r24, 0x80	; 128
    5888:	9f e3       	ldi	r25, 0x3F	; 63
    588a:	0e 94 52 39 	call	0x72a4	; 0x72a4 <__divsf3>
    588e:	0e 94 82 36 	call	0x6d04	; 0x6d04 <__fixunssfsi>
    5892:	70 93 85 0a 	sts	0x0A85, r23
    5896:	60 93 84 0a 	sts	0x0A84, r22
		}
	}
}
    589a:	ff 91       	pop	r31
    589c:	ef 91       	pop	r30
    589e:	bf 91       	pop	r27
    58a0:	af 91       	pop	r26
    58a2:	9f 91       	pop	r25
    58a4:	8f 91       	pop	r24
    58a6:	7f 91       	pop	r23
    58a8:	6f 91       	pop	r22
    58aa:	5f 91       	pop	r21
    58ac:	4f 91       	pop	r20
    58ae:	3f 91       	pop	r19
    58b0:	2f 91       	pop	r18
    58b2:	1f 91       	pop	r17
    58b4:	0f 91       	pop	r16
    58b6:	ff 90       	pop	r15
    58b8:	ef 90       	pop	r14
    58ba:	df 90       	pop	r13
    58bc:	cf 90       	pop	r12
    58be:	bf 90       	pop	r11
    58c0:	af 90       	pop	r10
    58c2:	0f 90       	pop	r0
    58c4:	0b be       	out	0x3b, r0	; 59
    58c6:	0f 90       	pop	r0
    58c8:	0f be       	out	0x3f, r0	; 63
    58ca:	0f 90       	pop	r0
    58cc:	1f 90       	pop	r1
    58ce:	18 95       	reti

000058d0 <__vector_20>:


ISR(TIMER1_OVF_vect)
{
    58d0:	1f 92       	push	r1
    58d2:	0f 92       	push	r0
    58d4:	0f b6       	in	r0, 0x3f	; 63
    58d6:	0f 92       	push	r0
    58d8:	11 24       	eor	r1, r1
    58da:	8f 93       	push	r24
    58dc:	9f 93       	push	r25
	sTimerTick[TMR_ENC_FREQ]++;
    58de:	80 91 27 0f 	lds	r24, 0x0F27
    58e2:	90 91 28 0f 	lds	r25, 0x0F28
    58e6:	01 96       	adiw	r24, 0x01	; 1
    58e8:	90 93 28 0f 	sts	0x0F28, r25
    58ec:	80 93 27 0f 	sts	0x0F27, r24
}
    58f0:	9f 91       	pop	r25
    58f2:	8f 91       	pop	r24
    58f4:	0f 90       	pop	r0
    58f6:	0f be       	out	0x3f, r0	; 63
    58f8:	0f 90       	pop	r0
    58fa:	1f 90       	pop	r1
    58fc:	18 95       	reti

000058fe <__vector_35>:


// Timer3 overflow interrupt service routine
ISR(TIMER3_OVF_vect)
{
    58fe:	1f 92       	push	r1
    5900:	0f 92       	push	r0
    5902:	0f b6       	in	r0, 0x3f	; 63
    5904:	0f 92       	push	r0
    5906:	0b b6       	in	r0, 0x3b	; 59
    5908:	0f 92       	push	r0
    590a:	11 24       	eor	r1, r1
    590c:	2f 93       	push	r18
    590e:	3f 93       	push	r19
    5910:	4f 93       	push	r20
    5912:	5f 93       	push	r21
    5914:	6f 93       	push	r22
    5916:	7f 93       	push	r23
    5918:	8f 93       	push	r24
    591a:	9f 93       	push	r25
    591c:	af 93       	push	r26
    591e:	bf 93       	push	r27
    5920:	ef 93       	push	r30
    5922:	ff 93       	push	r31
	TCNT3 = TMR3_REG_VALUE; //Enable TOIE3
    5924:	80 e8       	ldi	r24, 0x80	; 128
    5926:	91 ec       	ldi	r25, 0xC1	; 193
    5928:	90 93 95 00 	sts	0x0095, r25
    592c:	80 93 94 00 	sts	0x0094, r24
	
	Key_scan();
    5930:	0e 94 56 12 	call	0x24ac	; 0x24ac <Key_scan>
	Key_Check();
    5934:	0e 94 d0 10 	call	0x21a0	; 0x21a0 <Key_Check>
	Relay_Check();
    5938:	0e 94 2f 11 	call	0x225e	; 0x225e <Relay_Check>
	USART1_Rx_Packet_Check();
    593c:	0e 94 03 30 	call	0x6006	; 0x6006 <USART1_Rx_Packet_Check>
	USART2_Rx_Packet_Check();
    5940:	0e 94 59 33 	call	0x66b2	; 0x66b2 <USART2_Rx_Packet_Check>
	
	sTimerTick[TMR_KEY_CNK]--;
    5944:	80 91 13 0f 	lds	r24, 0x0F13
    5948:	90 91 14 0f 	lds	r25, 0x0F14
    594c:	01 97       	sbiw	r24, 0x01	; 1
    594e:	90 93 14 0f 	sts	0x0F14, r25
    5952:	80 93 13 0f 	sts	0x0F13, r24
	if(sTimerTick[TMR_KEY_CNK] == 0){
    5956:	89 2b       	or	r24, r25
    5958:	51 f4       	brne	.+20     	; 0x596e <__vector_35+0x70>
		sTimerTick[TMR_KEY_CNK] = 1;
    595a:	81 e0       	ldi	r24, 0x01	; 1
    595c:	90 e0       	ldi	r25, 0x00	; 0
    595e:	90 93 14 0f 	sts	0x0F14, r25
    5962:	80 93 13 0f 	sts	0x0F13, r24
		sTimerFlag[TMR_KEY_CNK] = 1;
    5966:	90 93 3e 0f 	sts	0x0F3E, r25
    596a:	80 93 3d 0f 	sts	0x0F3D, r24
	}
	
	if( sTimerTick[TMR_ADC_TASK] & 0x8000 ){
    596e:	80 91 11 0f 	lds	r24, 0x0F11
    5972:	90 91 12 0f 	lds	r25, 0x0F12
    5976:	97 ff       	sbrs	r25, 7
    5978:	1b c0       	rjmp	.+54     	; 0x59b0 <__vector_35+0xb2>
		if( sTimerTick[TMR_ADC_TASK] == 0x8000 ){
    597a:	20 e8       	ldi	r18, 0x80	; 128
    597c:	80 30       	cpi	r24, 0x00	; 0
    597e:	92 07       	cpc	r25, r18
    5980:	91 f4       	brne	.+36     	; 0x59a6 <__vector_35+0xa8>
			//sTimerTick[TMR_ADC_TASK] = 0x8018; // 25ms 
			sTimerTick[TMR_ADC_TASK] = 0x8003; // 25ms 
    5982:	83 e0       	ldi	r24, 0x03	; 3
    5984:	90 e8       	ldi	r25, 0x80	; 128
    5986:	90 93 12 0f 	sts	0x0F12, r25
    598a:	80 93 11 0f 	sts	0x0F11, r24
			sTimerFlag[TMR_ADC_TASK] = 1;
    598e:	81 e0       	ldi	r24, 0x01	; 1
    5990:	90 e0       	ldi	r25, 0x00	; 0
    5992:	90 93 3c 0f 	sts	0x0F3C, r25
    5996:	80 93 3b 0f 	sts	0x0F3B, r24
			
			ADC_StartConversion;
    599a:	80 91 7a 00 	lds	r24, 0x007A
    599e:	80 64       	ori	r24, 0x40	; 64
    59a0:	80 93 7a 00 	sts	0x007A, r24
    59a4:	05 c0       	rjmp	.+10     	; 0x59b0 <__vector_35+0xb2>
		}
		else {
			sTimerTick[TMR_ADC_TASK]--;
    59a6:	01 97       	sbiw	r24, 0x01	; 1
    59a8:	90 93 12 0f 	sts	0x0F12, r25
    59ac:	80 93 11 0f 	sts	0x0F11, r24
		}
	}

	sTimerTick[TMR_10MS]--;
    59b0:	80 91 01 0f 	lds	r24, 0x0F01
    59b4:	90 91 02 0f 	lds	r25, 0x0F02
    59b8:	01 97       	sbiw	r24, 0x01	; 1
    59ba:	90 93 02 0f 	sts	0x0F02, r25
    59be:	80 93 01 0f 	sts	0x0F01, r24
	if(sTimerTick[TMR_10MS] == 0)
    59c2:	89 2b       	or	r24, r25
    59c4:	61 f4       	brne	.+24     	; 0x59de <__vector_35+0xe0>
	{
		sTimerTick[TMR_10MS] = 10;
    59c6:	8a e0       	ldi	r24, 0x0A	; 10
    59c8:	90 e0       	ldi	r25, 0x00	; 0
    59ca:	90 93 02 0f 	sts	0x0F02, r25
    59ce:	80 93 01 0f 	sts	0x0F01, r24
		sTimerFlag[TMR_10MS] = 1;
    59d2:	81 e0       	ldi	r24, 0x01	; 1
    59d4:	90 e0       	ldi	r25, 0x00	; 0
    59d6:	90 93 2c 0f 	sts	0x0F2C, r25
    59da:	80 93 2b 0f 	sts	0x0F2B, r24
	}

	sTimerTick[TMR_50MS]--;
    59de:	80 91 03 0f 	lds	r24, 0x0F03
    59e2:	90 91 04 0f 	lds	r25, 0x0F04
    59e6:	01 97       	sbiw	r24, 0x01	; 1
    59e8:	90 93 04 0f 	sts	0x0F04, r25
    59ec:	80 93 03 0f 	sts	0x0F03, r24
	if(sTimerTick[TMR_50MS] == 0)
    59f0:	89 2b       	or	r24, r25
    59f2:	61 f4       	brne	.+24     	; 0x5a0c <__vector_35+0x10e>
	{
		sTimerTick[TMR_50MS] = 50;
    59f4:	82 e3       	ldi	r24, 0x32	; 50
    59f6:	90 e0       	ldi	r25, 0x00	; 0
    59f8:	90 93 04 0f 	sts	0x0F04, r25
    59fc:	80 93 03 0f 	sts	0x0F03, r24
		sTimerFlag[TMR_50MS] = 1;
    5a00:	81 e0       	ldi	r24, 0x01	; 1
    5a02:	90 e0       	ldi	r25, 0x00	; 0
    5a04:	90 93 2e 0f 	sts	0x0F2E, r25
    5a08:	80 93 2d 0f 	sts	0x0F2D, r24
	}

	sTimerTick[TMR_100MS]--;
    5a0c:	80 91 05 0f 	lds	r24, 0x0F05
    5a10:	90 91 06 0f 	lds	r25, 0x0F06
    5a14:	01 97       	sbiw	r24, 0x01	; 1
    5a16:	90 93 06 0f 	sts	0x0F06, r25
    5a1a:	80 93 05 0f 	sts	0x0F05, r24
	if(sTimerTick[TMR_100MS] == 0)
    5a1e:	89 2b       	or	r24, r25
    5a20:	61 f4       	brne	.+24     	; 0x5a3a <__vector_35+0x13c>
	{
		sTimerTick[TMR_100MS] = 100;
    5a22:	84 e6       	ldi	r24, 0x64	; 100
    5a24:	90 e0       	ldi	r25, 0x00	; 0
    5a26:	90 93 06 0f 	sts	0x0F06, r25
    5a2a:	80 93 05 0f 	sts	0x0F05, r24
		sTimerFlag[TMR_100MS] = 1;
    5a2e:	81 e0       	ldi	r24, 0x01	; 1
    5a30:	90 e0       	ldi	r25, 0x00	; 0
    5a32:	90 93 30 0f 	sts	0x0F30, r25
    5a36:	80 93 2f 0f 	sts	0x0F2F, r24
	}

	sTimerTick[TMR_250MS]--;
    5a3a:	80 91 09 0f 	lds	r24, 0x0F09
    5a3e:	90 91 0a 0f 	lds	r25, 0x0F0A
    5a42:	01 97       	sbiw	r24, 0x01	; 1
    5a44:	90 93 0a 0f 	sts	0x0F0A, r25
    5a48:	80 93 09 0f 	sts	0x0F09, r24
	if(sTimerTick[TMR_250MS] == 0)
    5a4c:	89 2b       	or	r24, r25
    5a4e:	f1 f5       	brne	.+124    	; 0x5acc <__vector_35+0x1ce>
	{
		sTimerTick[TMR_250MS] = 250;
    5a50:	8a ef       	ldi	r24, 0xFA	; 250
    5a52:	90 e0       	ldi	r25, 0x00	; 0
    5a54:	90 93 0a 0f 	sts	0x0F0A, r25
    5a58:	80 93 09 0f 	sts	0x0F09, r24
		
		if(key_func_select_flag){
    5a5c:	80 91 3a 0a 	lds	r24, 0x0A3A
    5a60:	88 23       	and	r24, r24
    5a62:	29 f0       	breq	.+10     	; 0x5a6e <__vector_35+0x170>
			if(!key_push_check){
    5a64:	80 91 38 0a 	lds	r24, 0x0A38
    5a68:	88 23       	and	r24, r24
    5a6a:	a1 f4       	brne	.+40     	; 0x5a94 <__vector_35+0x196>
    5a6c:	04 c0       	rjmp	.+8      	; 0x5a76 <__vector_35+0x178>
			else{
				sTimerFlag[TMR_250MS] = 1;
			}
		}
		else{
			if(mmi_mode == FMODE_U_CALIBRATION_MODE){
    5a6e:	80 91 cf 0a 	lds	r24, 0x0ACF
    5a72:	83 30       	cpi	r24, 0x03	; 3
    5a74:	79 f4       	brne	.+30     	; 0x5a94 <__vector_35+0x196>
				sTimerFlag[TMR_250MS] = !sTimerFlag[TMR_250MS];
    5a76:	20 e0       	ldi	r18, 0x00	; 0
    5a78:	30 e0       	ldi	r19, 0x00	; 0
    5a7a:	80 91 33 0f 	lds	r24, 0x0F33
    5a7e:	90 91 34 0f 	lds	r25, 0x0F34
    5a82:	89 2b       	or	r24, r25
    5a84:	11 f4       	brne	.+4      	; 0x5a8a <__vector_35+0x18c>
    5a86:	21 e0       	ldi	r18, 0x01	; 1
    5a88:	30 e0       	ldi	r19, 0x00	; 0
    5a8a:	30 93 34 0f 	sts	0x0F34, r19
    5a8e:	20 93 33 0f 	sts	0x0F33, r18
    5a92:	06 c0       	rjmp	.+12     	; 0x5aa0 <__vector_35+0x1a2>
			}
			else{
				sTimerFlag[TMR_250MS] = 1;
    5a94:	81 e0       	ldi	r24, 0x01	; 1
    5a96:	90 e0       	ldi	r25, 0x00	; 0
    5a98:	90 93 34 0f 	sts	0x0F34, r25
    5a9c:	80 93 33 0f 	sts	0x0F33, r24
			}
		}

		if(FullScaleMode){
    5aa0:	80 91 d0 0a 	lds	r24, 0x0AD0
    5aa4:	88 23       	and	r24, r24
    5aa6:	91 f0       	breq	.+36     	; 0x5acc <__vector_35+0x1ce>
			// Full scale Mode
			timer_test++;
    5aa8:	80 91 a0 09 	lds	r24, 0x09A0
    5aac:	8f 5f       	subi	r24, 0xFF	; 255
    5aae:	80 93 a0 09 	sts	0x09A0, r24
			if(timer_test == 1){
    5ab2:	81 30       	cpi	r24, 0x01	; 1
    5ab4:	59 f4       	brne	.+22     	; 0x5acc <__vector_35+0x1ce>
				dac_data++;
    5ab6:	80 91 7e 0a 	lds	r24, 0x0A7E
    5aba:	90 91 7f 0a 	lds	r25, 0x0A7F
    5abe:	01 96       	adiw	r24, 0x01	; 1
    5ac0:	90 93 7f 0a 	sts	0x0A7F, r25
    5ac4:	80 93 7e 0a 	sts	0x0A7E, r24
				timer_test = 0;
    5ac8:	10 92 a0 09 	sts	0x09A0, r1
			}
		}		
	}
	
	sTimerTick[TMR_500MS]--;
    5acc:	80 91 0b 0f 	lds	r24, 0x0F0B
    5ad0:	90 91 0c 0f 	lds	r25, 0x0F0C
    5ad4:	01 97       	sbiw	r24, 0x01	; 1
    5ad6:	90 93 0c 0f 	sts	0x0F0C, r25
    5ada:	80 93 0b 0f 	sts	0x0F0B, r24
	if(sTimerTick[TMR_500MS] == 0)
    5ade:	89 2b       	or	r24, r25
    5ae0:	61 f4       	brne	.+24     	; 0x5afa <__vector_35+0x1fc>
	{
		sTimerTick[TMR_500MS] = 500;
    5ae2:	84 ef       	ldi	r24, 0xF4	; 244
    5ae4:	91 e0       	ldi	r25, 0x01	; 1
    5ae6:	90 93 0c 0f 	sts	0x0F0C, r25
    5aea:	80 93 0b 0f 	sts	0x0F0B, r24
		sTimerFlag[TMR_500MS] = 1;
    5aee:	81 e0       	ldi	r24, 0x01	; 1
    5af0:	90 e0       	ldi	r25, 0x00	; 0
    5af2:	90 93 36 0f 	sts	0x0F36, r25
    5af6:	80 93 35 0f 	sts	0x0F35, r24
	}

	sTimerTick[TMR_1000MS]--;
    5afa:	80 91 0d 0f 	lds	r24, 0x0F0D
    5afe:	90 91 0e 0f 	lds	r25, 0x0F0E
    5b02:	01 97       	sbiw	r24, 0x01	; 1
    5b04:	90 93 0e 0f 	sts	0x0F0E, r25
    5b08:	80 93 0d 0f 	sts	0x0F0D, r24
	if(sTimerTick[TMR_1000MS] == 0)
    5b0c:	89 2b       	or	r24, r25
    5b0e:	09 f0       	breq	.+2      	; 0x5b12 <__vector_35+0x214>
    5b10:	80 c0       	rjmp	.+256    	; 0x5c12 <__vector_35+0x314>
	{
		sTimerTick[TMR_1000MS] = 1000;
    5b12:	88 ee       	ldi	r24, 0xE8	; 232
    5b14:	93 e0       	ldi	r25, 0x03	; 3
    5b16:	90 93 0e 0f 	sts	0x0F0E, r25
    5b1a:	80 93 0d 0f 	sts	0x0F0D, r24
		sTimerFlag[TMR_1000MS] = 1;
    5b1e:	21 e0       	ldi	r18, 0x01	; 1
    5b20:	30 e0       	ldi	r19, 0x00	; 0
    5b22:	30 93 38 0f 	sts	0x0F38, r19
    5b26:	20 93 37 0f 	sts	0x0F37, r18
		
		if(Device_Mode_Select == Det_U_CALIBRATION_MODE){
    5b2a:	80 91 d9 0a 	lds	r24, 0x0AD9
    5b2e:	81 30       	cpi	r24, 0x01	; 1
    5b30:	49 f4       	brne	.+18     	; 0x5b44 <__vector_35+0x246>
			if(Calibration_Mode_Flow == 2){
    5b32:	80 91 82 0a 	lds	r24, 0x0A82
    5b36:	82 30       	cpi	r24, 0x02	; 2
    5b38:	19 f4       	brne	.+6      	; 0x5b40 <__vector_35+0x242>
				Calibration_Mode_Count--;
    5b3a:	80 91 b1 0a 	lds	r24, 0x0AB1
    5b3e:	10 c0       	rjmp	.+32     	; 0x5b60 <__vector_35+0x262>
			}
			else{
				Calibration_Mode_Count = Det_UV_Calibration_Count_MAX;
    5b40:	86 e4       	ldi	r24, 0x46	; 70
    5b42:	0f c0       	rjmp	.+30     	; 0x5b62 <__vector_35+0x264>
			}
		}
		else if(Device_Mode_Select == Det_T_CALIBRATION_MODE){
    5b44:	82 30       	cpi	r24, 0x02	; 2
    5b46:	79 f4       	brne	.+30     	; 0x5b66 <__vector_35+0x268>
			blackbody_ctr_flag = 1;
    5b48:	30 93 d5 0a 	sts	0x0AD5, r19
    5b4c:	20 93 d4 0a 	sts	0x0AD4, r18
			if(Calibration_Mode_Flow){
    5b50:	80 91 82 0a 	lds	r24, 0x0A82
    5b54:	88 23       	and	r24, r24
    5b56:	39 f0       	breq	.+14     	; 0x5b66 <__vector_35+0x268>
				if(Calibration_Mode_Count != 0){
    5b58:	80 91 b1 0a 	lds	r24, 0x0AB1
    5b5c:	88 23       	and	r24, r24
    5b5e:	19 f0       	breq	.+6      	; 0x5b66 <__vector_35+0x268>
					Calibration_Mode_Count--;
    5b60:	81 50       	subi	r24, 0x01	; 1
    5b62:	80 93 b1 0a 	sts	0x0AB1, r24
				}
			}
		}
		
		if(det_power_control & Det_Power_System_Check_Bit){
    5b66:	80 91 da 0a 	lds	r24, 0x0ADA
    5b6a:	82 ff       	sbrs	r24, 2
    5b6c:	0f c0       	rjmp	.+30     	; 0x5b8c <__vector_35+0x28e>
			sTimerFlag[TMR_DET_SYSTEM_CHECK]++;
    5b6e:	80 91 4f 0f 	lds	r24, 0x0F4F
    5b72:	90 91 50 0f 	lds	r25, 0x0F50
    5b76:	01 96       	adiw	r24, 0x01	; 1
    5b78:	90 93 50 0f 	sts	0x0F50, r25
    5b7c:	80 93 4f 0f 	sts	0x0F4F, r24
			if(sTimerFlag[TMR_DET_SYSTEM_CHECK] > 10){
    5b80:	0b 97       	sbiw	r24, 0x0b	; 11
    5b82:	20 f0       	brcs	.+8      	; 0x5b8c <__vector_35+0x28e>
				sTimerFlag[TMR_DET_SYSTEM_CHECK] = 0;
    5b84:	10 92 50 0f 	sts	0x0F50, r1
    5b88:	10 92 4f 0f 	sts	0x0F4F, r1
			}
		}
		if(mmi_mode < FMODE_NORMAL){
    5b8c:	80 91 cf 0a 	lds	r24, 0x0ACF
    5b90:	82 30       	cpi	r24, 0x02	; 2
    5b92:	90 f4       	brcc	.+36     	; 0x5bb8 <__vector_35+0x2ba>
			sTimerTick[TMR_SELFTEST]--;
    5b94:	80 91 15 0f 	lds	r24, 0x0F15
    5b98:	90 91 16 0f 	lds	r25, 0x0F16
    5b9c:	01 97       	sbiw	r24, 0x01	; 1
    5b9e:	90 93 16 0f 	sts	0x0F16, r25
    5ba2:	80 93 15 0f 	sts	0x0F15, r24
			if(sTimerTick[TMR_SELFTEST] == 0)
    5ba6:	89 2b       	or	r24, r25
    5ba8:	71 f5       	brne	.+92     	; 0x5c06 <__vector_35+0x308>
			{
				sTimerTick[TMR_SELFTEST] = 0;
    5baa:	10 92 16 0f 	sts	0x0F16, r1
    5bae:	10 92 15 0f 	sts	0x0F15, r1
				Mode_Select();
    5bb2:	0e 94 57 17 	call	0x2eae	; 0x2eae <Mode_Select>
    5bb6:	27 c0       	rjmp	.+78     	; 0x5c06 <__vector_35+0x308>
			}
		}
		else if(mmi_mode > FMODE_NORMAL){
    5bb8:	82 30       	cpi	r24, 0x02	; 2
    5bba:	29 f1       	breq	.+74     	; 0x5c06 <__vector_35+0x308>
			if(sTimerFlag[TMR_NORMAL_RETURN] == 1){
    5bbc:	80 91 41 0f 	lds	r24, 0x0F41
    5bc0:	90 91 42 0f 	lds	r25, 0x0F42
    5bc4:	01 97       	sbiw	r24, 0x01	; 1
    5bc6:	31 f4       	brne	.+12     	; 0x5bd4 <__vector_35+0x2d6>
				sTimerTick[TMR_NORMAL_RETURN]--;
    5bc8:	80 91 17 0f 	lds	r24, 0x0F17
    5bcc:	90 91 18 0f 	lds	r25, 0x0F18
    5bd0:	01 97       	sbiw	r24, 0x01	; 1
    5bd2:	02 c0       	rjmp	.+4      	; 0x5bd8 <__vector_35+0x2da>
				//DPRINT1("A TMR_NORMAL_RETURN = %d\n", sTimerTick[TMR_NORMAL_RETURN]);
			}
			else{
				sTimerTick[TMR_NORMAL_RETURN] = NORMAL_RETURN_CNT;
    5bd4:	8e e1       	ldi	r24, 0x1E	; 30
    5bd6:	90 e0       	ldi	r25, 0x00	; 0
    5bd8:	90 93 18 0f 	sts	0x0F18, r25
    5bdc:	80 93 17 0f 	sts	0x0F17, r24
				//DPRINT1("B TMR_NORMAL_RETURN = %d\n", sTimerTick[TMR_NORMAL_RETURN]);
			}
			
			if(sTimerTick[TMR_NORMAL_RETURN] == 0)
    5be0:	80 91 17 0f 	lds	r24, 0x0F17
    5be4:	90 91 18 0f 	lds	r25, 0x0F18
    5be8:	89 2b       	or	r24, r25
    5bea:	69 f4       	brne	.+26     	; 0x5c06 <__vector_35+0x308>
			{
				sTimerFlag[TMR_NORMAL_RETURN] = 0;
    5bec:	10 92 42 0f 	sts	0x0F42, r1
    5bf0:	10 92 41 0f 	sts	0x0F41, r1
				Mode_Select();
    5bf4:	0e 94 57 17 	call	0x2eae	; 0x2eae <Mode_Select>
				reg_data_old = 0xff;
    5bf8:	8f ef       	ldi	r24, 0xFF	; 255
    5bfa:	80 93 b5 0a 	sts	0x0AB5, r24
				key_func_select_flag = 0;
    5bfe:	10 92 3a 0a 	sts	0x0A3A, r1
				setting_mode_cursor = 0;
    5c02:	10 92 35 0a 	sts	0x0A35, r1
			}
		}
		STATUS_LED_T();
    5c06:	80 91 0b 01 	lds	r24, 0x010B
    5c0a:	91 e0       	ldi	r25, 0x01	; 1
    5c0c:	89 27       	eor	r24, r25
    5c0e:	80 93 0b 01 	sts	0x010B, r24
	}
	
	sTimerTick[TMR_MODBUS_START]--;
    5c12:	80 91 19 0f 	lds	r24, 0x0F19
    5c16:	90 91 1a 0f 	lds	r25, 0x0F1A
    5c1a:	01 97       	sbiw	r24, 0x01	; 1
    5c1c:	90 93 1a 0f 	sts	0x0F1A, r25
    5c20:	80 93 19 0f 	sts	0x0F19, r24
	if(sTimerTick[TMR_MODBUS_START] == 0){
    5c24:	89 2b       	or	r24, r25
    5c26:	d9 f4       	brne	.+54     	; 0x5c5e <__vector_35+0x360>
		sTimerTick[TMR_MODBUS_START] = MODBUS_START_TIME;
    5c28:	82 e3       	ldi	r24, 0x32	; 50
    5c2a:	90 e0       	ldi	r25, 0x00	; 0
    5c2c:	90 93 1a 0f 	sts	0x0F1A, r25
    5c30:	80 93 19 0f 	sts	0x0F19, r24
		sTimerFlag[TMR_MODBUS_START]++;
    5c34:	80 91 43 0f 	lds	r24, 0x0F43
    5c38:	90 91 44 0f 	lds	r25, 0x0F44
    5c3c:	01 96       	adiw	r24, 0x01	; 1
    5c3e:	90 93 44 0f 	sts	0x0F44, r25
    5c42:	80 93 43 0f 	sts	0x0F43, r24
		if(sTimerFlag[TMR_MODBUS_START] == 20){
    5c46:	44 97       	sbiw	r24, 0x14	; 20
    5c48:	21 f4       	brne	.+8      	; 0x5c52 <__vector_35+0x354>
			sTimerFlag[TMR_MODBUS_START] = 0;
    5c4a:	10 92 44 0f 	sts	0x0F44, r1
    5c4e:	10 92 43 0f 	sts	0x0F43, r1
		}
		sTimerFlag[TMR_MODBUS_START_FLAG] = 1;
    5c52:	81 e0       	ldi	r24, 0x01	; 1
    5c54:	90 e0       	ldi	r25, 0x00	; 0
    5c56:	90 93 46 0f 	sts	0x0F46, r25
    5c5a:	80 93 45 0f 	sts	0x0F45, r24
	}

	if( sTimerTick[TMR_MODBUS_TIMEOUT] & 0x8000 ){
    5c5e:	80 91 1d 0f 	lds	r24, 0x0F1D
    5c62:	90 91 1e 0f 	lds	r25, 0x0F1E
    5c66:	97 ff       	sbrs	r25, 7
    5c68:	14 c0       	rjmp	.+40     	; 0x5c92 <__vector_35+0x394>
		if( sTimerTick[TMR_MODBUS_TIMEOUT] == 0x8000 ){
    5c6a:	20 e8       	ldi	r18, 0x80	; 128
    5c6c:	80 30       	cpi	r24, 0x00	; 0
    5c6e:	92 07       	cpc	r25, r18
    5c70:	59 f4       	brne	.+22     	; 0x5c88 <__vector_35+0x38a>
			sTimerTick[TMR_MODBUS_TIMEOUT] = 0;
    5c72:	10 92 1e 0f 	sts	0x0F1E, r1
    5c76:	10 92 1d 0f 	sts	0x0F1D, r1
			
			sTimerFlag[TMR_MODBUS_TIMEOUT] = 1;
    5c7a:	81 e0       	ldi	r24, 0x01	; 1
    5c7c:	90 e0       	ldi	r25, 0x00	; 0
    5c7e:	90 93 48 0f 	sts	0x0F48, r25
    5c82:	80 93 47 0f 	sts	0x0F47, r24
    5c86:	05 c0       	rjmp	.+10     	; 0x5c92 <__vector_35+0x394>
		}
		else {
			sTimerTick[TMR_MODBUS_TIMEOUT]--;
    5c88:	01 97       	sbiw	r24, 0x01	; 1
    5c8a:	90 93 1e 0f 	sts	0x0F1E, r25
    5c8e:	80 93 1d 0f 	sts	0x0F1D, r24
		}
	}
	
	if( sTimerTick[TMR_DET_TIMEOUT] & 0x8000 ){
    5c92:	80 91 23 0f 	lds	r24, 0x0F23
    5c96:	90 91 24 0f 	lds	r25, 0x0F24
    5c9a:	97 ff       	sbrs	r25, 7
    5c9c:	16 c0       	rjmp	.+44     	; 0x5cca <__vector_35+0x3cc>
		if( sTimerTick[TMR_DET_TIMEOUT] == 0x8000 ){
    5c9e:	20 e8       	ldi	r18, 0x80	; 128
    5ca0:	80 30       	cpi	r24, 0x00	; 0
    5ca2:	92 07       	cpc	r25, r18
    5ca4:	69 f4       	brne	.+26     	; 0x5cc0 <__vector_35+0x3c2>
			sTimerTick[TMR_DET_TIMEOUT] = 0;
    5ca6:	10 92 24 0f 	sts	0x0F24, r1
    5caa:	10 92 23 0f 	sts	0x0F23, r1
			
			Det_Modbus_Buf[Det_Write_Err_Flag] = 3;
    5cae:	83 e0       	ldi	r24, 0x03	; 3
    5cb0:	90 e0       	ldi	r25, 0x00	; 0
    5cb2:	90 93 31 15 	sts	0x1531, r25
    5cb6:	80 93 30 15 	sts	0x1530, r24
			DET_Rx2Cnt = 0;
    5cba:	10 92 9c 11 	sts	0x119C, r1
    5cbe:	05 c0       	rjmp	.+10     	; 0x5cca <__vector_35+0x3cc>
		}
		else {
			sTimerTick[TMR_DET_TIMEOUT]--;
    5cc0:	01 97       	sbiw	r24, 0x01	; 1
    5cc2:	90 93 24 0f 	sts	0x0F24, r25
    5cc6:	80 93 23 0f 	sts	0x0F23, r24
		}
	}
	
	if(sTimerFlag[TMR_MODBUS_DELAY] == 1){
    5cca:	80 91 49 0f 	lds	r24, 0x0F49
    5cce:	90 91 4a 0f 	lds	r25, 0x0F4A
    5cd2:	01 97       	sbiw	r24, 0x01	; 1
    5cd4:	d9 f4       	brne	.+54     	; 0x5d0c <__vector_35+0x40e>
		sTimerTick[TMR_MODBUS_DELAY]--;
    5cd6:	80 91 1f 0f 	lds	r24, 0x0F1F
    5cda:	90 91 20 0f 	lds	r25, 0x0F20
    5cde:	01 97       	sbiw	r24, 0x01	; 1
    5ce0:	90 93 20 0f 	sts	0x0F20, r25
    5ce4:	80 93 1f 0f 	sts	0x0F1F, r24
		if(sTimerTick[TMR_MODBUS_DELAY] == 0)
    5ce8:	89 2b       	or	r24, r25
    5cea:	81 f4       	brne	.+32     	; 0x5d0c <__vector_35+0x40e>
		{
			sTimerTick[TMR_MODBUS_DELAY] = 5;
    5cec:	85 e0       	ldi	r24, 0x05	; 5
    5cee:	90 e0       	ldi	r25, 0x00	; 0
    5cf0:	90 93 20 0f 	sts	0x0F20, r25
    5cf4:	80 93 1f 0f 	sts	0x0F1F, r24
			sTimerFlag[TMR_MODBUS_DELAY] = 0;
    5cf8:	10 92 4a 0f 	sts	0x0F4A, r1
    5cfc:	10 92 49 0f 	sts	0x0F49, r1
			
			Det_Modbus_Buf[Det_Write_Err_Flag] = 0;
    5d00:	10 92 31 15 	sts	0x1531, r1
    5d04:	10 92 30 15 	sts	0x1530, r1

			DET_Rx2Cnt = 0;
    5d08:	10 92 9c 11 	sts	0x119C, r1
		else{
			ModeSetTime[FMODE_DET_TEST_MODE]--;
		}
	}
*/
	if(ModeSetFlow[FMODE_DET_EEP_CLEAR_MODE] > 2){
    5d0c:	20 91 e0 0a 	lds	r18, 0x0AE0
    5d10:	23 30       	cpi	r18, 0x03	; 3
    5d12:	88 f0       	brcs	.+34     	; 0x5d36 <__vector_35+0x438>
		if(ModeSetTime[FMODE_DET_EEP_CLEAR_MODE] == 0){
    5d14:	80 91 5c 0a 	lds	r24, 0x0A5C
    5d18:	90 91 5d 0a 	lds	r25, 0x0A5D
    5d1c:	00 97       	sbiw	r24, 0x00	; 0
    5d1e:	31 f4       	brne	.+12     	; 0x5d2c <__vector_35+0x42e>
			ModeSetFlow[FMODE_DET_EEP_CLEAR_MODE]++;
    5d20:	2f 5f       	subi	r18, 0xFF	; 255
    5d22:	20 93 e0 0a 	sts	0x0AE0, r18
			ModeSetTime[FMODE_DET_EEP_CLEAR_MODE] = 1000;
    5d26:	88 ee       	ldi	r24, 0xE8	; 232
    5d28:	93 e0       	ldi	r25, 0x03	; 3
    5d2a:	01 c0       	rjmp	.+2      	; 0x5d2e <__vector_35+0x430>
		}
		else{
			ModeSetTime[FMODE_DET_EEP_CLEAR_MODE]--;
    5d2c:	01 97       	sbiw	r24, 0x01	; 1
    5d2e:	90 93 5d 0a 	sts	0x0A5D, r25
    5d32:	80 93 5c 0a 	sts	0x0A5C, r24
		}
	}
    5d36:	ff 91       	pop	r31
    5d38:	ef 91       	pop	r30
    5d3a:	bf 91       	pop	r27
    5d3c:	af 91       	pop	r26
    5d3e:	9f 91       	pop	r25
    5d40:	8f 91       	pop	r24
    5d42:	7f 91       	pop	r23
    5d44:	6f 91       	pop	r22
    5d46:	5f 91       	pop	r21
    5d48:	4f 91       	pop	r20
    5d4a:	3f 91       	pop	r19
    5d4c:	2f 91       	pop	r18
    5d4e:	0f 90       	pop	r0
    5d50:	0b be       	out	0x3b, r0	; 59
    5d52:	0f 90       	pop	r0
    5d54:	0f be       	out	0x3f, r0	; 63
    5d56:	0f 90       	pop	r0
    5d58:	1f 90       	pop	r1
    5d5a:	18 95       	reti

00005d5c <Initialize_UARTBps>:
{
U16	wBaudRate;
U8	i;

	// _DEBUG_PORT
	Uart_dbg.bReceiveTail = 0;	
    5d5c:	10 92 94 0f 	sts	0x0F94, r1
	Uart_dbg.bReceiveHead = 0;
    5d60:	10 92 93 0f 	sts	0x0F93, r1

	UCSR0A = ( 1 << U2X0 );  /* Double Speed */
    5d64:	22 e0       	ldi	r18, 0x02	; 2
    5d66:	20 93 c0 00 	sts	0x00C0, r18
	UCSR0B = ( 1 << RXCIE0 ) | ( 1 << RXEN0  ) | ( 1 << TXEN0 );	//RX INT,RX ,TX 
    5d6a:	88 e9       	ldi	r24, 0x98	; 152
    5d6c:	80 93 c1 00 	sts	0x00C1, r24
	UCSR0C = ( 1 << USBS0  ) | ( 1 << UCSZ01 ) | ( 1 << UCSZ00 );	//UCSR0C Write Register Set,,none,8,1
    5d70:	9e e0       	ldi	r25, 0x0E	; 14
    5d72:	90 93 c2 00 	sts	0x00C2, r25

	wBaudRate = (U16)(( ATMEGA_XTAL / ( 8 * (U32)_DBG_BAUD_SPEED ) ) - 1);	//  
	UBRR0H = (U8)((wBaudRate >> 8 ) & 0xFF );
    5d76:	10 92 c5 00 	sts	0x00C5, r1
	UBRR0L = (U8)((wBaudRate & 0xFF));
    5d7a:	80 e1       	ldi	r24, 0x10	; 16
    5d7c:	80 93 c4 00 	sts	0x00C4, r24

	// _MODBUS_PORT
	MODBUS_DIR_RX();
    5d80:	80 91 02 01 	lds	r24, 0x0102
    5d84:	8b 7f       	andi	r24, 0xFB	; 251
    5d86:	80 93 02 01 	sts	0x0102, r24
	UCSR1A = ( 1 << U2X1 ); /* Double Speed */
    5d8a:	20 93 c8 00 	sts	0x00C8, r18
	UCSR1B = ( 1 << RXCIE1 ) | ( 1 << RXEN1  ) | ( 1 << TXCIE1 ) | ( 1 << TXEN1 );
    5d8e:	48 ed       	ldi	r20, 0xD8	; 216
    5d90:	40 93 c9 00 	sts	0x00C9, r20
	UCSR1C = ( 1 << USBS1  ) | ( 1 << UCSZ11 ) | ( 1 << UCSZ10 );
    5d94:	90 93 ca 00 	sts	0x00CA, r25

	wBaudRate = (U16)(( ATMEGA_XTAL / ( 8 * (U32)_MODBUS_BAUD_SPEED ) ) - 1);	//  
	UBRR1H = (U8)((wBaudRate >> 8 ) & 0xFF );
    5d98:	10 92 cd 00 	sts	0x00CD, r1
	UBRR1L = (U8)((wBaudRate & 0xFF));
    5d9c:	3f ec       	ldi	r19, 0xCF	; 207
    5d9e:	30 93 cc 00 	sts	0x00CC, r19

	RS485_DIR_RX();
    5da2:	80 91 02 01 	lds	r24, 0x0102
    5da6:	87 7f       	andi	r24, 0xF7	; 247
    5da8:	80 93 02 01 	sts	0x0102, r24
	// _RS485_PORT
	UCSR2A = ( 1 << U2X2 ); /* Double Speed */
    5dac:	20 93 d0 00 	sts	0x00D0, r18
	UCSR2B = ( 1 << RXCIE2 ) | ( 1 << RXEN2  ) | ( 1 << TXCIE2 ) | ( 1 << TXEN2 );						// Rx Interrupt enable
    5db0:	40 93 d1 00 	sts	0x00D1, r20
	UCSR2C = ( 1 << USBS2  ) | ( 1 << UCSZ21 ) | ( 1 << UCSZ20 );
    5db4:	90 93 d2 00 	sts	0x00D2, r25

	wBaudRate = (U16)(( ATMEGA_XTAL / ( 8 * (U32)_RS485_BAUD_SPEED ) ) - 1);	//  
	UBRR2H = (U8)((wBaudRate >> 8 ) & 0xFF );
    5db8:	10 92 d5 00 	sts	0x00D5, r1
	UBRR2L = (U8)((wBaudRate & 0xFF));
    5dbc:	30 93 d4 00 	sts	0x00D4, r19
	
	Tx1BusyFlag = 0;
    5dc0:	10 92 16 15 	sts	0x1516, r1
    5dc4:	ea e1       	ldi	r30, 0x1A	; 26
    5dc6:	f5 e1       	ldi	r31, 0x15	; 21
	
	for(i = 0; i < Det_Modbus_Max_Buf; i++){
		Det_Modbus_Buf[i] = 0;
    5dc8:	11 92       	st	Z+, r1
    5dca:	11 92       	st	Z+, r1
	UBRR2H = (U8)((wBaudRate >> 8 ) & 0xFF );
	UBRR2L = (U8)((wBaudRate & 0xFF));
	
	Tx1BusyFlag = 0;
	
	for(i = 0; i < Det_Modbus_Max_Buf; i++){
    5dcc:	85 e1       	ldi	r24, 0x15	; 21
    5dce:	e4 33       	cpi	r30, 0x34	; 52
    5dd0:	f8 07       	cpc	r31, r24
    5dd2:	d1 f7       	brne	.-12     	; 0x5dc8 <Initialize_UARTBps+0x6c>
		Det_Modbus_Buf[i] = 0;
	}
	Det_Modbus_Buf[Det_Reg_Status_Old] = 0xff;
    5dd4:	8f ef       	ldi	r24, 0xFF	; 255
    5dd6:	90 e0       	ldi	r25, 0x00	; 0
    5dd8:	90 93 1d 15 	sts	0x151D, r25
    5ddc:	80 93 1c 15 	sts	0x151C, r24
	Det_com_cnt = 0;
    5de0:	10 92 9b 11 	sts	0x119B, r1
	Det_com_flag = 0;
    5de4:	10 92 b0 18 	sts	0x18B0, r1
}
    5de8:	08 95       	ret

00005dea <__vector_25>:

/////////////////////////////////////////////////////////////////////////////////////////////////////////////////////////////////////
ISR(USART0_RX_vect)		//DBG
{
    5dea:	1f 92       	push	r1
    5dec:	0f 92       	push	r0
    5dee:	0f b6       	in	r0, 0x3f	; 63
    5df0:	0f 92       	push	r0
    5df2:	0b b6       	in	r0, 0x3b	; 59
    5df4:	0f 92       	push	r0
    5df6:	11 24       	eor	r1, r1
    5df8:	2f 93       	push	r18
    5dfa:	8f 93       	push	r24
    5dfc:	9f 93       	push	r25
    5dfe:	ef 93       	push	r30
    5e00:	ff 93       	push	r31
	Uart_dbg.bReceiveBuff[ Uart_dbg.bReceiveHead ] = UDR0;				// 16   
    5e02:	80 91 93 0f 	lds	r24, 0x0F93
    5e06:	90 e0       	ldi	r25, 0x00	; 0
    5e08:	20 91 c6 00 	lds	r18, 0x00C6
    5e0c:	fc 01       	movw	r30, r24
    5e0e:	ed 5a       	subi	r30, 0xAD	; 173
    5e10:	f0 4f       	sbci	r31, 0xF0	; 240
    5e12:	20 83       	st	Z, r18
	Uart_dbg.bReceiveHead = ( Uart_dbg.bReceiveHead + 1 ) % _MAX_UART_BUFF;		// 16   ,  
    5e14:	01 96       	adiw	r24, 0x01	; 1
    5e16:	8f 73       	andi	r24, 0x3F	; 63
    5e18:	90 70       	andi	r25, 0x00	; 0
    5e1a:	80 93 93 0f 	sts	0x0F93, r24
}
    5e1e:	ff 91       	pop	r31
    5e20:	ef 91       	pop	r30
    5e22:	9f 91       	pop	r25
    5e24:	8f 91       	pop	r24
    5e26:	2f 91       	pop	r18
    5e28:	0f 90       	pop	r0
    5e2a:	0b be       	out	0x3b, r0	; 59
    5e2c:	0f 90       	pop	r0
    5e2e:	0f be       	out	0x3f, r0	; 63
    5e30:	0f 90       	pop	r0
    5e32:	1f 90       	pop	r1
    5e34:	18 95       	reti

00005e36 <__vector_36>:

/////////////////////////////////////////////////////////////////////////////////////////////////////////////////////////////////////
ISR(USART1_RX_vect)
{
    5e36:	1f 92       	push	r1
    5e38:	0f 92       	push	r0
    5e3a:	0f b6       	in	r0, 0x3f	; 63
    5e3c:	0f 92       	push	r0
    5e3e:	0b b6       	in	r0, 0x3b	; 59
    5e40:	0f 92       	push	r0
    5e42:	11 24       	eor	r1, r1
    5e44:	8f 93       	push	r24
    5e46:	9f 93       	push	r25
    5e48:	ef 93       	push	r30
    5e4a:	ff 93       	push	r31
	U8	bStatus, bData;
	
	bStatus = UCSR1A;
    5e4c:	80 91 c8 00 	lds	r24, 0x00C8
	bData = UDR1;
    5e50:	90 91 ce 00 	lds	r25, 0x00CE
	
	if ( !( bStatus & ( FRAMING_ERROR | PARITY_ERROR | DATA_OVERRUN )) )
    5e54:	8c 71       	andi	r24, 0x1C	; 28
    5e56:	a1 f4       	brne	.+40     	; 0x5e80 <__vector_36+0x4a>
	{
		if( Rx1Cnt >= MAX_USART1_RX_BUFF ){
			Rx1Cnt = 0;
		}
			
		Rx1Buf[Rx1FifoHp&1][Rx1Cnt] = bData;
    5e58:	80 91 ad 18 	lds	r24, 0x18AD
    5e5c:	e0 91 17 15 	lds	r30, 0x1517
    5e60:	f0 e0       	ldi	r31, 0x00	; 0
    5e62:	e1 70       	andi	r30, 0x01	; 1
    5e64:	f0 70       	andi	r31, 0x00	; 0
    5e66:	fe 2f       	mov	r31, r30
    5e68:	ee 27       	eor	r30, r30
    5e6a:	e8 0f       	add	r30, r24
    5e6c:	f1 1d       	adc	r31, r1
    5e6e:	e7 5c       	subi	r30, 0xC7	; 199
    5e70:	f5 4e       	sbci	r31, 0xE5	; 229
    5e72:	90 83       	st	Z, r25
		Rx1Cnt++;
    5e74:	8f 5f       	subi	r24, 0xFF	; 255
    5e76:	80 93 ad 18 	sts	0x18AD, r24
		
		Rx1_Packet_Check = 0x83; // 4ms
    5e7a:	83 e8       	ldi	r24, 0x83	; 131
    5e7c:	80 93 af 18 	sts	0x18AF, r24
	}
}
    5e80:	ff 91       	pop	r31
    5e82:	ef 91       	pop	r30
    5e84:	9f 91       	pop	r25
    5e86:	8f 91       	pop	r24
    5e88:	0f 90       	pop	r0
    5e8a:	0b be       	out	0x3b, r0	; 59
    5e8c:	0f 90       	pop	r0
    5e8e:	0f be       	out	0x3f, r0	; 63
    5e90:	0f 90       	pop	r0
    5e92:	1f 90       	pop	r1
    5e94:	18 95       	reti

00005e96 <__vector_38>:

/////////////////////////////////////////////////////////////////////////////////////////////////////////////////////////////////////
ISR(USART1_TX_vect)
{
    5e96:	1f 92       	push	r1
    5e98:	0f 92       	push	r0
    5e9a:	0f b6       	in	r0, 0x3f	; 63
    5e9c:	0f 92       	push	r0
    5e9e:	0b b6       	in	r0, 0x3b	; 59
    5ea0:	0f 92       	push	r0
    5ea2:	11 24       	eor	r1, r1
    5ea4:	8f 93       	push	r24
    5ea6:	9f 93       	push	r25
    5ea8:	ef 93       	push	r30
    5eaa:	ff 93       	push	r31
	if( !Tx1Cnt ){
    5eac:	90 91 3a 1f 	lds	r25, 0x1F3A
    5eb0:	99 23       	and	r25, r25
    5eb2:	41 f4       	brne	.+16     	; 0x5ec4 <__vector_38+0x2e>
		MODBUS_DIR_RX();
    5eb4:	80 91 02 01 	lds	r24, 0x0102
    5eb8:	8b 7f       	andi	r24, 0xFB	; 251
    5eba:	80 93 02 01 	sts	0x0102, r24
		Tx1BusyFlag = 0;
    5ebe:	10 92 16 15 	sts	0x1516, r1
    5ec2:	0e c0       	rjmp	.+28     	; 0x5ee0 <__vector_38+0x4a>
	}
	else {
		UDR1 = *pTx1Buf++;
    5ec4:	e0 91 14 13 	lds	r30, 0x1314
    5ec8:	f0 91 15 13 	lds	r31, 0x1315
    5ecc:	81 91       	ld	r24, Z+
    5ece:	80 93 ce 00 	sts	0x00CE, r24
    5ed2:	f0 93 15 13 	sts	0x1315, r31
    5ed6:	e0 93 14 13 	sts	0x1314, r30
		Tx1Cnt--;
    5eda:	91 50       	subi	r25, 0x01	; 1
    5edc:	90 93 3a 1f 	sts	0x1F3A, r25
	}
}
    5ee0:	ff 91       	pop	r31
    5ee2:	ef 91       	pop	r30
    5ee4:	9f 91       	pop	r25
    5ee6:	8f 91       	pop	r24
    5ee8:	0f 90       	pop	r0
    5eea:	0b be       	out	0x3b, r0	; 59
    5eec:	0f 90       	pop	r0
    5eee:	0f be       	out	0x3f, r0	; 63
    5ef0:	0f 90       	pop	r0
    5ef2:	1f 90       	pop	r1
    5ef4:	18 95       	reti

00005ef6 <__vector_51>:

/////////////////////////////////////////////////////////////////////////////////////////////////////////////////////////////////////
ISR(USART2_RX_vect) 	//AIH Interface
{
    5ef6:	1f 92       	push	r1
    5ef8:	0f 92       	push	r0
    5efa:	0f b6       	in	r0, 0x3f	; 63
    5efc:	0f 92       	push	r0
    5efe:	0b b6       	in	r0, 0x3b	; 59
    5f00:	0f 92       	push	r0
    5f02:	11 24       	eor	r1, r1
    5f04:	2f 93       	push	r18
    5f06:	8f 93       	push	r24
    5f08:	9f 93       	push	r25
    5f0a:	ef 93       	push	r30
    5f0c:	ff 93       	push	r31
U8	bStatus, bData;
	
	bStatus = UCSR2A;
    5f0e:	80 91 d0 00 	lds	r24, 0x00D0
	bData = UDR2;
    5f12:	20 91 d6 00 	lds	r18, 0x00D6
	
	if ( !( bStatus & ( FRAMING_ERROR | PARITY_ERROR | DATA_OVERRUN )) )
    5f16:	8c 71       	andi	r24, 0x1C	; 28
    5f18:	49 f5       	brne	.+82     	; 0x5f6c <__vector_51+0x76>
		if(DET_Rx2Cnt+1 >= _MAX_UART_DET_BUFF)
		{
			DET_Rx2Cnt=0;
		}
		
		if(Det_Modbus_Buf[Det_Reg_Status] == usart2_input_tx_complete)
    5f1a:	80 91 1a 15 	lds	r24, 0x151A
    5f1e:	90 91 1b 15 	lds	r25, 0x151B
    5f22:	81 30       	cpi	r24, 0x01	; 1
    5f24:	91 05       	cpc	r25, r1
    5f26:	31 f4       	brne	.+12     	; 0x5f34 <__vector_51+0x3e>
		{
			Rx2_input_Buf[DET_Rx2Cnt] = bData;
    5f28:	e0 91 9c 11 	lds	r30, 0x119C
    5f2c:	f0 e0       	ldi	r31, 0x00	; 0
    5f2e:	e3 56       	subi	r30, 0x63	; 99
    5f30:	fe 4e       	sbci	r31, 0xEE	; 238
    5f32:	13 c0       	rjmp	.+38     	; 0x5f5a <__vector_51+0x64>
		}
		else if(Det_Modbus_Buf[Det_Reg_Status] == usart2_holding_tx_complete)
    5f34:	85 30       	cpi	r24, 0x05	; 5
    5f36:	91 05       	cpc	r25, r1
    5f38:	31 f4       	brne	.+12     	; 0x5f46 <__vector_51+0x50>
		{
			Rx2_holding_Buf[DET_Rx2Cnt] = bData;
    5f3a:	e0 91 9c 11 	lds	r30, 0x119C
    5f3e:	f0 e0       	ldi	r31, 0x00	; 0
    5f40:	ec 5c       	subi	r30, 0xCC	; 204
    5f42:	fa 4e       	sbci	r31, 0xEA	; 234
    5f44:	0a c0       	rjmp	.+20     	; 0x5f5a <__vector_51+0x64>
		}
		else if(Det_Modbus_Buf[Det_Reg_Status] == usart2_write_s_tx_complete)
    5f46:	89 30       	cpi	r24, 0x09	; 9
    5f48:	91 05       	cpc	r25, r1
    5f4a:	11 f0       	breq	.+4      	; 0x5f50 <__vector_51+0x5a>
		{
			Rx2_write_rx_Buf[DET_Rx2Cnt] = bData;
		}
		else if(Det_Modbus_Buf[Det_Reg_Status] == usart2_write_m_tx_complete)
    5f4c:	0d 97       	sbiw	r24, 0x0d	; 13
    5f4e:	31 f4       	brne	.+12     	; 0x5f5c <__vector_51+0x66>
		{
			Rx2_write_rx_Buf[DET_Rx2Cnt] = bData;
    5f50:	e0 91 9c 11 	lds	r30, 0x119C
    5f54:	f0 e0       	ldi	r31, 0x00	; 0
    5f56:	ea 5e       	subi	r30, 0xEA	; 234
    5f58:	fc 4e       	sbci	r31, 0xEC	; 236
    5f5a:	20 83       	st	Z, r18
		{
			Rx2_write_rx_Buf[DET_Rx2Cnt] = bData;
		}
		*/
		
		DET_Rx2Cnt++;
    5f5c:	80 91 9c 11 	lds	r24, 0x119C
    5f60:	8f 5f       	subi	r24, 0xFF	; 255
    5f62:	80 93 9c 11 	sts	0x119C, r24
		
		Rx2_Packet_Check = 0x83; // 4ms
    5f66:	83 e8       	ldi	r24, 0x83	; 131
    5f68:	80 93 95 0f 	sts	0x0F95, r24
	}
}
    5f6c:	ff 91       	pop	r31
    5f6e:	ef 91       	pop	r30
    5f70:	9f 91       	pop	r25
    5f72:	8f 91       	pop	r24
    5f74:	2f 91       	pop	r18
    5f76:	0f 90       	pop	r0
    5f78:	0b be       	out	0x3b, r0	; 59
    5f7a:	0f 90       	pop	r0
    5f7c:	0f be       	out	0x3f, r0	; 63
    5f7e:	0f 90       	pop	r0
    5f80:	1f 90       	pop	r1
    5f82:	18 95       	reti

00005f84 <__vector_53>:

/////////////////////////////////////////////////////////////////////////////////////////////////////////////////////////////////////
ISR(USART2_TX_vect)
{
    5f84:	1f 92       	push	r1
    5f86:	0f 92       	push	r0
    5f88:	0f b6       	in	r0, 0x3f	; 63
    5f8a:	0f 92       	push	r0
    5f8c:	0b b6       	in	r0, 0x3b	; 59
    5f8e:	0f 92       	push	r0
    5f90:	11 24       	eor	r1, r1
    5f92:	8f 93       	push	r24
    5f94:	9f 93       	push	r25
    5f96:	ef 93       	push	r30
    5f98:	ff 93       	push	r31
	if( !Tx2Cnt )
    5f9a:	90 91 39 1e 	lds	r25, 0x1E39
    5f9e:	99 23       	and	r25, r25
    5fa0:	41 f4       	brne	.+16     	; 0x5fb2 <__vector_53+0x2e>
	{
		RS485_DIR_RX();
    5fa2:	80 91 02 01 	lds	r24, 0x0102
    5fa6:	87 7f       	andi	r24, 0xF7	; 247
    5fa8:	80 93 02 01 	sts	0x0102, r24
		Tx2BusyFlag = 0;
    5fac:	10 92 ae 18 	sts	0x18AE, r1
    5fb0:	0e c0       	rjmp	.+28     	; 0x5fce <__vector_53+0x4a>
	}
	else
	{
		UDR2 = *pTx2Buf++;
    5fb2:	e0 91 99 10 	lds	r30, 0x1099
    5fb6:	f0 91 9a 10 	lds	r31, 0x109A
    5fba:	81 91       	ld	r24, Z+
    5fbc:	80 93 d6 00 	sts	0x00D6, r24
    5fc0:	f0 93 9a 10 	sts	0x109A, r31
    5fc4:	e0 93 99 10 	sts	0x1099, r30
		Tx2Cnt--;
    5fc8:	91 50       	subi	r25, 0x01	; 1
    5fca:	90 93 39 1e 	sts	0x1E39, r25
	}
}
    5fce:	ff 91       	pop	r31
    5fd0:	ef 91       	pop	r30
    5fd2:	9f 91       	pop	r25
    5fd4:	8f 91       	pop	r24
    5fd6:	0f 90       	pop	r0
    5fd8:	0b be       	out	0x3b, r0	; 59
    5fda:	0f 90       	pop	r0
    5fdc:	0f be       	out	0x3f, r0	; 63
    5fde:	0f 90       	pop	r0
    5fe0:	1f 90       	pop	r1
    5fe2:	18 95       	reti

00005fe4 <Putchar_U0>:

/////////////////////////////////////////////////////////////////////////////////////////////////////////////////////////////////////
int Putchar_U0(char ch, FILE *stream)	 	//DBG
{
    5fe4:	1f 93       	push	r17
    5fe6:	18 2f       	mov	r17, r24
	if( ch == '\n' )
    5fe8:	8a 30       	cpi	r24, 0x0A	; 10
    5fea:	19 f4       	brne	.+6      	; 0x5ff2 <Putchar_U0+0xe>
	{
		Putchar_U0('\r', stream );         //  .
    5fec:	8d e0       	ldi	r24, 0x0D	; 13
    5fee:	0e 94 f2 2f 	call	0x5fe4	; 0x5fe4 <Putchar_U0>
	}

	while( !(UCSR0A & ( 1 << UDRE0 )) );   //Uart Tx Buff Not Empty
    5ff2:	80 91 c0 00 	lds	r24, 0x00C0
    5ff6:	85 ff       	sbrs	r24, 5
    5ff8:	fc cf       	rjmp	.-8      	; 0x5ff2 <Putchar_U0+0xe>
	UDR0 = ch;                             //Uart Tx Buff Transmitts
    5ffa:	10 93 c6 00 	sts	0x00C6, r17

	return 0 ;
}
    5ffe:	80 e0       	ldi	r24, 0x00	; 0
    6000:	90 e0       	ldi	r25, 0x00	; 0
    6002:	1f 91       	pop	r17
    6004:	08 95       	ret

00006006 <USART1_Rx_Packet_Check>:

/////////////////////////////////////////////////////////////////////////////////////////////////////////////////////////////////////
void USART1_Rx_Packet_Check( void )
{
	if( Rx1_Packet_Check & 0x80 )
    6006:	80 91 af 18 	lds	r24, 0x18AF
    600a:	87 ff       	sbrs	r24, 7
    600c:	33 c0       	rjmp	.+102    	; 0x6074 <USART1_Rx_Packet_Check+0x6e>
	{
		if( Rx1_Packet_Check == 0x80 )
    600e:	80 38       	cpi	r24, 0x80	; 128
    6010:	71 f5       	brne	.+92     	; 0x606e <USART1_Rx_Packet_Check+0x68>
		{
			Rx1_Packet_Check = 0;
    6012:	10 92 af 18 	sts	0x18AF, r1

			if( Rx1Cnt > 7 )
    6016:	80 91 ad 18 	lds	r24, 0x18AD
    601a:	88 30       	cpi	r24, 0x08	; 8
    601c:	28 f1       	brcs	.+74     	; 0x6068 <USART1_Rx_Packet_Check+0x62>
			{
				if( Rx1Buf[Rx1FifoHp&1][0] == Dvc_Address )
    601e:	20 91 17 15 	lds	r18, 0x1517
    6022:	e2 2f       	mov	r30, r18
    6024:	f0 e0       	ldi	r31, 0x00	; 0
    6026:	e1 70       	andi	r30, 0x01	; 1
    6028:	f0 70       	andi	r31, 0x00	; 0
    602a:	fe 2f       	mov	r31, r30
    602c:	ee 27       	eor	r30, r30
    602e:	e7 5c       	subi	r30, 0xC7	; 199
    6030:	f5 4e       	sbci	r31, 0xE5	; 229
    6032:	90 81       	ld	r25, Z
    6034:	80 91 fa 0e 	lds	r24, 0x0EFA
    6038:	98 17       	cp	r25, r24
    603a:	71 f4       	brne	.+28     	; 0x6058 <USART1_Rx_Packet_Check+0x52>
				{
					sTimerTick[TMR_MODBUS_TIMEOUT] = 0x8000+99; // 100ms
    603c:	83 e6       	ldi	r24, 0x63	; 99
    603e:	90 e8       	ldi	r25, 0x80	; 128
    6040:	90 93 1e 0f 	sts	0x0F1E, r25
    6044:	80 93 1d 0f 	sts	0x0F1D, r24
					sTimerFlag[TMR_MODBUS_TIMEOUT] = 0;
    6048:	10 92 48 0f 	sts	0x0F48, r1
    604c:	10 92 47 0f 	sts	0x0F47, r1
					Rx1FifoHp++;
    6050:	2f 5f       	subi	r18, 0xFF	; 255
    6052:	20 93 17 15 	sts	0x1517, r18
    6056:	08 c0       	rjmp	.+16     	; 0x6068 <USART1_Rx_Packet_Check+0x62>
				}
				else
				{
					sTimerTick[TMR_MODBUS_TIMEOUT] = 0;
    6058:	10 92 1e 0f 	sts	0x0F1E, r1
    605c:	10 92 1d 0f 	sts	0x0F1D, r1
					sTimerFlag[TMR_MODBUS_TIMEOUT] = 0;
    6060:	10 92 48 0f 	sts	0x0F48, r1
    6064:	10 92 47 0f 	sts	0x0F47, r1
				}
			}
			Rx1Cnt = 0;
    6068:	10 92 ad 18 	sts	0x18AD, r1
    606c:	08 95       	ret
		}
		else
		{
			Rx1_Packet_Check--;
    606e:	81 50       	subi	r24, 0x01	; 1
    6070:	80 93 af 18 	sts	0x18AF, r24
    6074:	08 95       	ret

00006076 <USART1_Packet_Send>:
}


/////////////////////////////////////////////////////////////////////////////////////////////////////////////////////////////////////
void USART1_Packet_Send( U8 *pData, U8 Len )
{
    6076:	cf 93       	push	r28
    6078:	df 93       	push	r29
    607a:	ec 01       	movw	r28, r24
	U16		i;
	
	sTimerTick[TMR_MODBUS_TIMEOUT] = 0;
    607c:	10 92 1e 0f 	sts	0x0F1E, r1
    6080:	10 92 1d 0f 	sts	0x0F1D, r1
	
	if( sTimerFlag[TMR_MODBUS_TIMEOUT] ){
    6084:	80 91 47 0f 	lds	r24, 0x0F47
    6088:	90 91 48 0f 	lds	r25, 0x0F48
    608c:	89 2b       	or	r24, r25
    608e:	29 f0       	breq	.+10     	; 0x609a <USART1_Packet_Send+0x24>
		sTimerFlag[TMR_MODBUS_TIMEOUT] = 0;
    6090:	10 92 48 0f 	sts	0x0F48, r1
    6094:	10 92 47 0f 	sts	0x0F47, r1
    6098:	2b c0       	rjmp	.+86     	; 0x60f0 <USART1_Packet_Send+0x7a>
	}
	else {
		if( !Tx1BusyFlag ){
    609a:	80 91 16 15 	lds	r24, 0x1516
    609e:	88 23       	and	r24, r24
    60a0:	39 f5       	brne	.+78     	; 0x60f0 <USART1_Packet_Send+0x7a>
			MODBUS_DIR_TX();
    60a2:	80 91 02 01 	lds	r24, 0x0102
    60a6:	84 60       	ori	r24, 0x04	; 4
    60a8:	80 93 02 01 	sts	0x0102, r24
    60ac:	20 e0       	ldi	r18, 0x00	; 0
    60ae:	30 e0       	ldi	r19, 0x00	; 0
			for( i=0; i<Len; i++ ){
    60b0:	46 2f       	mov	r20, r22
    60b2:	50 e0       	ldi	r21, 0x00	; 0
    60b4:	0a c0       	rjmp	.+20     	; 0x60ca <USART1_Packet_Send+0x54>
				Tx1Buf[i] = *(pData+i);
    60b6:	f9 01       	movw	r30, r18
    60b8:	e5 56       	subi	r30, 0x65	; 101
    60ba:	ff 4e       	sbci	r31, 0xEF	; 239
    60bc:	de 01       	movw	r26, r28
    60be:	a2 0f       	add	r26, r18
    60c0:	b3 1f       	adc	r27, r19
    60c2:	8c 91       	ld	r24, X
    60c4:	80 83       	st	Z, r24
		sTimerFlag[TMR_MODBUS_TIMEOUT] = 0;
	}
	else {
		if( !Tx1BusyFlag ){
			MODBUS_DIR_TX();
			for( i=0; i<Len; i++ ){
    60c6:	2f 5f       	subi	r18, 0xFF	; 255
    60c8:	3f 4f       	sbci	r19, 0xFF	; 255
    60ca:	24 17       	cp	r18, r20
    60cc:	35 07       	cpc	r19, r21
    60ce:	98 f3       	brcs	.-26     	; 0x60b6 <USART1_Packet_Send+0x40>
				Tx1Buf[i] = *(pData+i);
			}
			pTx1Buf = Tx1Buf;
			Tx1Cnt = Len-1;
    60d0:	61 50       	subi	r22, 0x01	; 1
    60d2:	60 93 3a 1f 	sts	0x1F3A, r22
			UDR1 = *pTx1Buf++;
    60d6:	80 91 9b 10 	lds	r24, 0x109B
    60da:	80 93 ce 00 	sts	0x00CE, r24
    60de:	8c e9       	ldi	r24, 0x9C	; 156
    60e0:	90 e1       	ldi	r25, 0x10	; 16
    60e2:	90 93 15 13 	sts	0x1315, r25
    60e6:	80 93 14 13 	sts	0x1314, r24
			Tx1BusyFlag = 1;
    60ea:	81 e0       	ldi	r24, 0x01	; 1
    60ec:	80 93 16 15 	sts	0x1516, r24
		}
	}
}
    60f0:	df 91       	pop	r29
    60f2:	cf 91       	pop	r28
    60f4:	08 95       	ret

000060f6 <USART2_Packet_Send>:
	}
}

/////////////////////////////////////////////////////////////////////////////////////////////////////////////////////////////////////
void USART2_Packet_Send( U8 *pData, U8 Len )
{
    60f6:	cf 93       	push	r28
    60f8:	df 93       	push	r29
    60fa:	ec 01       	movw	r28, r24
U16 i;
	if( !Tx2BusyFlag ){
    60fc:	80 91 ae 18 	lds	r24, 0x18AE
    6100:	88 23       	and	r24, r24
    6102:	39 f5       	brne	.+78     	; 0x6152 <USART2_Packet_Send+0x5c>
		RS485_DIR_TX();
    6104:	80 91 02 01 	lds	r24, 0x0102
    6108:	88 60       	ori	r24, 0x08	; 8
    610a:	80 93 02 01 	sts	0x0102, r24
    610e:	20 e0       	ldi	r18, 0x00	; 0
    6110:	30 e0       	ldi	r19, 0x00	; 0
		for( i=0; i<Len; i++ ){
    6112:	46 2f       	mov	r20, r22
    6114:	50 e0       	ldi	r21, 0x00	; 0
    6116:	0a c0       	rjmp	.+20     	; 0x612c <USART2_Packet_Send+0x36>
			Tx2Buf[i] = *(pData+i);
    6118:	f9 01       	movw	r30, r18
    611a:	e6 5c       	subi	r30, 0xC6	; 198
    611c:	f1 4e       	sbci	r31, 0xE1	; 225
    611e:	de 01       	movw	r26, r28
    6120:	a2 0f       	add	r26, r18
    6122:	b3 1f       	adc	r27, r19
    6124:	8c 91       	ld	r24, X
    6126:	80 83       	st	Z, r24
void USART2_Packet_Send( U8 *pData, U8 Len )
{
U16 i;
	if( !Tx2BusyFlag ){
		RS485_DIR_TX();
		for( i=0; i<Len; i++ ){
    6128:	2f 5f       	subi	r18, 0xFF	; 255
    612a:	3f 4f       	sbci	r19, 0xFF	; 255
    612c:	24 17       	cp	r18, r20
    612e:	35 07       	cpc	r19, r21
    6130:	98 f3       	brcs	.-26     	; 0x6118 <USART2_Packet_Send+0x22>
			Tx2Buf[i] = *(pData+i);
		}
		pTx2Buf = Tx2Buf;
		Tx2Cnt = Len-1;
    6132:	61 50       	subi	r22, 0x01	; 1
    6134:	60 93 39 1e 	sts	0x1E39, r22
		UDR2 = *pTx2Buf++;
    6138:	80 91 3a 1e 	lds	r24, 0x1E3A
    613c:	80 93 d6 00 	sts	0x00D6, r24
    6140:	8b e3       	ldi	r24, 0x3B	; 59
    6142:	9e e1       	ldi	r25, 0x1E	; 30
    6144:	90 93 9a 10 	sts	0x109A, r25
    6148:	80 93 99 10 	sts	0x1099, r24
		Tx2BusyFlag = 1;
    614c:	81 e0       	ldi	r24, 0x01	; 1
    614e:	80 93 ae 18 	sts	0x18AE, r24
	}
}
    6152:	df 91       	pop	r29
    6154:	cf 91       	pop	r28
    6156:	08 95       	ret

00006158 <modbus_mapping>:
void modbus_mapping(void)
{
U8	i;
	
	//DPRINT1("WRF C 3 = %d\n",Det_Modbus_Buf[Det_Reg_Status] );
	switch(Det_Modbus_Buf[Det_Reg_Status]){
    6158:	80 91 1a 15 	lds	r24, 0x151A
    615c:	90 91 1b 15 	lds	r25, 0x151B
    6160:	86 30       	cpi	r24, 0x06	; 6
    6162:	91 05       	cpc	r25, r1
    6164:	39 f1       	breq	.+78     	; 0x61b4 <modbus_mapping+0x5c>
    6166:	87 30       	cpi	r24, 0x07	; 7
    6168:	91 05       	cpc	r25, r1
    616a:	20 f4       	brcc	.+8      	; 0x6174 <modbus_mapping+0x1c>
    616c:	02 97       	sbiw	r24, 0x02	; 2
    616e:	09 f0       	breq	.+2      	; 0x6172 <modbus_mapping+0x1a>
    6170:	88 c0       	rjmp	.+272    	; 0x6282 <modbus_mapping+0x12a>
    6172:	08 c0       	rjmp	.+16     	; 0x6184 <modbus_mapping+0x2c>
    6174:	8a 30       	cpi	r24, 0x0A	; 10
    6176:	91 05       	cpc	r25, r1
    6178:	09 f4       	brne	.+2      	; 0x617c <modbus_mapping+0x24>
    617a:	66 c0       	rjmp	.+204    	; 0x6248 <modbus_mapping+0xf0>
    617c:	0e 97       	sbiw	r24, 0x0e	; 14
    617e:	09 f0       	breq	.+2      	; 0x6182 <modbus_mapping+0x2a>
    6180:	80 c0       	rjmp	.+256    	; 0x6282 <modbus_mapping+0x12a>
    6182:	73 c0       	rjmp	.+230    	; 0x626a <modbus_mapping+0x112>
    6184:	e0 ea       	ldi	r30, 0xA0	; 160
    6186:	f1 e1       	ldi	r31, 0x11	; 17
    6188:	a9 e9       	ldi	r26, 0x99	; 153
    618a:	bf e0       	ldi	r27, 0x0F	; 15
		case usart2_input_rx_complete:
			for(i = 0; i < INPUT_REG_MAX_CNT + 1; i++)
			{
				Det_Input_Reg_Data[i] = (Rx2_input_Buf[ (i * 2) + 3] << 8) | Rx2_input_Buf[ (i * 2) + 4];
    618c:	30 81       	ld	r19, Z
    618e:	20 e0       	ldi	r18, 0x00	; 0
    6190:	81 81       	ldd	r24, Z+1	; 0x01
    6192:	90 e0       	ldi	r25, 0x00	; 0
    6194:	82 2b       	or	r24, r18
    6196:	93 2b       	or	r25, r19
    6198:	8d 93       	st	X+, r24
    619a:	9d 93       	st	X+, r25
    619c:	32 96       	adiw	r30, 0x02	; 2
U8	i;
	
	//DPRINT1("WRF C 3 = %d\n",Det_Modbus_Buf[Det_Reg_Status] );
	switch(Det_Modbus_Buf[Det_Reg_Status]){
		case usart2_input_rx_complete:
			for(i = 0; i < INPUT_REG_MAX_CNT + 1; i++)
    619e:	82 e1       	ldi	r24, 0x12	; 18
    61a0:	e4 32       	cpi	r30, 0x24	; 36
    61a2:	f8 07       	cpc	r31, r24
    61a4:	99 f7       	brne	.-26     	; 0x618c <modbus_mapping+0x34>
			{
				Det_Input_Reg_Data[i] = (Rx2_input_Buf[ (i * 2) + 3] << 8) | Rx2_input_Buf[ (i * 2) + 4];
			}
			Det_Modbus_Buf[Det_Reg_Status] = usart2_input_complete_delay;
    61a6:	83 e0       	ldi	r24, 0x03	; 3
    61a8:	90 e0       	ldi	r25, 0x00	; 0
    61aa:	90 93 1b 15 	sts	0x151B, r25
    61ae:	80 93 1a 15 	sts	0x151A, r24
    61b2:	54 c0       	rjmp	.+168    	; 0x625c <modbus_mapping+0x104>
			sTimerFlag[TMR_MODBUS_DELAY] = 1;
			break;
		case usart2_holding_rx_complete:
			if(Det_Modbus_Buf[Det_Hoding_Read_Cnt] == 0){
    61b4:	20 91 26 15 	lds	r18, 0x1526
    61b8:	30 91 27 15 	lds	r19, 0x1527
    61bc:	21 15       	cp	r18, r1
    61be:	31 05       	cpc	r19, r1
    61c0:	f1 f4       	brne	.+60     	; 0x61fe <modbus_mapping+0xa6>
    61c2:	e7 e3       	ldi	r30, 0x37	; 55
    61c4:	f5 e1       	ldi	r31, 0x15	; 21
    61c6:	a9 e3       	ldi	r26, 0x39	; 57
    61c8:	bc e1       	ldi	r27, 0x1C	; 28
				for(i = 0; i < HOLDING_REG_MAX_CNT; i++)
				{
					Det_Holding_Reg_Data[i + (HOLDING_REG_MAX_CNT * Det_Modbus_Buf[Det_Hoding_Read_Cnt])] = (Rx2_holding_Buf[ (i * 2) + 3] << 8) | Rx2_holding_Buf[ (i * 2) + 4];
    61ca:	30 81       	ld	r19, Z
    61cc:	20 e0       	ldi	r18, 0x00	; 0
    61ce:	81 81       	ldd	r24, Z+1	; 0x01
    61d0:	90 e0       	ldi	r25, 0x00	; 0
    61d2:	82 2b       	or	r24, r18
    61d4:	93 2b       	or	r25, r19
    61d6:	8d 93       	st	X+, r24
    61d8:	9d 93       	st	X+, r25
    61da:	32 96       	adiw	r30, 0x02	; 2
			Det_Modbus_Buf[Det_Reg_Status] = usart2_input_complete_delay;
			sTimerFlag[TMR_MODBUS_DELAY] = 1;
			break;
		case usart2_holding_rx_complete:
			if(Det_Modbus_Buf[Det_Hoding_Read_Cnt] == 0){
				for(i = 0; i < HOLDING_REG_MAX_CNT; i++)
    61dc:	86 e1       	ldi	r24, 0x16	; 22
    61de:	ed 30       	cpi	r30, 0x0D	; 13
    61e0:	f8 07       	cpc	r31, r24
    61e2:	99 f7       	brne	.-26     	; 0x61ca <modbus_mapping+0x72>
				{
					Det_Holding_Reg_Data[i + (HOLDING_REG_MAX_CNT * Det_Modbus_Buf[Det_Hoding_Read_Cnt])] = (Rx2_holding_Buf[ (i * 2) + 3] << 8) | Rx2_holding_Buf[ (i * 2) + 4];
				}
					Det_Modbus_Buf[Det_Reg_Status] = usart2_input_complete_delay;
    61e4:	83 e0       	ldi	r24, 0x03	; 3
    61e6:	90 e0       	ldi	r25, 0x00	; 0
    61e8:	90 93 1b 15 	sts	0x151B, r25
    61ec:	80 93 1a 15 	sts	0x151A, r24
				Det_Modbus_Buf[Det_Hoding_Read_Cnt] = 1;
    61f0:	81 e0       	ldi	r24, 0x01	; 1
    61f2:	90 e0       	ldi	r25, 0x00	; 0
    61f4:	90 93 27 15 	sts	0x1527, r25
    61f8:	80 93 26 15 	sts	0x1526, r24
    61fc:	2f c0       	rjmp	.+94     	; 0x625c <modbus_mapping+0x104>
    61fe:	e7 e3       	ldi	r30, 0x37	; 55
    6200:	f5 e1       	ldi	r31, 0x15	; 21
    6202:	86 ed       	ldi	r24, 0xD6	; 214
    6204:	90 e0       	ldi	r25, 0x00	; 0
    6206:	28 9f       	mul	r18, r24
    6208:	d0 01       	movw	r26, r0
    620a:	29 9f       	mul	r18, r25
    620c:	b0 0d       	add	r27, r0
    620e:	38 9f       	mul	r19, r24
    6210:	b0 0d       	add	r27, r0
    6212:	11 24       	eor	r1, r1
    6214:	a7 5c       	subi	r26, 0xC7	; 199
    6216:	b3 4e       	sbci	r27, 0xE3	; 227
			}
			else{
				for(i = 0; i < HOLDING_REG_MAX_CNT + 1; i++)
				{
					Det_Holding_Reg_Data[i + (HOLDING_REG_MAX_CNT * Det_Modbus_Buf[Det_Hoding_Read_Cnt])] = (Rx2_holding_Buf[ (i * 2) + 3] << 8) | Rx2_holding_Buf[ (i * 2) + 4];
    6218:	30 81       	ld	r19, Z
    621a:	20 e0       	ldi	r18, 0x00	; 0
    621c:	81 81       	ldd	r24, Z+1	; 0x01
    621e:	90 e0       	ldi	r25, 0x00	; 0
    6220:	82 2b       	or	r24, r18
    6222:	93 2b       	or	r25, r19
    6224:	8d 93       	st	X+, r24
    6226:	9d 93       	st	X+, r25
    6228:	32 96       	adiw	r30, 0x02	; 2
				}
					Det_Modbus_Buf[Det_Reg_Status] = usart2_input_complete_delay;
				Det_Modbus_Buf[Det_Hoding_Read_Cnt] = 1;
			}
			else{
				for(i = 0; i < HOLDING_REG_MAX_CNT + 1; i++)
    622a:	86 e1       	ldi	r24, 0x16	; 22
    622c:	ef 30       	cpi	r30, 0x0F	; 15
    622e:	f8 07       	cpc	r31, r24
    6230:	99 f7       	brne	.-26     	; 0x6218 <modbus_mapping+0xc0>
				{
					Det_Holding_Reg_Data[i + (HOLDING_REG_MAX_CNT * Det_Modbus_Buf[Det_Hoding_Read_Cnt])] = (Rx2_holding_Buf[ (i * 2) + 3] << 8) | Rx2_holding_Buf[ (i * 2) + 4];
				}
				Det_Modbus_Buf[Det_Reg_Status] = usart2_holding_complete_delay;
    6232:	87 e0       	ldi	r24, 0x07	; 7
    6234:	90 e0       	ldi	r25, 0x00	; 0
    6236:	90 93 1b 15 	sts	0x151B, r25
    623a:	80 93 1a 15 	sts	0x151A, r24
				Det_Modbus_Buf[Det_Hoding_Read_Cnt] = 0;
    623e:	10 92 27 15 	sts	0x1527, r1
    6242:	10 92 26 15 	sts	0x1526, r1
    6246:	0a c0       	rjmp	.+20     	; 0x625c <modbus_mapping+0x104>
			}
			sTimerFlag[TMR_MODBUS_DELAY] = 1;
			break;
		case usart2_write_s_rx_complete:
			Det_Modbus_Buf[Det_Reg_Status] = usart2_write_s_complete_delay;
    6248:	8b e0       	ldi	r24, 0x0B	; 11
    624a:	90 e0       	ldi	r25, 0x00	; 0
    624c:	90 93 1b 15 	sts	0x151B, r25
    6250:	80 93 1a 15 	sts	0x151A, r24
			Det_Modbus_Buf[Det_Write_Register_Set_Flag] = 0;
    6254:	10 92 29 15 	sts	0x1529, r1
    6258:	10 92 28 15 	sts	0x1528, r1
			sTimerFlag[TMR_MODBUS_DELAY] = 1;
    625c:	81 e0       	ldi	r24, 0x01	; 1
    625e:	90 e0       	ldi	r25, 0x00	; 0
    6260:	90 93 4a 0f 	sts	0x0F4A, r25
    6264:	80 93 49 0f 	sts	0x0F49, r24
    6268:	08 95       	ret
			break;
		case usart2_write_m_rx_complete:
			Det_Modbus_Buf[Det_Reg_Status] = usart2_write_m_complete_delay;
    626a:	8f e0       	ldi	r24, 0x0F	; 15
    626c:	90 e0       	ldi	r25, 0x00	; 0
    626e:	90 93 1b 15 	sts	0x151B, r25
    6272:	80 93 1a 15 	sts	0x151A, r24
			sTimerFlag[TMR_MODBUS_DELAY] = 1;
    6276:	81 e0       	ldi	r24, 0x01	; 1
    6278:	90 e0       	ldi	r25, 0x00	; 0
    627a:	90 93 4a 0f 	sts	0x0F4A, r25
    627e:	80 93 49 0f 	sts	0x0F49, r24
    6282:	08 95       	ret

00006284 <modbus_holding_mapping>:
	}
}

void modbus_holding_mapping(void)
{
	det_ir_reponsivity_466 = Det_Holding_Reg_Data[DET_EEP_CAL_BUF_IR430_RESPONSIVITY];
    6284:	80 91 89 1c 	lds	r24, 0x1C89
    6288:	90 91 8a 1c 	lds	r25, 0x1C8A
    628c:	90 93 3f 0a 	sts	0x0A3F, r25
    6290:	80 93 3e 0a 	sts	0x0A3E, r24
	alm_relay_operation = Det_Holding_Reg_Data[DET_EEP_ALM_RLY_OPERATION];
    6294:	80 91 83 1c 	lds	r24, 0x1C83
    6298:	80 93 37 0a 	sts	0x0A37, r24
	trb_relay_operation = Det_Holding_Reg_Data[DET_EEP_TRB_RLY_OPERATION];
    629c:	80 91 85 1c 	lds	r24, 0x1C85
    62a0:	80 93 34 0a 	sts	0x0A34, r24
	bit_operation = Det_Holding_Reg_Data[DET_EEP_BIT_MODE];
    62a4:	80 91 45 1c 	lds	r24, 0x1C45
    62a8:	80 93 b0 0a 	sts	0x0AB0, r24
	det_pwr_ctr_value = Det_Holding_Reg_Data[DET_EEP_UV_PWR_CTRL];
    62ac:	80 91 47 1c 	lds	r24, 0x1C47
    62b0:	80 93 80 0a 	sts	0x0A80, r24
	det_log_mode_value = Det_Holding_Reg_Data[DET_EEP_LOG_MODE];
    62b4:	80 91 43 1c 	lds	r24, 0x1C43
    62b8:	80 93 f6 0a 	sts	0x0AF6, r24
}
    62bc:	08 95       	ret

000062be <Communication_Handler>:
}

/////////////////////////////////////////////////////////////////////////////////////////////////////////////////////////////////////
void Communication_Handler(void)
{
	if(sTimerFlag[TMR_MODBUS_START_FLAG]){
    62be:	80 91 45 0f 	lds	r24, 0x0F45
    62c2:	90 91 46 0f 	lds	r25, 0x0F46
    62c6:	89 2b       	or	r24, r25
    62c8:	09 f4       	brne	.+2      	; 0x62cc <Communication_Handler+0xe>
    62ca:	c7 c1       	rjmp	.+910    	; 0x665a <Communication_Handler+0x39c>
		sTimerFlag[TMR_MODBUS_START_FLAG] = 0;
    62cc:	10 92 46 0f 	sts	0x0F46, r1
    62d0:	10 92 45 0f 	sts	0x0F45, r1
		
		switch(sTimerFlag[TMR_MODBUS_START]){
    62d4:	40 91 43 0f 	lds	r20, 0x0F43
    62d8:	50 91 44 0f 	lds	r21, 0x0F44
    62dc:	46 30       	cpi	r20, 0x06	; 6
    62de:	51 05       	cpc	r21, r1
    62e0:	09 f4       	brne	.+2      	; 0x62e4 <Communication_Handler+0x26>
    62e2:	de c0       	rjmp	.+444    	; 0x64a0 <Communication_Handler+0x1e2>
    62e4:	47 30       	cpi	r20, 0x07	; 7
    62e6:	51 05       	cpc	r21, r1
    62e8:	50 f4       	brcc	.+20     	; 0x62fe <Communication_Handler+0x40>
    62ea:	44 30       	cpi	r20, 0x04	; 4
    62ec:	51 05       	cpc	r21, r1
    62ee:	69 f1       	breq	.+90     	; 0x634a <Communication_Handler+0x8c>
    62f0:	45 30       	cpi	r20, 0x05	; 5
    62f2:	51 05       	cpc	r21, r1
    62f4:	08 f0       	brcs	.+2      	; 0x62f8 <Communication_Handler+0x3a>
    62f6:	ad c0       	rjmp	.+346    	; 0x6452 <Communication_Handler+0x194>
    62f8:	45 2b       	or	r20, r21
    62fa:	b1 f0       	breq	.+44     	; 0x6328 <Communication_Handler+0x6a>
    62fc:	08 95       	ret
    62fe:	4c 30       	cpi	r20, 0x0C	; 12
    6300:	51 05       	cpc	r21, r1
    6302:	09 f4       	brne	.+2      	; 0x6306 <Communication_Handler+0x48>
    6304:	30 c1       	rjmp	.+608    	; 0x6566 <Communication_Handler+0x2a8>
    6306:	4d 30       	cpi	r20, 0x0D	; 13
    6308:	51 05       	cpc	r21, r1
    630a:	28 f4       	brcc	.+10     	; 0x6316 <Communication_Handler+0x58>
    630c:	48 30       	cpi	r20, 0x08	; 8
    630e:	51 05       	cpc	r21, r1
    6310:	09 f0       	breq	.+2      	; 0x6314 <Communication_Handler+0x56>
    6312:	a3 c1       	rjmp	.+838    	; 0x665a <Communication_Handler+0x39c>
    6314:	0b c1       	rjmp	.+534    	; 0x652c <Communication_Handler+0x26e>
    6316:	42 31       	cpi	r20, 0x12	; 18
    6318:	51 05       	cpc	r21, r1
    631a:	09 f4       	brne	.+2      	; 0x631e <Communication_Handler+0x60>
    631c:	58 c1       	rjmp	.+688    	; 0x65ce <Communication_Handler+0x310>
    631e:	43 31       	cpi	r20, 0x13	; 19
    6320:	51 05       	cpc	r21, r1
    6322:	09 f0       	breq	.+2      	; 0x6326 <Communication_Handler+0x68>
    6324:	9a c1       	rjmp	.+820    	; 0x665a <Communication_Handler+0x39c>
    6326:	5a c1       	rjmp	.+692    	; 0x65dc <Communication_Handler+0x31e>
			case 0:		// 0ms
				Det_Modbus_Buf[Det_Reg_Status] = usart2_input_ready;
    6328:	10 92 1b 15 	sts	0x151B, r1
    632c:	10 92 1a 15 	sts	0x151A, r1
				Det_Modbus_Buf[Det_Comm_Flow_Set] = Det_Modbus_Buf[Det_Comm_Flow];
    6330:	80 91 1e 15 	lds	r24, 0x151E
    6334:	90 91 1f 15 	lds	r25, 0x151F
    6338:	90 93 21 15 	sts	0x1521, r25
    633c:	80 93 20 15 	sts	0x1520, r24
				Det_Modbus_Buf[Det_Comm_Flow] = 0;
    6340:	10 92 1f 15 	sts	0x151F, r1
    6344:	10 92 1e 15 	sts	0x151E, r1
    6348:	08 95       	ret
				break;
			case 4:		// 200ms
				if(Det_Modbus_Buf[Det_Comm_Flow_Set] == Commnication_Normal){
    634a:	20 91 20 15 	lds	r18, 0x1520
    634e:	30 91 21 15 	lds	r19, 0x1521
    6352:	21 15       	cp	r18, r1
    6354:	31 05       	cpc	r19, r1
    6356:	81 f4       	brne	.+32     	; 0x6378 <Communication_Handler+0xba>
					if(Det_Modbus_Buf[Det_Write_Register_Flag] == 0){
    6358:	80 91 2a 15 	lds	r24, 0x152A
    635c:	90 91 2b 15 	lds	r25, 0x152B
    6360:	89 2b       	or	r24, r25
    6362:	09 f0       	breq	.+2      	; 0x6366 <Communication_Handler+0xa8>
    6364:	7a c1       	rjmp	.+756    	; 0x665a <Communication_Handler+0x39c>
						Det_Modbus_Buf[Det_Reg_Status] = usart2_holding_ready;
    6366:	50 93 1b 15 	sts	0x151B, r21
    636a:	40 93 1a 15 	sts	0x151A, r20
						Det_Modbus_Buf[Det_Hoding_Read_Cnt] = 0;
    636e:	10 92 27 15 	sts	0x1527, r1
    6372:	10 92 26 15 	sts	0x1526, r1
    6376:	08 95       	ret
					}
				}
				else if(Det_Modbus_Buf[Det_Comm_Flow_Set] == Commnication_Default_Set){
    6378:	21 30       	cpi	r18, 0x01	; 1
    637a:	31 05       	cpc	r19, r1
    637c:	79 f4       	brne	.+30     	; 0x639c <Communication_Handler+0xde>
					Det_Modbus_Buf[Det_Reg_Status] = usart2_write_s_ready;
    637e:	88 e0       	ldi	r24, 0x08	; 8
    6380:	90 e0       	ldi	r25, 0x00	; 0
    6382:	90 93 1b 15 	sts	0x151B, r25
    6386:	80 93 1a 15 	sts	0x151A, r24
	}
}

void Det_Write_Single_Func(U16 addr, S16 data)
{
	Det_Modbus_Buf[Det_Write_Register_Addr] = addr;
    638a:	8a e1       	ldi	r24, 0x1A	; 26
    638c:	90 e0       	ldi	r25, 0x00	; 0
    638e:	90 93 2d 15 	sts	0x152D, r25
    6392:	80 93 2c 15 	sts	0x152C, r24
	Det_Modbus_Buf[Det_Write_Register_Data] = data;
    6396:	80 eb       	ldi	r24, 0xB0	; 176
    6398:	94 e0       	ldi	r25, 0x04	; 4
    639a:	10 c1       	rjmp	.+544    	; 0x65bc <Communication_Handler+0x2fe>
				}
				else if(Det_Modbus_Buf[Det_Comm_Flow_Set] == Commnication_Default_Set){
					Det_Modbus_Buf[Det_Reg_Status] = usart2_write_s_ready;
					Det_Write_Single_Func(DET_EEP_UV_DET_LMT,1200);
				}
				else if(Det_Modbus_Buf[Det_Comm_Flow_Set] == Commnication_UV_Calribration_Ready){
    639c:	23 30       	cpi	r18, 0x03	; 3
    639e:	31 05       	cpc	r19, r1
    63a0:	89 f4       	brne	.+34     	; 0x63c4 <Communication_Handler+0x106>
					Det_Modbus_Buf[Det_Reg_Status] = usart2_write_s_ready;
    63a2:	88 e0       	ldi	r24, 0x08	; 8
    63a4:	90 e0       	ldi	r25, 0x00	; 0
    63a6:	90 93 1b 15 	sts	0x151B, r25
    63aa:	80 93 1a 15 	sts	0x151A, r24
	}
}

void Det_Write_Single_Func(U16 addr, S16 data)
{
	Det_Modbus_Buf[Det_Write_Register_Addr] = addr;
    63ae:	87 e0       	ldi	r24, 0x07	; 7
    63b0:	90 e0       	ldi	r25, 0x00	; 0
    63b2:	90 93 2d 15 	sts	0x152D, r25
    63b6:	80 93 2c 15 	sts	0x152C, r24
	Det_Modbus_Buf[Det_Write_Register_Data] = data;
    63ba:	10 92 2f 15 	sts	0x152F, r1
    63be:	10 92 2e 15 	sts	0x152E, r1
    63c2:	b1 c0       	rjmp	.+354    	; 0x6526 <Communication_Handler+0x268>
				}
				else if(Det_Modbus_Buf[Det_Comm_Flow_Set] == Commnication_UV_Calribration_Ready){
					Det_Modbus_Buf[Det_Reg_Status] = usart2_write_s_ready;
					Det_Write_Single_Func(DET_EEP_UV_PWR_CTRL,0);
				}
				else if(Det_Modbus_Buf[Det_Comm_Flow_Set] == Commnication_UV_Calribration_Set){
    63c4:	24 30       	cpi	r18, 0x04	; 4
    63c6:	31 05       	cpc	r19, r1
    63c8:	69 f4       	brne	.+26     	; 0x63e4 <Communication_Handler+0x126>
					Det_Modbus_Buf[Det_Reg_Status] = usart2_write_s_ready;
    63ca:	88 e0       	ldi	r24, 0x08	; 8
    63cc:	90 e0       	ldi	r25, 0x00	; 0
    63ce:	90 93 1b 15 	sts	0x151B, r25
    63d2:	80 93 1a 15 	sts	0x151A, r24
					Det_Write_Single_Func(DET_EEP_UV_DET_LMT,uv_det_limit);
    63d6:	20 91 d1 0a 	lds	r18, 0x0AD1
    63da:	30 91 d2 0a 	lds	r19, 0x0AD2
	}
}

void Det_Write_Single_Func(U16 addr, S16 data)
{
	Det_Modbus_Buf[Det_Write_Register_Addr] = addr;
    63de:	8a e1       	ldi	r24, 0x1A	; 26
    63e0:	90 e0       	ldi	r25, 0x00	; 0
    63e2:	99 c0       	rjmp	.+306    	; 0x6516 <Communication_Handler+0x258>
				}
				else if(Det_Modbus_Buf[Det_Comm_Flow_Set] == Commnication_UV_Calribration_Set){
					Det_Modbus_Buf[Det_Reg_Status] = usart2_write_s_ready;
					Det_Write_Single_Func(DET_EEP_UV_DET_LMT,uv_det_limit);
				}
				else if(Det_Modbus_Buf[Det_Comm_Flow_Set] == Commnication_IR_Calribration_Set){
    63e4:	26 30       	cpi	r18, 0x06	; 6
    63e6:	31 05       	cpc	r19, r1
    63e8:	49 f4       	brne	.+18     	; 0x63fc <Communication_Handler+0x13e>
					Det_Modbus_Buf[Det_Reg_Status] = usart2_write_m_ready;
    63ea:	8c e0       	ldi	r24, 0x0C	; 12
    63ec:	90 e0       	ldi	r25, 0x00	; 0
    63ee:	90 93 1b 15 	sts	0x151B, r25
    63f2:	80 93 1a 15 	sts	0x151A, r24
	Det_Modbus_Buf[Det_Write_Register_Flag] = 1;
}

void Det_Write_Multi_Func(U16 s_addr, U16 e_addr)
{
	Det_Modbus_Buf[Det_Write_Register_Addr] = s_addr;
    63f6:	89 e2       	ldi	r24, 0x29	; 41
    63f8:	90 e0       	ldi	r25, 0x00	; 0
    63fa:	76 c0       	rjmp	.+236    	; 0x64e8 <Communication_Handler+0x22a>
				}
				else if(Det_Modbus_Buf[Det_Comm_Flow_Set] == Commnication_IR_Calribration_Set){
					Det_Modbus_Buf[Det_Reg_Status] = usart2_write_m_ready;
					Det_Write_Multi_Func(DET_EEP_CAL_BUF_IR430_01, DET_EEP_CAL_BUF_IR530_07);
				}
				else if(Det_Modbus_Buf[Det_Comm_Flow_Set] == Commnication_Eep_Clear_Set){
    63fc:	22 30       	cpi	r18, 0x02	; 2
    63fe:	31 05       	cpc	r19, r1
    6400:	a9 f4       	brne	.+42     	; 0x642c <Communication_Handler+0x16e>
					Det_Modbus_Buf[Det_Reg_Status] = usart2_write_m_ready;
    6402:	8c e0       	ldi	r24, 0x0C	; 12
    6404:	90 e0       	ldi	r25, 0x00	; 0
    6406:	90 93 1b 15 	sts	0x151B, r25
    640a:	80 93 1a 15 	sts	0x151A, r24
	Det_Modbus_Buf[Det_Write_Register_Flag] = 1;
}

void Det_Write_Multi_Func(U16 s_addr, U16 e_addr)
{
	Det_Modbus_Buf[Det_Write_Register_Addr] = s_addr;
    640e:	85 e5       	ldi	r24, 0x55	; 85
    6410:	90 e0       	ldi	r25, 0x00	; 0
    6412:	90 93 2d 15 	sts	0x152D, r25
    6416:	80 93 2c 15 	sts	0x152C, r24
	Det_Modbus_Buf[Det_Write_Register_Data] = e_addr + 1;
    641a:	87 ed       	ldi	r24, 0xD7	; 215
    641c:	90 e0       	ldi	r25, 0x00	; 0
    641e:	90 93 2f 15 	sts	0x152F, r25
    6422:	80 93 2e 15 	sts	0x152E, r24
	Det_Modbus_Buf[Det_Write_Register_Flag] = 2;
    6426:	82 e0       	ldi	r24, 0x02	; 2
    6428:	90 e0       	ldi	r25, 0x00	; 0
    642a:	98 c0       	rjmp	.+304    	; 0x655c <Communication_Handler+0x29e>
				}
				else if(Det_Modbus_Buf[Det_Comm_Flow_Set] == Commnication_Eep_Clear_Set){
					Det_Modbus_Buf[Det_Reg_Status] = usart2_write_m_ready;
					Det_Write_Multi_Func(DET_EEP_EVT_BIT_IR430_1S_PTOP_MIN, DET_EEP_EVT_IR530_DRIFT_T_MAX_H);
				}
				else if(Det_Modbus_Buf[Det_Comm_Flow_Set] == Commnication_Dev_Single){
    642c:	27 30       	cpi	r18, 0x07	; 7
    642e:	31 05       	cpc	r19, r1
    6430:	39 f4       	brne	.+14     	; 0x6440 <Communication_Handler+0x182>
					Det_Modbus_Buf[Det_Reg_Status] = usart2_write_s_ready;
    6432:	88 e0       	ldi	r24, 0x08	; 8
    6434:	90 e0       	ldi	r25, 0x00	; 0
    6436:	90 93 1b 15 	sts	0x151B, r25
    643a:	80 93 1a 15 	sts	0x151A, r24
    643e:	08 95       	ret
				}
				else if(Det_Modbus_Buf[Det_Comm_Flow_Set] == Commnication_Data_Set){
    6440:	28 30       	cpi	r18, 0x08	; 8
    6442:	31 05       	cpc	r19, r1
    6444:	09 f0       	breq	.+2      	; 0x6448 <Communication_Handler+0x18a>
    6446:	09 c1       	rjmp	.+530    	; 0x665a <Communication_Handler+0x39c>
					Det_Modbus_Buf[Det_Reg_Status] = usart2_write_s_ready;
    6448:	30 93 1b 15 	sts	0x151B, r19
    644c:	20 93 1a 15 	sts	0x151A, r18
    6450:	08 95       	ret
				}
				break;
			case 5:		// 250ms
				if(Det_Modbus_Buf[Det_Comm_Flow_Set] == Commnication_Default_Set){
    6452:	20 91 20 15 	lds	r18, 0x1520
    6456:	30 91 21 15 	lds	r19, 0x1521
    645a:	21 30       	cpi	r18, 0x01	; 1
    645c:	31 05       	cpc	r19, r1
    645e:	79 f4       	brne	.+30     	; 0x647e <Communication_Handler+0x1c0>
					Det_Modbus_Buf[Det_Reg_Status] = usart2_write_s_ready;
    6460:	88 e0       	ldi	r24, 0x08	; 8
    6462:	90 e0       	ldi	r25, 0x00	; 0
    6464:	90 93 1b 15 	sts	0x151B, r25
    6468:	80 93 1a 15 	sts	0x151A, r24
	}
}

void Det_Write_Single_Func(U16 addr, S16 data)
{
	Det_Modbus_Buf[Det_Write_Register_Addr] = addr;
    646c:	83 e2       	ldi	r24, 0x23	; 35
    646e:	90 e0       	ldi	r25, 0x00	; 0
    6470:	90 93 2d 15 	sts	0x152D, r25
    6474:	80 93 2c 15 	sts	0x152C, r24
	Det_Modbus_Buf[Det_Write_Register_Data] = data;
    6478:	84 e6       	ldi	r24, 0x64	; 100
    647a:	90 e0       	ldi	r25, 0x00	; 0
    647c:	9f c0       	rjmp	.+318    	; 0x65bc <Communication_Handler+0x2fe>
			case 5:		// 250ms
				if(Det_Modbus_Buf[Det_Comm_Flow_Set] == Commnication_Default_Set){
					Det_Modbus_Buf[Det_Reg_Status] = usart2_write_s_ready;
					Det_Write_Single_Func(DET_EEP_CAL_BUF_UV_CPS,100);
				}
				else if(Det_Modbus_Buf[Det_Comm_Flow_Set] == Commnication_UV_Calribration_Set){
    647e:	24 30       	cpi	r18, 0x04	; 4
    6480:	31 05       	cpc	r19, r1
    6482:	09 f0       	breq	.+2      	; 0x6486 <Communication_Handler+0x1c8>
    6484:	ea c0       	rjmp	.+468    	; 0x665a <Communication_Handler+0x39c>
					Det_Modbus_Buf[Det_Reg_Status] = usart2_write_s_ready;
    6486:	88 e0       	ldi	r24, 0x08	; 8
    6488:	90 e0       	ldi	r25, 0x00	; 0
    648a:	90 93 1b 15 	sts	0x151B, r25
    648e:	80 93 1a 15 	sts	0x151A, r24
					Det_Write_Single_Func(DET_EEP_CAL_BUF_UV_CPS,uv_cps);
    6492:	20 91 b6 0a 	lds	r18, 0x0AB6
    6496:	30 91 b7 0a 	lds	r19, 0x0AB7
	}
}

void Det_Write_Single_Func(U16 addr, S16 data)
{
	Det_Modbus_Buf[Det_Write_Register_Addr] = addr;
    649a:	83 e2       	ldi	r24, 0x23	; 35
    649c:	90 e0       	ldi	r25, 0x00	; 0
    649e:	3b c0       	rjmp	.+118    	; 0x6516 <Communication_Handler+0x258>
					Det_Modbus_Buf[Det_Reg_Status] = usart2_write_s_ready;
					Det_Write_Single_Func(DET_EEP_CAL_BUF_UV_CPS,uv_cps);
				}
				break;
			case 6:		// 300ms
				if(Det_Modbus_Buf[Det_Comm_Flow_Set] == Commnication_Default_Set){
    64a0:	20 91 20 15 	lds	r18, 0x1520
    64a4:	30 91 21 15 	lds	r19, 0x1521
    64a8:	21 30       	cpi	r18, 0x01	; 1
    64aa:	31 05       	cpc	r19, r1
    64ac:	21 f5       	brne	.+72     	; 0x64f6 <Communication_Handler+0x238>
					if(Det_Input_Reg_Data[DET_InputReg_DeviceType] == STATUS_UVIR){
    64ae:	80 91 b9 0f 	lds	r24, 0x0FB9
    64b2:	90 91 ba 0f 	lds	r25, 0x0FBA
    64b6:	89 2b       	or	r24, r25
    64b8:	79 f4       	brne	.+30     	; 0x64d8 <Communication_Handler+0x21a>
						Det_Modbus_Buf[Det_Reg_Status] = usart2_write_s_ready;
    64ba:	88 e0       	ldi	r24, 0x08	; 8
    64bc:	90 e0       	ldi	r25, 0x00	; 0
    64be:	90 93 1b 15 	sts	0x151B, r25
    64c2:	80 93 1a 15 	sts	0x151A, r24
	}
}

void Det_Write_Single_Func(U16 addr, S16 data)
{
	Det_Modbus_Buf[Det_Write_Register_Addr] = addr;
    64c6:	88 e2       	ldi	r24, 0x28	; 40
    64c8:	90 e0       	ldi	r25, 0x00	; 0
    64ca:	90 93 2d 15 	sts	0x152D, r25
    64ce:	80 93 2c 15 	sts	0x152C, r24
	Det_Modbus_Buf[Det_Write_Register_Data] = data;
    64d2:	8c e6       	ldi	r24, 0x6C	; 108
    64d4:	97 e0       	ldi	r25, 0x07	; 7
    64d6:	72 c0       	rjmp	.+228    	; 0x65bc <Communication_Handler+0x2fe>
					if(Det_Input_Reg_Data[DET_InputReg_DeviceType] == STATUS_UVIR){
						Det_Modbus_Buf[Det_Reg_Status] = usart2_write_s_ready;
						Det_Write_Single_Func(DET_EEP_CAL_BUF_IR430_RESPONSIVITY,1900);
					}
					else{
						Det_Modbus_Buf[Det_Reg_Status] = usart2_write_m_ready;
    64d8:	8c e0       	ldi	r24, 0x0C	; 12
    64da:	90 e0       	ldi	r25, 0x00	; 0
    64dc:	90 93 1b 15 	sts	0x151B, r25
    64e0:	80 93 1a 15 	sts	0x151A, r24
	Det_Modbus_Buf[Det_Write_Register_Flag] = 1;
}

void Det_Write_Multi_Func(U16 s_addr, U16 e_addr)
{
	Det_Modbus_Buf[Det_Write_Register_Addr] = s_addr;
    64e4:	88 e2       	ldi	r24, 0x28	; 40
    64e6:	90 e0       	ldi	r25, 0x00	; 0
    64e8:	90 93 2d 15 	sts	0x152D, r25
    64ec:	80 93 2c 15 	sts	0x152C, r24
	Det_Modbus_Buf[Det_Write_Register_Data] = e_addr + 1;
    64f0:	8e e3       	ldi	r24, 0x3E	; 62
    64f2:	90 e0       	ldi	r25, 0x00	; 0
    64f4:	94 cf       	rjmp	.-216    	; 0x641e <Communication_Handler+0x160>
					else{
						Det_Modbus_Buf[Det_Reg_Status] = usart2_write_m_ready;
						Det_Write_Multi_Func(DET_EEP_CAL_BUF_IR430_RESPONSIVITY, DET_EEP_CAL_BUF_IR530_07);
					}
				}
				else if(Det_Modbus_Buf[Det_Comm_Flow_Set] == Commnication_UV_Calribration_Set){
    64f6:	24 30       	cpi	r18, 0x04	; 4
    64f8:	31 05       	cpc	r19, r1
    64fa:	09 f0       	breq	.+2      	; 0x64fe <Communication_Handler+0x240>
    64fc:	ae c0       	rjmp	.+348    	; 0x665a <Communication_Handler+0x39c>
					Det_Modbus_Buf[Det_Reg_Status] = usart2_write_s_ready;
    64fe:	88 e0       	ldi	r24, 0x08	; 8
    6500:	90 e0       	ldi	r25, 0x00	; 0
    6502:	90 93 1b 15 	sts	0x151B, r25
    6506:	80 93 1a 15 	sts	0x151A, r24
					Det_Write_Single_Func(DET_EEP_CAL_BUF_IR430_RESPONSIVITY,det_ir_reponsivity_466);
    650a:	20 91 3e 0a 	lds	r18, 0x0A3E
    650e:	30 91 3f 0a 	lds	r19, 0x0A3F
	}
}

void Det_Write_Single_Func(U16 addr, S16 data)
{
	Det_Modbus_Buf[Det_Write_Register_Addr] = addr;
    6512:	88 e2       	ldi	r24, 0x28	; 40
    6514:	90 e0       	ldi	r25, 0x00	; 0
    6516:	90 93 2d 15 	sts	0x152D, r25
    651a:	80 93 2c 15 	sts	0x152C, r24
	Det_Modbus_Buf[Det_Write_Register_Data] = data;
    651e:	30 93 2f 15 	sts	0x152F, r19
    6522:	20 93 2e 15 	sts	0x152E, r18
	Det_Modbus_Buf[Det_Write_Register_Flag] = 1;
    6526:	81 e0       	ldi	r24, 0x01	; 1
    6528:	90 e0       	ldi	r25, 0x00	; 0
    652a:	18 c0       	rjmp	.+48     	; 0x655c <Communication_Handler+0x29e>
				}
				break;
			case 7:		// 350ms
				break;
			case 8:		// 400ms
				if( (Det_Modbus_Buf[Det_Comm_Flow_Set] == Commnication_UV_Calribration_Set) | (Det_Modbus_Buf[Det_Comm_Flow_Set] == Commnication_UV_Calribration_Fault) ){
    652c:	80 91 20 15 	lds	r24, 0x1520
    6530:	90 91 21 15 	lds	r25, 0x1521
    6534:	04 97       	sbiw	r24, 0x04	; 4
    6536:	02 97       	sbiw	r24, 0x02	; 2
    6538:	08 f0       	brcs	.+2      	; 0x653c <Communication_Handler+0x27e>
    653a:	8f c0       	rjmp	.+286    	; 0x665a <Communication_Handler+0x39c>
					Det_Modbus_Buf[Det_Reg_Status] = usart2_write_s_ready;
    653c:	50 93 1b 15 	sts	0x151B, r21
    6540:	40 93 1a 15 	sts	0x151A, r20
	}
}

void Det_Write_Single_Func(U16 addr, S16 data)
{
	Det_Modbus_Buf[Det_Write_Register_Addr] = addr;
    6544:	87 e0       	ldi	r24, 0x07	; 7
    6546:	90 e0       	ldi	r25, 0x00	; 0
    6548:	90 93 2d 15 	sts	0x152D, r25
    654c:	80 93 2c 15 	sts	0x152C, r24
	Det_Modbus_Buf[Det_Write_Register_Data] = data;
    6550:	81 e0       	ldi	r24, 0x01	; 1
    6552:	90 e0       	ldi	r25, 0x00	; 0
    6554:	90 93 2f 15 	sts	0x152F, r25
    6558:	80 93 2e 15 	sts	0x152E, r24
	Det_Modbus_Buf[Det_Write_Register_Flag] = 1;
    655c:	90 93 2b 15 	sts	0x152B, r25
    6560:	80 93 2a 15 	sts	0x152A, r24
    6564:	08 95       	ret
					Det_Modbus_Buf[Det_Reg_Status] = usart2_write_s_ready;
					Det_Write_Single_Func(DET_EEP_UV_PWR_CTRL,1);
				}
				break;
			case 12:	// 600ms
				if(Det_Modbus_Buf[Det_Comm_Flow_Set] == Commnication_Normal){
    6566:	20 91 20 15 	lds	r18, 0x1520
    656a:	30 91 21 15 	lds	r19, 0x1521
    656e:	21 15       	cp	r18, r1
    6570:	31 05       	cpc	r19, r1
    6572:	a1 f4       	brne	.+40     	; 0x659c <Communication_Handler+0x2de>
					if(Det_Modbus_Buf[Det_Write_Register_Flag] == 0){
    6574:	80 91 2a 15 	lds	r24, 0x152A
    6578:	90 91 2b 15 	lds	r25, 0x152B
    657c:	89 2b       	or	r24, r25
    657e:	09 f0       	breq	.+2      	; 0x6582 <Communication_Handler+0x2c4>
    6580:	6c c0       	rjmp	.+216    	; 0x665a <Communication_Handler+0x39c>
							Det_Modbus_Buf[Det_Reg_Status] = usart2_holding_ready;
    6582:	84 e0       	ldi	r24, 0x04	; 4
    6584:	90 e0       	ldi	r25, 0x00	; 0
    6586:	90 93 1b 15 	sts	0x151B, r25
    658a:	80 93 1a 15 	sts	0x151A, r24
							Det_Modbus_Buf[Det_Hoding_Read_Cnt] = 1;
    658e:	81 e0       	ldi	r24, 0x01	; 1
    6590:	90 e0       	ldi	r25, 0x00	; 0
    6592:	90 93 27 15 	sts	0x1527, r25
    6596:	80 93 26 15 	sts	0x1526, r24
    659a:	08 95       	ret
					}
				}
				else if(Det_Modbus_Buf[Det_Comm_Flow_Set] == Commnication_Eep_Clear_Set){
    659c:	22 30       	cpi	r18, 0x02	; 2
    659e:	31 05       	cpc	r19, r1
    65a0:	09 f0       	breq	.+2      	; 0x65a4 <Communication_Handler+0x2e6>
    65a2:	5b c0       	rjmp	.+182    	; 0x665a <Communication_Handler+0x39c>
					Det_Modbus_Buf[Det_Reg_Status] = usart2_write_m_ready;
    65a4:	50 93 1b 15 	sts	0x151B, r21
    65a8:	40 93 1a 15 	sts	0x151A, r20
	Det_Modbus_Buf[Det_Write_Register_Flag] = 1;
}

void Det_Write_Multi_Func(U16 s_addr, U16 e_addr)
{
	Det_Modbus_Buf[Det_Write_Register_Addr] = s_addr;
    65ac:	85 e5       	ldi	r24, 0x55	; 85
    65ae:	90 e0       	ldi	r25, 0x00	; 0
    65b0:	90 93 2d 15 	sts	0x152D, r25
    65b4:	80 93 2c 15 	sts	0x152C, r24
	Det_Modbus_Buf[Det_Write_Register_Data] = e_addr + 1;
    65b8:	87 ed       	ldi	r24, 0xD7	; 215
    65ba:	90 e0       	ldi	r25, 0x00	; 0
    65bc:	90 93 2f 15 	sts	0x152F, r25
    65c0:	80 93 2e 15 	sts	0x152E, r24
	Det_Modbus_Buf[Det_Write_Register_Flag] = 2;
    65c4:	30 93 2b 15 	sts	0x152B, r19
    65c8:	20 93 2a 15 	sts	0x152A, r18
    65cc:	08 95       	ret
				}
				break;
			case 16:
				break;
			case 18:
				sTimerFlag[TMR_1000MS_String] = 1;
    65ce:	81 e0       	ldi	r24, 0x01	; 1
    65d0:	90 e0       	ldi	r25, 0x00	; 0
    65d2:	90 93 3a 0f 	sts	0x0F3A, r25
    65d6:	80 93 39 0f 	sts	0x0F39, r24
    65da:	08 95       	ret
				break;
			case 19:	// 950ms
				modbus_holding_mapping();
    65dc:	0e 94 42 31 	call	0x6284	; 0x6284 <modbus_holding_mapping>
					Calibration_Mode_Flow = 0;
					DPRINT("2\n");
				}
				else 
				*/
				if(Det_com_cnt > 1){
    65e0:	80 91 9b 11 	lds	r24, 0x119B
    65e4:	82 30       	cpi	r24, 0x02	; 2
    65e6:	98 f0       	brcs	.+38     	; 0x660e <Communication_Handler+0x350>
					Det_com_warning++;
    65e8:	80 91 18 15 	lds	r24, 0x1518
    65ec:	8f 5f       	subi	r24, 0xFF	; 255
    65ee:	80 93 18 15 	sts	0x1518, r24
					if(Det_com_warning > 5){
    65f2:	86 30       	cpi	r24, 0x06	; 6
    65f4:	40 f0       	brcs	.+16     	; 0x6606 <Communication_Handler+0x348>
						Det_com_flag = 0;
    65f6:	10 92 b0 18 	sts	0x18B0, r1
						Det_com_warning = 5;
    65fa:	85 e0       	ldi	r24, 0x05	; 5
    65fc:	80 93 18 15 	sts	0x1518, r24
						Calibration_Mode_Flow = 0;
    6600:	10 92 82 0a 	sts	0x0A82, r1
    6604:	16 c0       	rjmp	.+44     	; 0x6632 <Communication_Handler+0x374>
					}
					else{
						Det_com_flag = 1;
    6606:	81 e0       	ldi	r24, 0x01	; 1
    6608:	80 93 b0 18 	sts	0x18B0, r24
    660c:	12 c0       	rjmp	.+36     	; 0x6632 <Communication_Handler+0x374>
					}
				}
				else{
					Det_com_flag = 1;
    660e:	81 e0       	ldi	r24, 0x01	; 1
    6610:	80 93 b0 18 	sts	0x18B0, r24
					Det_com_warning = 0;
    6614:	10 92 18 15 	sts	0x1518, r1
					
					if(Device_Mode_Select == Det_U_CALIBRATION_MODE){
    6618:	80 91 d9 0a 	lds	r24, 0x0AD9
    661c:	81 30       	cpi	r24, 0x01	; 1
    661e:	49 f4       	brne	.+18     	; 0x6632 <Communication_Handler+0x374>
						if( (Calibration_Mode_Flow > 2) && (Calibration_Mode_Flow < 8) ){
    6620:	90 91 82 0a 	lds	r25, 0x0A82
    6624:	89 2f       	mov	r24, r25
    6626:	83 50       	subi	r24, 0x03	; 3
    6628:	85 30       	cpi	r24, 0x05	; 5
    662a:	18 f4       	brcc	.+6      	; 0x6632 <Communication_Handler+0x374>
							Calibration_Mode_Flow++;
    662c:	9f 5f       	subi	r25, 0xFF	; 255
    662e:	90 93 82 0a 	sts	0x0A82, r25
						}
					}
				}
				
				if(Det_Modbus_Buf[Det_Comm_Flow_Set] == Commnication_Default_Set){
    6632:	80 91 20 15 	lds	r24, 0x1520
    6636:	90 91 21 15 	lds	r25, 0x1521
    663a:	01 97       	sbiw	r24, 0x01	; 1
    663c:	29 f4       	brne	.+10     	; 0x6648 <Communication_Handler+0x38a>
					det_power_control |= Det_Default_Data_Check_Bit;
    663e:	80 91 da 0a 	lds	r24, 0x0ADA
    6642:	80 61       	ori	r24, 0x10	; 16
    6644:	80 93 da 0a 	sts	0x0ADA, r24
				}
				
				Det_com_cnt = 0;
    6648:	10 92 9b 11 	sts	0x119B, r1

				Det_Modbus_Buf[Det_Comm_Flow_Set] = 0;
    664c:	10 92 21 15 	sts	0x1521, r1
    6650:	10 92 20 15 	sts	0x1520, r1
				ModeSetFlag[FMODE_DET_EEP_CLEAR_RESULT] = 1;
    6654:	81 e0       	ldi	r24, 0x01	; 1
    6656:	80 93 c2 0a 	sts	0x0AC2, r24
    665a:	08 95       	ret

0000665c <Det_Write_Err>:
}

void Det_Write_Err(void)
{
U8	i, flag = 0;
	if( (Det_Modbus_Buf[Det_Reg_Status] == usart2_write_s_tx_complete) | (Det_Modbus_Buf[Det_Reg_Status] == usart2_write_m_tx_complete) ){//| (Det_Modbus_Buf[Det_Reg_Status] == usart2_write_m_2nd_tx_complete) )
    665c:	80 91 1a 15 	lds	r24, 0x151A
    6660:	90 91 1b 15 	lds	r25, 0x151B
    6664:	89 30       	cpi	r24, 0x09	; 9
    6666:	91 05       	cpc	r25, r1
    6668:	11 f0       	breq	.+4      	; 0x666e <Det_Write_Err+0x12>
    666a:	0d 97       	sbiw	r24, 0x0d	; 13
    666c:	09 f5       	brne	.+66     	; 0x66b0 <Det_Write_Err+0x54>
    666e:	40 e0       	ldi	r20, 0x00	; 0
    6670:	20 e0       	ldi	r18, 0x00	; 0
    6672:	30 e0       	ldi	r19, 0x00	; 0
		for(i = 0; i < MAX_USART2_RX_WRITE_BUFF - 2; i++){
			if(Rx2_write_rx_Buf[i] != Rx2_write_tx_Buf[i]){
    6674:	f9 01       	movw	r30, r18
    6676:	ea 5e       	subi	r30, 0xEA	; 234
    6678:	fc 4e       	sbci	r31, 0xEC	; 236
    667a:	d9 01       	movw	r26, r18
    667c:	a3 55       	subi	r26, 0x53	; 83
    667e:	b9 4e       	sbci	r27, 0xE9	; 233
    6680:	90 81       	ld	r25, Z
    6682:	8c 91       	ld	r24, X
    6684:	98 13       	cpse	r25, r24
				flag++;
    6686:	4f 5f       	subi	r20, 0xFF	; 255
    6688:	2f 5f       	subi	r18, 0xFF	; 255
    668a:	3f 4f       	sbci	r19, 0xFF	; 255

void Det_Write_Err(void)
{
U8	i, flag = 0;
	if( (Det_Modbus_Buf[Det_Reg_Status] == usart2_write_s_tx_complete) | (Det_Modbus_Buf[Det_Reg_Status] == usart2_write_m_tx_complete) ){//| (Det_Modbus_Buf[Det_Reg_Status] == usart2_write_m_2nd_tx_complete) )
		for(i = 0; i < MAX_USART2_RX_WRITE_BUFF - 2; i++){
    668c:	26 30       	cpi	r18, 0x06	; 6
    668e:	31 05       	cpc	r19, r1
    6690:	89 f7       	brne	.-30     	; 0x6674 <Det_Write_Err+0x18>
				flag++;
			}
			//DPRINT2("RX = %d, TX = %d\n", Rx2_write_rx_Buf[i], Rx2_write_tx_Buf[i]);
		}
		
		if(flag != 0){
    6692:	44 23       	and	r20, r20
    6694:	39 f0       	breq	.+14     	; 0x66a4 <Det_Write_Err+0x48>
			Det_Modbus_Buf[Det_Write_Err_Flag] = 2;
    6696:	82 e0       	ldi	r24, 0x02	; 2
    6698:	90 e0       	ldi	r25, 0x00	; 0
    669a:	90 93 31 15 	sts	0x1531, r25
    669e:	80 93 30 15 	sts	0x1530, r24
    66a2:	08 95       	ret

		}
		else{
			Det_Modbus_Buf[Det_Write_Err_Flag] = 1;
    66a4:	81 e0       	ldi	r24, 0x01	; 1
    66a6:	90 e0       	ldi	r25, 0x00	; 0
    66a8:	90 93 31 15 	sts	0x1531, r25
    66ac:	80 93 30 15 	sts	0x1530, r24
    66b0:	08 95       	ret

000066b2 <USART2_Rx_Packet_Check>:
}

/////////////////////////////////////////////////////////////////////////////////////////////////////////////////////////////////////
void USART2_Rx_Packet_Check(void)
{
	if( Rx2_Packet_Check & 0x80 )
    66b2:	80 91 95 0f 	lds	r24, 0x0F95
    66b6:	87 ff       	sbrs	r24, 7
    66b8:	4f c0       	rjmp	.+158    	; 0x6758 <USART2_Rx_Packet_Check+0xa6>
	{
		if( Rx2_Packet_Check == 0x80 )
    66ba:	80 38       	cpi	r24, 0x80	; 128
    66bc:	09 f0       	breq	.+2      	; 0x66c0 <USART2_Rx_Packet_Check+0xe>
    66be:	49 c0       	rjmp	.+146    	; 0x6752 <USART2_Rx_Packet_Check+0xa0>
		{
			Rx2_Packet_Check = 0;
    66c0:	10 92 95 0f 	sts	0x0F95, r1
			
			switch(Det_Modbus_Buf[Det_Reg_Status]){
    66c4:	80 91 1a 15 	lds	r24, 0x151A
    66c8:	90 91 1b 15 	lds	r25, 0x151B
    66cc:	85 30       	cpi	r24, 0x05	; 5
    66ce:	91 05       	cpc	r25, r1
    66d0:	99 f0       	breq	.+38     	; 0x66f8 <USART2_Rx_Packet_Check+0x46>
    66d2:	86 30       	cpi	r24, 0x06	; 6
    66d4:	91 05       	cpc	r25, r1
    66d6:	18 f4       	brcc	.+6      	; 0x66de <USART2_Rx_Packet_Check+0x2c>
    66d8:	01 97       	sbiw	r24, 0x01	; 1
    66da:	c1 f5       	brne	.+112    	; 0x674c <USART2_Rx_Packet_Check+0x9a>
    66dc:	06 c0       	rjmp	.+12     	; 0x66ea <USART2_Rx_Packet_Check+0x38>
    66de:	89 30       	cpi	r24, 0x09	; 9
    66e0:	91 05       	cpc	r25, r1
    66e2:	d1 f0       	breq	.+52     	; 0x6718 <USART2_Rx_Packet_Check+0x66>
    66e4:	0d 97       	sbiw	r24, 0x0d	; 13
    66e6:	91 f5       	brne	.+100    	; 0x674c <USART2_Rx_Packet_Check+0x9a>
    66e8:	20 c0       	rjmp	.+64     	; 0x672a <USART2_Rx_Packet_Check+0x78>
				case usart2_input_tx_complete:
					if(DET_Rx2Cnt == (INPUT_REG_MAX_CNT*2)+5){
    66ea:	80 91 9c 11 	lds	r24, 0x119C
    66ee:	87 38       	cpi	r24, 0x87	; 135
    66f0:	41 f5       	brne	.+80     	; 0x6742 <USART2_Rx_Packet_Check+0x90>
						Det_Modbus_Buf[Det_Reg_Status] = usart2_input_rx_complete;
    66f2:	82 e0       	ldi	r24, 0x02	; 2
    66f4:	90 e0       	ldi	r25, 0x00	; 0
    66f6:	21 c0       	rjmp	.+66     	; 0x673a <USART2_Rx_Packet_Check+0x88>
					}
					Det_com_cnt--;
					break;
				case usart2_holding_tx_complete:
					if(!Det_Modbus_Buf[Det_Hoding_Read_Cnt]){
    66f8:	80 91 26 15 	lds	r24, 0x1526
    66fc:	90 91 27 15 	lds	r25, 0x1527
    6700:	20 91 9c 11 	lds	r18, 0x119C
    6704:	89 2b       	or	r24, r25
    6706:	19 f4       	brne	.+6      	; 0x670e <USART2_Rx_Packet_Check+0x5c>
						if(DET_Rx2Cnt == (HOLDING_REG_MAX_CNT*2)+5){
    6708:	2b 3d       	cpi	r18, 0xDB	; 219
    670a:	d9 f4       	brne	.+54     	; 0x6742 <USART2_Rx_Packet_Check+0x90>
    670c:	02 c0       	rjmp	.+4      	; 0x6712 <USART2_Rx_Packet_Check+0x60>
							Det_Modbus_Buf[Det_Reg_Status] = usart2_holding_rx_complete;
						}
					}
					else{
						if(DET_Rx2Cnt == ((HOLDING_REG_MAX_CNT+1)*2)+5){
    670e:	2d 3d       	cpi	r18, 0xDD	; 221
    6710:	c1 f4       	brne	.+48     	; 0x6742 <USART2_Rx_Packet_Check+0x90>
							Det_Modbus_Buf[Det_Reg_Status] = usart2_holding_rx_complete;
    6712:	86 e0       	ldi	r24, 0x06	; 6
    6714:	90 e0       	ldi	r25, 0x00	; 0
    6716:	11 c0       	rjmp	.+34     	; 0x673a <USART2_Rx_Packet_Check+0x88>
						}
					}
					Det_com_cnt--;
					break;
				case usart2_write_s_tx_complete:
					if(DET_Rx2Cnt == MAX_USART2_RX_WRITE_BUFF)
    6718:	80 91 9c 11 	lds	r24, 0x119C
    671c:	88 30       	cpi	r24, 0x08	; 8
    671e:	89 f4       	brne	.+34     	; 0x6742 <USART2_Rx_Packet_Check+0x90>
					{
						Det_Write_Err();
    6720:	0e 94 2e 33 	call	0x665c	; 0x665c <Det_Write_Err>
						Det_Modbus_Buf[Det_Reg_Status] = usart2_write_s_rx_complete;
    6724:	8a e0       	ldi	r24, 0x0A	; 10
    6726:	90 e0       	ldi	r25, 0x00	; 0
    6728:	08 c0       	rjmp	.+16     	; 0x673a <USART2_Rx_Packet_Check+0x88>
					}
					Det_com_cnt--;
					break;
				case usart2_write_m_tx_complete:
					if(DET_Rx2Cnt == MAX_USART2_RX_WRITE_BUFF)
    672a:	80 91 9c 11 	lds	r24, 0x119C
    672e:	88 30       	cpi	r24, 0x08	; 8
    6730:	41 f4       	brne	.+16     	; 0x6742 <USART2_Rx_Packet_Check+0x90>
					{
						Det_Write_Err();
    6732:	0e 94 2e 33 	call	0x665c	; 0x665c <Det_Write_Err>
						Det_Modbus_Buf[Det_Reg_Status] = usart2_write_m_rx_complete;
    6736:	8e e0       	ldi	r24, 0x0E	; 14
    6738:	90 e0       	ldi	r25, 0x00	; 0
    673a:	90 93 1b 15 	sts	0x151B, r25
    673e:	80 93 1a 15 	sts	0x151A, r24
					}
					Det_com_cnt--;
    6742:	80 91 9b 11 	lds	r24, 0x119B
    6746:	81 50       	subi	r24, 0x01	; 1
    6748:	80 93 9b 11 	sts	0x119B, r24
					break;
			}
			DET_Rx2Cnt = 0;
    674c:	10 92 9c 11 	sts	0x119C, r1
    6750:	08 95       	ret
		}
		else
		{
			Rx2_Packet_Check--;
    6752:	81 50       	subi	r24, 0x01	; 1
    6754:	80 93 95 0f 	sts	0x0F95, r24
    6758:	08 95       	ret

0000675a <Det_Write_Single_Func>:
	}
}

void Det_Write_Single_Func(U16 addr, S16 data)
{
	Det_Modbus_Buf[Det_Write_Register_Addr] = addr;
    675a:	90 93 2d 15 	sts	0x152D, r25
    675e:	80 93 2c 15 	sts	0x152C, r24
	Det_Modbus_Buf[Det_Write_Register_Data] = data;
    6762:	70 93 2f 15 	sts	0x152F, r23
    6766:	60 93 2e 15 	sts	0x152E, r22
	Det_Modbus_Buf[Det_Write_Register_Flag] = 1;
    676a:	81 e0       	ldi	r24, 0x01	; 1
    676c:	90 e0       	ldi	r25, 0x00	; 0
    676e:	90 93 2b 15 	sts	0x152B, r25
    6772:	80 93 2a 15 	sts	0x152A, r24
}
    6776:	08 95       	ret

00006778 <Det_Write_Multi_Func>:

void Det_Write_Multi_Func(U16 s_addr, U16 e_addr)
{
	Det_Modbus_Buf[Det_Write_Register_Addr] = s_addr;
    6778:	90 93 2d 15 	sts	0x152D, r25
    677c:	80 93 2c 15 	sts	0x152C, r24
	Det_Modbus_Buf[Det_Write_Register_Data] = e_addr + 1;
    6780:	6f 5f       	subi	r22, 0xFF	; 255
    6782:	7f 4f       	sbci	r23, 0xFF	; 255
    6784:	70 93 2f 15 	sts	0x152F, r23
    6788:	60 93 2e 15 	sts	0x152E, r22
	Det_Modbus_Buf[Det_Write_Register_Flag] = 2;
    678c:	82 e0       	ldi	r24, 0x02	; 2
    678e:	90 e0       	ldi	r25, 0x00	; 0
    6790:	90 93 2b 15 	sts	0x152B, r25
    6794:	80 93 2a 15 	sts	0x152A, r24
}
    6798:	08 95       	ret

0000679a <Det_Reg_Clear>:
}

/////////////////////////////////////////////////////////////////////////////////////////////////////////////////////////////////////
void Det_Reg_Clear(void)
{
	memset( Det_Input_Reg_Data, 0, sizeof(Det_Input_Reg_Data) );
    679a:	80 e0       	ldi	r24, 0x00	; 0
    679c:	91 e0       	ldi	r25, 0x01	; 1
    679e:	e9 e9       	ldi	r30, 0x99	; 153
    67a0:	ff e0       	ldi	r31, 0x0F	; 15
    67a2:	df 01       	movw	r26, r30
    67a4:	9c 01       	movw	r18, r24
    67a6:	1d 92       	st	X+, r1
    67a8:	21 50       	subi	r18, 0x01	; 1
    67aa:	30 40       	sbci	r19, 0x00	; 0
    67ac:	e1 f7       	brne	.-8      	; 0x67a6 <Det_Reg_Clear+0xc>
	memset( Det_Holding_Reg_Data, 0, sizeof(Det_Holding_Reg_Data) );
    67ae:	80 e0       	ldi	r24, 0x00	; 0
    67b0:	92 e0       	ldi	r25, 0x02	; 2
    67b2:	e9 e3       	ldi	r30, 0x39	; 57
    67b4:	fc e1       	ldi	r31, 0x1C	; 28
    67b6:	df 01       	movw	r26, r30
    67b8:	9c 01       	movw	r18, r24
    67ba:	1d 92       	st	X+, r1
    67bc:	21 50       	subi	r18, 0x01	; 1
    67be:	30 40       	sbci	r19, 0x00	; 0
    67c0:	e1 f7       	brne	.-8      	; 0x67ba <Det_Reg_Clear+0x20>
}
    67c2:	08 95       	ret

000067c4 <Det_Comm_Err>:

/////////////////////////////////////////////////////////////////////////////////////////////////////////////////////////////////////

void Det_Comm_Err(void)
{
	if( (Det_Modbus_Buf[Det_Reg_Status] == usart2_input_tx_complete) | (Det_Modbus_Buf[Det_Reg_Status] == usart2_holding_tx_complete)
    67c4:	20 91 1a 15 	lds	r18, 0x151A
    67c8:	30 91 1b 15 	lds	r19, 0x151B
    67cc:	40 e0       	ldi	r20, 0x00	; 0
    67ce:	50 e0       	ldi	r21, 0x00	; 0
    67d0:	2d 30       	cpi	r18, 0x0D	; 13
    67d2:	31 05       	cpc	r19, r1
    67d4:	11 f4       	brne	.+4      	; 0x67da <Det_Comm_Err+0x16>
    67d6:	41 e0       	ldi	r20, 0x01	; 1
    67d8:	50 e0       	ldi	r21, 0x00	; 0
    67da:	80 e0       	ldi	r24, 0x00	; 0
    67dc:	90 e0       	ldi	r25, 0x00	; 0
    67de:	29 30       	cpi	r18, 0x09	; 9
    67e0:	31 05       	cpc	r19, r1
    67e2:	11 f4       	brne	.+4      	; 0x67e8 <Det_Comm_Err+0x24>
    67e4:	81 e0       	ldi	r24, 0x01	; 1
    67e6:	90 e0       	ldi	r25, 0x00	; 0
    67e8:	48 2b       	or	r20, r24
    67ea:	59 2b       	or	r21, r25
    67ec:	80 e0       	ldi	r24, 0x00	; 0
    67ee:	21 30       	cpi	r18, 0x01	; 1
    67f0:	31 05       	cpc	r19, r1
    67f2:	09 f4       	brne	.+2      	; 0x67f6 <Det_Comm_Err+0x32>
    67f4:	81 e0       	ldi	r24, 0x01	; 1
    67f6:	90 e0       	ldi	r25, 0x00	; 0
    67f8:	25 30       	cpi	r18, 0x05	; 5
    67fa:	31 05       	cpc	r19, r1
    67fc:	09 f4       	brne	.+2      	; 0x6800 <Det_Comm_Err+0x3c>
    67fe:	91 e0       	ldi	r25, 0x01	; 1
    6800:	89 2b       	or	r24, r25
    6802:	90 e0       	ldi	r25, 0x00	; 0
    6804:	48 2b       	or	r20, r24
    6806:	59 2b       	or	r21, r25
    6808:	45 2b       	or	r20, r21
    680a:	61 f1       	breq	.+88     	; 0x6864 <Det_Comm_Err+0xa0>
		| (Det_Modbus_Buf[Det_Reg_Status] == usart2_write_s_tx_complete) | (Det_Modbus_Buf[Det_Reg_Status] == usart2_write_m_tx_complete) ){//} | (Det_Modbus_Buf[Det_Reg_Status] == usart2_write_m_2nd_tx_complete) ){
		if(!Det_Modbus_Buf[Det_Comm_Err_Flag])
    680c:	80 91 24 15 	lds	r24, 0x1524
    6810:	90 91 25 15 	lds	r25, 0x1525
    6814:	89 2b       	or	r24, r25
    6816:	71 f5       	brne	.+92     	; 0x6874 <Det_Comm_Err+0xb0>
		{
			if(DET_Rx2Cnt == DET_Rx2Cnt_old)
    6818:	90 91 9c 11 	lds	r25, 0x119C
    681c:	80 91 28 1a 	lds	r24, 0x1A28
    6820:	98 17       	cp	r25, r24
    6822:	d9 f4       	brne	.+54     	; 0x685a <Det_Comm_Err+0x96>
			{
				Det_Modbus_Buf[Det_Comm_Err_Cnt]++;
    6824:	80 91 22 15 	lds	r24, 0x1522
    6828:	90 91 23 15 	lds	r25, 0x1523
    682c:	01 96       	adiw	r24, 0x01	; 1
    682e:	90 93 23 15 	sts	0x1523, r25
    6832:	80 93 22 15 	sts	0x1522, r24
				if(Det_Modbus_Buf[Det_Comm_Err_Cnt] > DET_COMM_ERR_MAX)
    6836:	03 97       	sbiw	r24, 0x03	; 3
    6838:	80 f0       	brcs	.+32     	; 0x685a <Det_Comm_Err+0x96>
				{
					Det_Modbus_Buf[Det_Comm_Err_Cnt] = DET_COMM_ERR_MAX;
    683a:	82 e0       	ldi	r24, 0x02	; 2
    683c:	90 e0       	ldi	r25, 0x00	; 0
    683e:	90 93 23 15 	sts	0x1523, r25
    6842:	80 93 22 15 	sts	0x1522, r24
					Det_Modbus_Buf[Det_Comm_Err_Flag] = 1;
    6846:	81 e0       	ldi	r24, 0x01	; 1
    6848:	90 e0       	ldi	r25, 0x00	; 0
    684a:	90 93 25 15 	sts	0x1525, r25
    684e:	80 93 24 15 	sts	0x1524, r24
					DET_Rx2Cnt = 0;
    6852:	10 92 9c 11 	sts	0x119C, r1
					//LCD_Clear_Line_All();
					Det_Reg_Clear();
    6856:	0e 94 cd 33 	call	0x679a	; 0x679a <Det_Reg_Clear>
				}
			}
			DET_Rx2Cnt_old = DET_Rx2Cnt;
    685a:	80 91 9c 11 	lds	r24, 0x119C
    685e:	80 93 28 1a 	sts	0x1A28, r24
    6862:	08 95       	ret
		}
	}
	else{
		Det_Modbus_Buf[Det_Comm_Err_Cnt] = 0;
    6864:	10 92 23 15 	sts	0x1523, r1
    6868:	10 92 22 15 	sts	0x1522, r1
		Det_Modbus_Buf[Det_Comm_Err_Flag] = 0;
    686c:	10 92 25 15 	sts	0x1525, r1
    6870:	10 92 24 15 	sts	0x1524, r1
    6874:	08 95       	ret

00006876 <USART2_RX_Handler>:
	}
}

/////////////////////////////////////////////////////////////////////////////////////////////////////////////////////////////////////
void USART2_RX_Handler(void)
{
    6876:	0f 93       	push	r16
    6878:	1f 93       	push	r17
    687a:	df 93       	push	r29
    687c:	cf 93       	push	r28
    687e:	cd b7       	in	r28, 0x3d	; 61
    6880:	de b7       	in	r29, 0x3e	; 62
    6882:	c0 50       	subi	r28, 0x00	; 0
    6884:	d1 40       	sbci	r29, 0x01	; 1
    6886:	0f b6       	in	r0, 0x3f	; 63
    6888:	f8 94       	cli
    688a:	de bf       	out	0x3e, r29	; 62
    688c:	0f be       	out	0x3f, r0	; 63
    688e:	cd bf       	out	0x3d, r28	; 61
U16	index = 0;
U16	wCRC;
U8	i;
U16 s_addr, e_addr, addr_cnt;

	if(Det_Modbus_Buf[Det_Reg_Status_Old] != Det_Modbus_Buf[Det_Reg_Status]){
    6890:	20 91 1a 15 	lds	r18, 0x151A
    6894:	30 91 1b 15 	lds	r19, 0x151B
    6898:	80 91 1c 15 	lds	r24, 0x151C
    689c:	90 91 1d 15 	lds	r25, 0x151D
    68a0:	82 17       	cp	r24, r18
    68a2:	93 07       	cpc	r25, r19
    68a4:	09 f4       	brne	.+2      	; 0x68a8 <USART2_RX_Handler+0x32>
    68a6:	89 c1       	rjmp	.+786    	; 0x6bba <USART2_RX_Handler+0x344>
		switch(Det_Modbus_Buf[Det_Reg_Status]){
    68a8:	24 30       	cpi	r18, 0x04	; 4
    68aa:	31 05       	cpc	r19, r1
    68ac:	51 f1       	breq	.+84     	; 0x6902 <USART2_RX_Handler+0x8c>
    68ae:	25 30       	cpi	r18, 0x05	; 5
    68b0:	31 05       	cpc	r19, r1
    68b2:	18 f4       	brcc	.+6      	; 0x68ba <USART2_RX_Handler+0x44>
    68b4:	23 2b       	or	r18, r19
    68b6:	51 f0       	breq	.+20     	; 0x68cc <USART2_RX_Handler+0x56>
    68b8:	78 c1       	rjmp	.+752    	; 0x6baa <USART2_RX_Handler+0x334>
    68ba:	28 30       	cpi	r18, 0x08	; 8
    68bc:	31 05       	cpc	r19, r1
    68be:	09 f4       	brne	.+2      	; 0x68c2 <USART2_RX_Handler+0x4c>
    68c0:	5b c0       	rjmp	.+182    	; 0x6978 <USART2_RX_Handler+0x102>
    68c2:	2c 30       	cpi	r18, 0x0C	; 12
    68c4:	31 05       	cpc	r19, r1
    68c6:	09 f0       	breq	.+2      	; 0x68ca <USART2_RX_Handler+0x54>
    68c8:	70 c1       	rjmp	.+736    	; 0x6baa <USART2_RX_Handler+0x334>
    68ca:	9a c0       	rjmp	.+308    	; 0x6a00 <USART2_RX_Handler+0x18a>
			case usart2_input_ready:
				bData[index++] = Det_Address;
    68cc:	80 91 f9 0e 	lds	r24, 0x0EF9
    68d0:	89 83       	std	Y+1, r24	; 0x01
				bData[index++] = MTX_FUNCODE_INPUT;
    68d2:	84 e0       	ldi	r24, 0x04	; 4
    68d4:	8a 83       	std	Y+2, r24	; 0x02
				bData[index++] = 0;
    68d6:	1b 82       	std	Y+3, r1	; 0x03
				bData[index++] = 0;
    68d8:	1c 82       	std	Y+4, r1	; 0x04
				bData[index++] = 0;
    68da:	1d 82       	std	Y+5, r1	; 0x05
				bData[index++] = INPUT_REG_MAX_CNT;
    68dc:	81 e4       	ldi	r24, 0x41	; 65
    68de:	8e 83       	std	Y+6, r24	; 0x06
				
				wCRC = CRC16( &bData[0], 6 );
    68e0:	8e 01       	movw	r16, r28
    68e2:	0f 5f       	subi	r16, 0xFF	; 255
    68e4:	1f 4f       	sbci	r17, 0xFF	; 255
    68e6:	c8 01       	movw	r24, r16
    68e8:	66 e0       	ldi	r22, 0x06	; 6
    68ea:	70 e0       	ldi	r23, 0x00	; 0
    68ec:	0e 94 98 27 	call	0x4f30	; 0x4f30 <CRC16>
				bData[index++] = wCRC & 255;
    68f0:	8f 83       	std	Y+7, r24	; 0x07
				bData[index++] = wCRC >> 8 & 255;
    68f2:	98 87       	std	Y+8, r25	; 0x08
				
				USART2_Packet_Send( bData, index );
    68f4:	c8 01       	movw	r24, r16
    68f6:	68 e0       	ldi	r22, 0x08	; 8
    68f8:	0e 94 7b 30 	call	0x60f6	; 0x60f6 <USART2_Packet_Send>
	
				Det_Modbus_Buf[Det_Reg_Status] = usart2_input_tx_complete;
    68fc:	81 e0       	ldi	r24, 0x01	; 1
    68fe:	90 e0       	ldi	r25, 0x00	; 0
    6900:	2c c0       	rjmp	.+88     	; 0x695a <USART2_RX_Handler+0xe4>
				sTimerTick[TMR_DET_TIMEOUT] = USART2_TIMEOUT_CNT;
				sTimerFlag[TMR_DET_TIMEOUT] = 0;
				Det_com_cnt++;
				break;
			case usart2_holding_ready:
				bData[index++] = Det_Address;
    6902:	80 91 f9 0e 	lds	r24, 0x0EF9
    6906:	89 83       	std	Y+1, r24	; 0x01
				bData[index++] = MTX_FUNCODE_HOLDING;
    6908:	83 e0       	ldi	r24, 0x03	; 3
    690a:	8a 83       	std	Y+2, r24	; 0x02
				bData[index++] = 0;
    690c:	1b 82       	std	Y+3, r1	; 0x03
				bData[index++] = HOLDING_REG_MAX_CNT * Det_Modbus_Buf[Det_Hoding_Read_Cnt];
    690e:	20 91 26 15 	lds	r18, 0x1526
    6912:	30 91 27 15 	lds	r19, 0x1527
    6916:	8b e6       	ldi	r24, 0x6B	; 107
    6918:	90 e0       	ldi	r25, 0x00	; 0
    691a:	ac 01       	movw	r20, r24
    691c:	24 9f       	mul	r18, r20
    691e:	c0 01       	movw	r24, r0
    6920:	25 9f       	mul	r18, r21
    6922:	90 0d       	add	r25, r0
    6924:	34 9f       	mul	r19, r20
    6926:	90 0d       	add	r25, r0
    6928:	11 24       	eor	r1, r1
    692a:	8c 83       	std	Y+4, r24	; 0x04
				bData[index++] = 0;
    692c:	1d 82       	std	Y+5, r1	; 0x05
				if(!Det_Modbus_Buf[Det_Hoding_Read_Cnt]){
    692e:	23 2b       	or	r18, r19
    6930:	11 f4       	brne	.+4      	; 0x6936 <USART2_RX_Handler+0xc0>
					bData[index++] = HOLDING_REG_MAX_CNT;
    6932:	8b e6       	ldi	r24, 0x6B	; 107
    6934:	01 c0       	rjmp	.+2      	; 0x6938 <USART2_RX_Handler+0xc2>
				}
				else{
					bData[index++] = HOLDING_REG_MAX_CNT + 1;
    6936:	8c e6       	ldi	r24, 0x6C	; 108
    6938:	8e 83       	std	Y+6, r24	; 0x06
				}
	
				wCRC = CRC16( &bData[0], 6 );
    693a:	8e 01       	movw	r16, r28
    693c:	0f 5f       	subi	r16, 0xFF	; 255
    693e:	1f 4f       	sbci	r17, 0xFF	; 255
    6940:	c8 01       	movw	r24, r16
    6942:	66 e0       	ldi	r22, 0x06	; 6
    6944:	70 e0       	ldi	r23, 0x00	; 0
    6946:	0e 94 98 27 	call	0x4f30	; 0x4f30 <CRC16>
				bData[index++] = wCRC & 255;
    694a:	8f 83       	std	Y+7, r24	; 0x07
				bData[index++] = wCRC >> 8 & 255;
    694c:	98 87       	std	Y+8, r25	; 0x08
				
				USART2_Packet_Send( bData, index );
    694e:	c8 01       	movw	r24, r16
    6950:	68 e0       	ldi	r22, 0x08	; 8
    6952:	0e 94 7b 30 	call	0x60f6	; 0x60f6 <USART2_Packet_Send>
	
				Det_Modbus_Buf[Det_Reg_Status] = usart2_holding_tx_complete;
    6956:	85 e0       	ldi	r24, 0x05	; 5
    6958:	90 e0       	ldi	r25, 0x00	; 0
    695a:	90 93 1b 15 	sts	0x151B, r25
    695e:	80 93 1a 15 	sts	0x151A, r24
				sTimerTick[TMR_DET_TIMEOUT] = USART2_TIMEOUT_CNT;
    6962:	87 e5       	ldi	r24, 0x57	; 87
    6964:	92 e8       	ldi	r25, 0x82	; 130
    6966:	90 93 24 0f 	sts	0x0F24, r25
    696a:	80 93 23 0f 	sts	0x0F23, r24
				sTimerFlag[TMR_DET_TIMEOUT] = 0;
    696e:	10 92 4e 0f 	sts	0x0F4E, r1
    6972:	10 92 4d 0f 	sts	0x0F4D, r1
    6976:	14 c1       	rjmp	.+552    	; 0x6ba0 <USART2_RX_Handler+0x32a>
				Det_com_cnt++;
				break;
			case usart2_write_s_ready:
				if(Det_Modbus_Buf[Det_Write_Register_Flag] == 1){
    6978:	80 91 2a 15 	lds	r24, 0x152A
    697c:	90 91 2b 15 	lds	r25, 0x152B
    6980:	01 97       	sbiw	r24, 0x01	; 1
    6982:	d9 f5       	brne	.+118    	; 0x69fa <USART2_RX_Handler+0x184>
					Rx2_write_tx_Buf[index++] = Det_Address;
    6984:	80 91 f9 0e 	lds	r24, 0x0EF9
    6988:	80 93 ad 16 	sts	0x16AD, r24
					Rx2_write_tx_Buf[index++] = MTX_FUNCODE_WRITE_SINGLE;
    698c:	86 e0       	ldi	r24, 0x06	; 6
    698e:	80 93 ae 16 	sts	0x16AE, r24
					Rx2_write_tx_Buf[index++] = Det_Modbus_Buf[Det_Write_Register_Addr] >> 8 & 255;
    6992:	90 91 2c 15 	lds	r25, 0x152C
    6996:	80 91 2d 15 	lds	r24, 0x152D
    699a:	80 93 af 16 	sts	0x16AF, r24
					Rx2_write_tx_Buf[index++] = Det_Modbus_Buf[Det_Write_Register_Addr] & 255;
    699e:	90 93 b0 16 	sts	0x16B0, r25
					Rx2_write_tx_Buf[index++] = Det_Modbus_Buf[Det_Write_Register_Data] >> 8 & 255;
    69a2:	90 91 2e 15 	lds	r25, 0x152E
    69a6:	80 91 2f 15 	lds	r24, 0x152F
    69aa:	80 93 b1 16 	sts	0x16B1, r24
					Rx2_write_tx_Buf[index++] = Det_Modbus_Buf[Det_Write_Register_Data] & 255;
    69ae:	90 93 b2 16 	sts	0x16B2, r25
					
					wCRC = CRC16( &Rx2_write_tx_Buf[0], index );
    69b2:	8d ea       	ldi	r24, 0xAD	; 173
    69b4:	96 e1       	ldi	r25, 0x16	; 22
    69b6:	66 e0       	ldi	r22, 0x06	; 6
    69b8:	70 e0       	ldi	r23, 0x00	; 0
    69ba:	0e 94 98 27 	call	0x4f30	; 0x4f30 <CRC16>
					Rx2_write_tx_Buf[index++] = wCRC & 255;
    69be:	80 93 b3 16 	sts	0x16B3, r24
					Rx2_write_tx_Buf[index++] = wCRC >> 8 & 255;
    69c2:	90 93 b4 16 	sts	0x16B4, r25
					
					USART2_Packet_Send( Rx2_write_tx_Buf, index );
    69c6:	8d ea       	ldi	r24, 0xAD	; 173
    69c8:	96 e1       	ldi	r25, 0x16	; 22
    69ca:	68 e0       	ldi	r22, 0x08	; 8
    69cc:	0e 94 7b 30 	call	0x60f6	; 0x60f6 <USART2_Packet_Send>
			
					Det_Modbus_Buf[Det_Reg_Status] = usart2_write_s_tx_complete;
    69d0:	89 e0       	ldi	r24, 0x09	; 9
    69d2:	90 e0       	ldi	r25, 0x00	; 0
    69d4:	90 93 1b 15 	sts	0x151B, r25
    69d8:	80 93 1a 15 	sts	0x151A, r24
					sTimerTick[TMR_DET_TIMEOUT] = USART2_TIMEOUT_CNT;
    69dc:	87 e5       	ldi	r24, 0x57	; 87
    69de:	92 e8       	ldi	r25, 0x82	; 130
    69e0:	90 93 24 0f 	sts	0x0F24, r25
    69e4:	80 93 23 0f 	sts	0x0F23, r24
					sTimerFlag[TMR_DET_TIMEOUT] = 0;
    69e8:	10 92 4e 0f 	sts	0x0F4E, r1
    69ec:	10 92 4d 0f 	sts	0x0F4D, r1
					
					Det_Modbus_Buf[Det_Write_Register_Flag] = 0;
    69f0:	10 92 2b 15 	sts	0x152B, r1
    69f4:	10 92 2a 15 	sts	0x152A, r1
    69f8:	d3 c0       	rjmp	.+422    	; 0x6ba0 <USART2_RX_Handler+0x32a>
				}
				else{
					Det_Modbus_Buf[Det_Reg_Status] = usart2_write_s_complete_delay;
    69fa:	8b e0       	ldi	r24, 0x0B	; 11
    69fc:	90 e0       	ldi	r25, 0x00	; 0
    69fe:	c6 c0       	rjmp	.+396    	; 0x6b8c <USART2_RX_Handler+0x316>
					sTimerFlag[TMR_MODBUS_DELAY] = 1;
				}
				Det_com_cnt++;
				break;
			case usart2_write_m_ready:
				if(Det_Modbus_Buf[Det_Write_Register_Flag] == 2){
    6a00:	80 91 2a 15 	lds	r24, 0x152A
    6a04:	90 91 2b 15 	lds	r25, 0x152B
    6a08:	02 97       	sbiw	r24, 0x02	; 2
    6a0a:	09 f0       	breq	.+2      	; 0x6a0e <USART2_RX_Handler+0x198>
    6a0c:	bd c0       	rjmp	.+378    	; 0x6b88 <USART2_RX_Handler+0x312>
					s_addr = Det_Modbus_Buf[Det_Write_Register_Addr];
    6a0e:	60 91 2c 15 	lds	r22, 0x152C
    6a12:	70 91 2d 15 	lds	r23, 0x152D
					e_addr = Det_Modbus_Buf[Det_Write_Register_Data];
    6a16:	20 91 2e 15 	lds	r18, 0x152E
    6a1a:	30 91 2f 15 	lds	r19, 0x152F
					
					if(Det_Modbus_Buf[Det_Write_Over_Cnt_Flag] == 0){
    6a1e:	80 91 32 15 	lds	r24, 0x1532
    6a22:	90 91 33 15 	lds	r25, 0x1533
    6a26:	89 2b       	or	r24, r25
    6a28:	f1 f4       	brne	.+60     	; 0x6a66 <USART2_RX_Handler+0x1f0>
						if( (e_addr - s_addr) > 80){
    6a2a:	26 1b       	sub	r18, r22
    6a2c:	37 0b       	sbc	r19, r23
    6a2e:	21 35       	cpi	r18, 0x51	; 81
    6a30:	31 05       	cpc	r19, r1
    6a32:	58 f0       	brcs	.+22     	; 0x6a4a <USART2_RX_Handler+0x1d4>
							e_addr = 80;
							addr_cnt = e_addr;
							Det_Modbus_Buf[Det_Write_Over_Cnt_Flag] = 1;
    6a34:	81 e0       	ldi	r24, 0x01	; 1
    6a36:	90 e0       	ldi	r25, 0x00	; 0
    6a38:	90 93 33 15 	sts	0x1533, r25
    6a3c:	80 93 32 15 	sts	0x1532, r24
    6a40:	40 e5       	ldi	r20, 0x50	; 80
    6a42:	50 e0       	ldi	r21, 0x00	; 0
    6a44:	20 e5       	ldi	r18, 0x50	; 80
    6a46:	30 e0       	ldi	r19, 0x00	; 0
    6a48:	24 c0       	rjmp	.+72     	; 0x6a92 <USART2_RX_Handler+0x21c>
							//DPRINT3("m1%d, %d, %d\n", s_addr, e_addr, addr_cnt);
						}
						else{
							e_addr = e_addr - s_addr;
							addr_cnt = e_addr;
							Det_Modbus_Buf[Det_Write_Register_Flag] = 0;
    6a4a:	10 92 2b 15 	sts	0x152B, r1
    6a4e:	10 92 2a 15 	sts	0x152A, r1
							Det_Modbus_Buf[Det_Write_Register_Addr] = 0;
    6a52:	10 92 2d 15 	sts	0x152D, r1
    6a56:	10 92 2c 15 	sts	0x152C, r1
							Det_Modbus_Buf[Det_Write_Register_Data] = 0;
    6a5a:	10 92 2f 15 	sts	0x152F, r1
    6a5e:	10 92 2e 15 	sts	0x152E, r1
    6a62:	a9 01       	movw	r20, r18
    6a64:	16 c0       	rjmp	.+44     	; 0x6a92 <USART2_RX_Handler+0x21c>
							//DPRINT3("m2%d, %d, %d\n", s_addr, e_addr, addr_cnt);
						}
					}
					else{
						s_addr = s_addr + 80;
    6a66:	60 5b       	subi	r22, 0xB0	; 176
    6a68:	7f 4f       	sbci	r23, 0xFF	; 255
						e_addr = e_addr - s_addr;
    6a6a:	a9 01       	movw	r20, r18
    6a6c:	46 1b       	sub	r20, r22
    6a6e:	57 0b       	sbc	r21, r23
						addr_cnt = e_addr;
						Det_Modbus_Buf[Det_Write_Over_Cnt_Flag] = 0;
    6a70:	10 92 33 15 	sts	0x1533, r1
    6a74:	10 92 32 15 	sts	0x1532, r1
						Det_Modbus_Buf[Det_Write_Register_Flag] = 0;
    6a78:	10 92 2b 15 	sts	0x152B, r1
    6a7c:	10 92 2a 15 	sts	0x152A, r1
						Det_Modbus_Buf[Det_Write_Register_Addr] = 0;
    6a80:	10 92 2d 15 	sts	0x152D, r1
    6a84:	10 92 2c 15 	sts	0x152C, r1
						Det_Modbus_Buf[Det_Write_Register_Data] = 0;
    6a88:	10 92 2f 15 	sts	0x152F, r1
    6a8c:	10 92 2e 15 	sts	0x152E, r1
    6a90:	9a 01       	movw	r18, r20
						//DPRINT3("m3%d, %d, %d\n", s_addr, e_addr, addr_cnt);						
					}
					
					Rx2_write_tx_Buf[index++] = Det_Address;
    6a92:	80 91 f9 0e 	lds	r24, 0x0EF9
    6a96:	80 93 ad 16 	sts	0x16AD, r24
					Rx2_write_tx_Buf[index++] = MTX_FUNCODE_WRITE_MULTIPLE;
    6a9a:	80 e1       	ldi	r24, 0x10	; 16
    6a9c:	80 93 ae 16 	sts	0x16AE, r24
					Rx2_write_tx_Buf[index++] = s_addr >> 8 & 255;
    6aa0:	70 93 af 16 	sts	0x16AF, r23
					Rx2_write_tx_Buf[index++] = s_addr & 255;
    6aa4:	60 93 b0 16 	sts	0x16B0, r22
					Rx2_write_tx_Buf[index++] = e_addr >> 8 & 255;
    6aa8:	50 93 b1 16 	sts	0x16B1, r21
					Rx2_write_tx_Buf[index++] = e_addr & 255;
    6aac:	40 93 b2 16 	sts	0x16B2, r20
					Rx2_write_tx_Buf[index++] = addr_cnt * 2;
    6ab0:	22 0f       	add	r18, r18
    6ab2:	33 1f       	adc	r19, r19
    6ab4:	20 93 b3 16 	sts	0x16B3, r18
					
					if(Det_Modbus_Buf[Det_Comm_Flow_Set] == Commnication_IR_Calribration_Set){
    6ab8:	80 91 20 15 	lds	r24, 0x1520
    6abc:	90 91 21 15 	lds	r25, 0x1521
    6ac0:	06 97       	sbiw	r24, 0x06	; 6
    6ac2:	71 f0       	breq	.+28     	; 0x6ae0 <USART2_RX_Handler+0x26a>
    6ac4:	9b 01       	movw	r18, r22
    6ac6:	22 0f       	add	r18, r18
    6ac8:	33 1f       	adc	r19, r19
    6aca:	20 5d       	subi	r18, 0xD0	; 208
    6acc:	3e 4e       	sbci	r19, 0xEE	; 238
    6ace:	ad ea       	ldi	r26, 0xAD	; 173
    6ad0:	b6 e1       	ldi	r27, 0x16	; 22
	}
}

/////////////////////////////////////////////////////////////////////////////////////////////////////////////////////////////////////
void USART2_RX_Handler(void)
{
    6ad2:	ba 01       	movw	r22, r20
    6ad4:	66 0f       	add	r22, r22
    6ad6:	77 1f       	adc	r23, r23
							Rx2_write_tx_Buf[index++] = Det_IrAvPtoP_Data[i] >> 8 & 255;
							Rx2_write_tx_Buf[index++] = Det_IrAvPtoP_Data[i] & 255;
						}
					}
					else{	//if(Det_Modbus_Buf[Det_Comm_Flow_Set] == Commnication_Eep_Clear_Set){
						for(i = 0; i < e_addr; i++)
    6ad8:	ab 01       	movw	r20, r22
    6ada:	4a 0f       	add	r20, r26
    6adc:	5b 1f       	adc	r21, r27
    6ade:	23 c0       	rjmp	.+70     	; 0x6b26 <USART2_RX_Handler+0x2b0>
					Rx2_write_tx_Buf[index++] = s_addr & 255;
					Rx2_write_tx_Buf[index++] = e_addr >> 8 & 255;
					Rx2_write_tx_Buf[index++] = e_addr & 255;
					Rx2_write_tx_Buf[index++] = addr_cnt * 2;
					
					if(Det_Modbus_Buf[Det_Comm_Flow_Set] == Commnication_IR_Calribration_Set){
    6ae0:	a6 e8       	ldi	r26, 0x86	; 134
    6ae2:	ba e0       	ldi	r27, 0x0A	; 10
    6ae4:	e4 eb       	ldi	r30, 0xB4	; 180
    6ae6:	f6 e1       	ldi	r31, 0x16	; 22
	}
}

/////////////////////////////////////////////////////////////////////////////////////////////////////////////////////////////////////
void USART2_RX_Handler(void)
{
    6ae8:	ba 01       	movw	r22, r20
    6aea:	66 0f       	add	r22, r22
    6aec:	77 1f       	adc	r23, r23
					Rx2_write_tx_Buf[index++] = e_addr >> 8 & 255;
					Rx2_write_tx_Buf[index++] = e_addr & 255;
					Rx2_write_tx_Buf[index++] = addr_cnt * 2;
					
					if(Det_Modbus_Buf[Det_Comm_Flow_Set] == Commnication_IR_Calribration_Set){
						for(i = 0; i < e_addr; i++)
    6aee:	9b 01       	movw	r18, r22
    6af0:	2a 0f       	add	r18, r26
    6af2:	3b 1f       	adc	r19, r27
    6af4:	08 c0       	rjmp	.+16     	; 0x6b06 <USART2_RX_Handler+0x290>
						{
							Rx2_write_tx_Buf[index++] = Det_IrAvPtoP_Data[i] >> 8 & 255;
    6af6:	9c 91       	ld	r25, X
    6af8:	11 96       	adiw	r26, 0x01	; 1
    6afa:	8c 91       	ld	r24, X
    6afc:	11 97       	sbiw	r26, 0x01	; 1
    6afe:	80 83       	st	Z, r24
							Rx2_write_tx_Buf[index++] = Det_IrAvPtoP_Data[i] & 255;
    6b00:	91 83       	std	Z+1, r25	; 0x01
    6b02:	12 96       	adiw	r26, 0x02	; 2
    6b04:	32 96       	adiw	r30, 0x02	; 2
					Rx2_write_tx_Buf[index++] = e_addr >> 8 & 255;
					Rx2_write_tx_Buf[index++] = e_addr & 255;
					Rx2_write_tx_Buf[index++] = addr_cnt * 2;
					
					if(Det_Modbus_Buf[Det_Comm_Flow_Set] == Commnication_IR_Calribration_Set){
						for(i = 0; i < e_addr; i++)
    6b06:	a2 17       	cp	r26, r18
    6b08:	b3 07       	cpc	r27, r19
    6b0a:	a9 f7       	brne	.-22     	; 0x6af6 <USART2_RX_Handler+0x280>
    6b0c:	0f c0       	rjmp	.+30     	; 0x6b2c <USART2_RX_Handler+0x2b6>
						}
					}
					else{	//if(Det_Modbus_Buf[Det_Comm_Flow_Set] == Commnication_Eep_Clear_Set){
						for(i = 0; i < e_addr; i++)
						{
							Rx2_write_tx_Buf[index++] = pgm_read_word( &DET_EEP_SYS_DEFAULT[s_addr + i] ) >> 8 & 255;
    6b0e:	f9 01       	movw	r30, r18
    6b10:	85 91       	lpm	r24, Z+
    6b12:	94 91       	lpm	r25, Z+
    6b14:	17 96       	adiw	r26, 0x07	; 7
    6b16:	9c 93       	st	X, r25
    6b18:	17 97       	sbiw	r26, 0x07	; 7
							Rx2_write_tx_Buf[index++] = pgm_read_word( &DET_EEP_SYS_DEFAULT[s_addr + i] ) & 255;
    6b1a:	18 96       	adiw	r26, 0x08	; 8
    6b1c:	8c 93       	st	X, r24
    6b1e:	18 97       	sbiw	r26, 0x08	; 8
    6b20:	2e 5f       	subi	r18, 0xFE	; 254
    6b22:	3f 4f       	sbci	r19, 0xFF	; 255
    6b24:	12 96       	adiw	r26, 0x02	; 2
							Rx2_write_tx_Buf[index++] = Det_IrAvPtoP_Data[i] >> 8 & 255;
							Rx2_write_tx_Buf[index++] = Det_IrAvPtoP_Data[i] & 255;
						}
					}
					else{	//if(Det_Modbus_Buf[Det_Comm_Flow_Set] == Commnication_Eep_Clear_Set){
						for(i = 0; i < e_addr; i++)
    6b26:	a4 17       	cp	r26, r20
    6b28:	b5 07       	cpc	r27, r21
    6b2a:	89 f7       	brne	.-30     	; 0x6b0e <USART2_RX_Handler+0x298>
    6b2c:	8b 01       	movw	r16, r22
    6b2e:	09 5f       	subi	r16, 0xF9	; 249
    6b30:	1f 4f       	sbci	r17, 0xFF	; 255
							Rx2_write_tx_Buf[index++] = pgm_read_word( &DET_EEP_SYS_DEFAULT[s_addr + i] ) >> 8 & 255;
							Rx2_write_tx_Buf[index++] = pgm_read_word( &DET_EEP_SYS_DEFAULT[s_addr + i] ) & 255;
						}
					}
					
					wCRC = CRC16( &Rx2_write_tx_Buf[0], index );
    6b32:	8d ea       	ldi	r24, 0xAD	; 173
    6b34:	96 e1       	ldi	r25, 0x16	; 22
    6b36:	b8 01       	movw	r22, r16
    6b38:	0e 94 98 27 	call	0x4f30	; 0x4f30 <CRC16>
					
					Rx2_write_tx_Buf[index++] = wCRC & 255;
    6b3c:	f8 01       	movw	r30, r16
    6b3e:	e3 55       	subi	r30, 0x53	; 83
    6b40:	f9 4e       	sbci	r31, 0xE9	; 233
    6b42:	80 83       	st	Z, r24
    6b44:	b8 01       	movw	r22, r16
    6b46:	6f 5f       	subi	r22, 0xFF	; 255
    6b48:	7f 4f       	sbci	r23, 0xFF	; 255
					Rx2_write_tx_Buf[index++] = wCRC >> 8 & 255;
    6b4a:	fb 01       	movw	r30, r22
    6b4c:	e3 55       	subi	r30, 0x53	; 83
    6b4e:	f9 4e       	sbci	r31, 0xE9	; 233
    6b50:	90 83       	st	Z, r25
					
					USART2_Packet_Send( Rx2_write_tx_Buf, index );
    6b52:	6f 5f       	subi	r22, 0xFF	; 255
    6b54:	7f 4f       	sbci	r23, 0xFF	; 255
    6b56:	8d ea       	ldi	r24, 0xAD	; 173
    6b58:	96 e1       	ldi	r25, 0x16	; 22
    6b5a:	0e 94 7b 30 	call	0x60f6	; 0x60f6 <USART2_Packet_Send>
			
					//Det_Modbus_Buf[Det_Reg_Status] = usart2_write_m_tx_complete;
					sTimerTick[TMR_DET_TIMEOUT] = USART2_TIMEOUT_CNT + 999;
    6b5e:	8e e3       	ldi	r24, 0x3E	; 62
    6b60:	96 e8       	ldi	r25, 0x86	; 134
    6b62:	90 93 24 0f 	sts	0x0F24, r25
    6b66:	80 93 23 0f 	sts	0x0F23, r24
					sTimerFlag[TMR_DET_TIMEOUT] = 0;
    6b6a:	10 92 4e 0f 	sts	0x0F4E, r1
    6b6e:	10 92 4d 0f 	sts	0x0F4D, r1
					
					Det_Modbus_Buf[Det_Write_Register_Flag] = 0;
    6b72:	10 92 2b 15 	sts	0x152B, r1
    6b76:	10 92 2a 15 	sts	0x152A, r1
					Det_Modbus_Buf[Det_Reg_Status] = usart2_write_m_complete_delay;
    6b7a:	8f e0       	ldi	r24, 0x0F	; 15
    6b7c:	90 e0       	ldi	r25, 0x00	; 0
    6b7e:	90 93 1b 15 	sts	0x151B, r25
    6b82:	80 93 1a 15 	sts	0x151A, r24
    6b86:	0c c0       	rjmp	.+24     	; 0x6ba0 <USART2_RX_Handler+0x32a>
				}
				else{
					Det_Modbus_Buf[Det_Reg_Status] = usart2_write_m_complete_delay;
    6b88:	8f e0       	ldi	r24, 0x0F	; 15
    6b8a:	90 e0       	ldi	r25, 0x00	; 0
    6b8c:	90 93 1b 15 	sts	0x151B, r25
    6b90:	80 93 1a 15 	sts	0x151A, r24
					sTimerFlag[TMR_MODBUS_DELAY] = 1;
    6b94:	81 e0       	ldi	r24, 0x01	; 1
    6b96:	90 e0       	ldi	r25, 0x00	; 0
    6b98:	90 93 4a 0f 	sts	0x0F4A, r25
    6b9c:	80 93 49 0f 	sts	0x0F49, r24
				}
				Det_com_cnt++;
    6ba0:	80 91 9b 11 	lds	r24, 0x119B
    6ba4:	8f 5f       	subi	r24, 0xFF	; 255
    6ba6:	80 93 9b 11 	sts	0x119B, r24
				break;
		}
		Det_Modbus_Buf[Det_Reg_Status_Old] = Det_Modbus_Buf[Det_Reg_Status];
    6baa:	80 91 1a 15 	lds	r24, 0x151A
    6bae:	90 91 1b 15 	lds	r25, 0x151B
    6bb2:	90 93 1d 15 	sts	0x151D, r25
    6bb6:	80 93 1c 15 	sts	0x151C, r24
	}
}
    6bba:	c0 50       	subi	r28, 0x00	; 0
    6bbc:	df 4f       	sbci	r29, 0xFF	; 255
    6bbe:	0f b6       	in	r0, 0x3f	; 63
    6bc0:	f8 94       	cli
    6bc2:	de bf       	out	0x3e, r29	; 62
    6bc4:	0f be       	out	0x3f, r0	; 63
    6bc6:	cd bf       	out	0x3d, r28	; 61
    6bc8:	cf 91       	pop	r28
    6bca:	df 91       	pop	r29
    6bcc:	1f 91       	pop	r17
    6bce:	0f 91       	pop	r16
    6bd0:	08 95       	ret

00006bd2 <USART1_Rx_Handler>:
void USART1_Rx_Handler( void )
{
	U8		bHp, bTp;
	
	bHp = Rx1FifoHp & 1;
	bTp = Rx1FifoTp & 1;
    6bd2:	90 91 ab 16 	lds	r25, 0x16AB
    6bd6:	29 2f       	mov	r18, r25
    6bd8:	21 70       	andi	r18, 0x01	; 1
	
	if( bHp != bTp ){
    6bda:	80 91 17 15 	lds	r24, 0x1517
    6bde:	81 70       	andi	r24, 0x01	; 1
    6be0:	82 17       	cp	r24, r18
    6be2:	49 f0       	breq	.+18     	; 0x6bf6 <USART1_Rx_Handler+0x24>
		Rx1FifoTp++;
    6be4:	9f 5f       	subi	r25, 0xFF	; 255
    6be6:	90 93 ab 16 	sts	0x16AB, r25
		MODBUS_Packet_Decoder( &Rx1Buf[bTp][0] );
    6bea:	92 2f       	mov	r25, r18
    6bec:	80 e0       	ldi	r24, 0x00	; 0
    6bee:	87 5c       	subi	r24, 0xC7	; 199
    6bf0:	95 4e       	sbci	r25, 0xE5	; 229
    6bf2:	0e 94 21 2a 	call	0x5442	; 0x5442 <MODBUS_Packet_Decoder>
    6bf6:	08 95       	ret

00006bf8 <dac7571_dac_dly>:
*******************************************************************************
*/
void dac7571_dac_dly(void)
{
	//Delay_us(5);
	Delay_us(20);
    6bf8:	84 e1       	ldi	r24, 0x14	; 20
    6bfa:	0e 94 11 2b 	call	0x5622	; 0x5622 <Delay_us>
}
    6bfe:	08 95       	ret

00006c00 <dac7571_dac_byte_wr>:
*******************************************************************************
*
*******************************************************************************
*/
void dac7571_dac_byte_wr(BYTE dat)
{
    6c00:	0f 93       	push	r16
    6c02:	1f 93       	push	r17
    6c04:	cf 93       	push	r28
    6c06:	df 93       	push	r29
    6c08:	c0 e0       	ldi	r28, 0x00	; 0
    6c0a:	d0 e0       	ldi	r29, 0x00	; 0
BYTE cnt;

	for(cnt=0;cnt<8;cnt++)
	{
		if ( (dat<<cnt) & 0x80)		//MSB data bit check
    6c0c:	08 2f       	mov	r16, r24
    6c0e:	10 e0       	ldi	r17, 0x00	; 0
    6c10:	c8 01       	movw	r24, r16
    6c12:	0c 2e       	mov	r0, r28
    6c14:	02 c0       	rjmp	.+4      	; 0x6c1a <dac7571_dac_byte_wr+0x1a>
    6c16:	88 0f       	add	r24, r24
    6c18:	99 1f       	adc	r25, r25
    6c1a:	0a 94       	dec	r0
    6c1c:	e2 f7       	brpl	.-8      	; 0x6c16 <dac7571_dac_byte_wr+0x16>
    6c1e:	87 ff       	sbrs	r24, 7
    6c20:	02 c0       	rjmp	.+4      	; 0x6c26 <dac7571_dac_byte_wr+0x26>
		{
			DAC_SDA_H();	//PDAC_DATA_HIGH;		//DACIIC Data high + Delay 6usec
    6c22:	13 9a       	sbi	0x02, 3	; 2
    6c24:	01 c0       	rjmp	.+2      	; 0x6c28 <dac7571_dac_byte_wr+0x28>
		}else
		{
			DAC_SDA_L();	//PDAC_DATA_LOW;		//DACIIC Data low + Delay 6usec
    6c26:	13 98       	cbi	0x02, 3	; 2
*******************************************************************************
*/
void dac7571_dac_dly(void)
{
	//Delay_us(5);
	Delay_us(20);
    6c28:	84 e1       	ldi	r24, 0x14	; 20
    6c2a:	0e 94 11 2b 	call	0x5622	; 0x5622 <Delay_us>
		{
			DAC_SDA_L();	//PDAC_DATA_LOW;		//DACIIC Data low + Delay 6usec
		}
		
		dac7571_dac_dly();
		DAC_SCL_H();		//PDAC_CLOCK_HIGH;		//DACIIC Clock high + Delay 6usec
    6c2e:	12 9a       	sbi	0x02, 2	; 2
*******************************************************************************
*/
void dac7571_dac_dly(void)
{
	//Delay_us(5);
	Delay_us(20);
    6c30:	84 e1       	ldi	r24, 0x14	; 20
    6c32:	0e 94 11 2b 	call	0x5622	; 0x5622 <Delay_us>
		}
		
		dac7571_dac_dly();
		DAC_SCL_H();		//PDAC_CLOCK_HIGH;		//DACIIC Clock high + Delay 6usec
		dac7571_dac_dly();
		DAC_SCL_L();		//PDAC_CLOCK_LOW;		//DACIIC Clock low + Delay 6usec		
    6c36:	12 98       	cbi	0x02, 2	; 2
*******************************************************************************
*/
void dac7571_dac_dly(void)
{
	//Delay_us(5);
	Delay_us(20);
    6c38:	84 e1       	ldi	r24, 0x14	; 20
    6c3a:	0e 94 11 2b 	call	0x5622	; 0x5622 <Delay_us>
    6c3e:	21 96       	adiw	r28, 0x01	; 1
*/
void dac7571_dac_byte_wr(BYTE dat)
{
BYTE cnt;

	for(cnt=0;cnt<8;cnt++)
    6c40:	c8 30       	cpi	r28, 0x08	; 8
    6c42:	d1 05       	cpc	r29, r1
    6c44:	29 f7       	brne	.-54     	; 0x6c10 <dac7571_dac_byte_wr+0x10>
		DAC_SCL_H();		//PDAC_CLOCK_HIGH;		//DACIIC Clock high + Delay 6usec
		dac7571_dac_dly();
		DAC_SCL_L();		//PDAC_CLOCK_LOW;		//DACIIC Clock low + Delay 6usec		
		dac7571_dac_dly();
	}
	DAC_SDA_L();
    6c46:	13 98       	cbi	0x02, 3	; 2
    6c48:	df 91       	pop	r29
    6c4a:	cf 91       	pop	r28
    6c4c:	1f 91       	pop	r17
    6c4e:	0f 91       	pop	r16
    6c50:	08 95       	ret

00006c52 <dac7571_dac_stop>:
*******************************************************************************
*/
void dac7571_dac_dly(void)
{
	//Delay_us(5);
	Delay_us(20);
    6c52:	84 e1       	ldi	r24, 0x14	; 20
    6c54:	0e 94 11 2b 	call	0x5622	; 0x5622 <Delay_us>
*/
void dac7571_dac_stop(void)
{
	dac7571_dac_dly();
	dac7571_dac_dly();
	DAC_SCL_H();	//PDAC_CLOCK_HIGH;
    6c58:	84 e1       	ldi	r24, 0x14	; 20
    6c5a:	0e 94 11 2b 	call	0x5622	; 0x5622 <Delay_us>
    6c5e:	12 9a       	sbi	0x02, 2	; 2
*******************************************************************************
*/
void dac7571_dac_dly(void)
{
	//Delay_us(5);
	Delay_us(20);
    6c60:	84 e1       	ldi	r24, 0x14	; 20
    6c62:	0e 94 11 2b 	call	0x5622	; 0x5622 <Delay_us>
	dac7571_dac_dly();
	dac7571_dac_dly();
	DAC_SCL_H();	//PDAC_CLOCK_HIGH;
	dac7571_dac_dly();
	dac7571_dac_dly();
	DAC_SDA_H();	//PDAC_DATA_HIGH;
    6c66:	84 e1       	ldi	r24, 0x14	; 20
    6c68:	0e 94 11 2b 	call	0x5622	; 0x5622 <Delay_us>
    6c6c:	13 9a       	sbi	0x02, 3	; 2
*******************************************************************************
*/
void dac7571_dac_dly(void)
{
	//Delay_us(5);
	Delay_us(20);
    6c6e:	84 e1       	ldi	r24, 0x14	; 20
    6c70:	0e 94 11 2b 	call	0x5622	; 0x5622 <Delay_us>
	dac7571_dac_dly();
	dac7571_dac_dly();
	DAC_SDA_H();	//PDAC_DATA_HIGH;
	dac7571_dac_dly();
	dac7571_dac_dly();
}
    6c74:	84 e1       	ldi	r24, 0x14	; 20
    6c76:	0e 94 11 2b 	call	0x5622	; 0x5622 <Delay_us>
    6c7a:	08 95       	ret

00006c7c <dac7571_dac_start>:
#include "gpio.h"
#include "sw_lib.h"

void dac7571_dac_start(void)
{
	DAC_SDA_L();	//PDAC_DATA_LOW;
    6c7c:	13 98       	cbi	0x02, 3	; 2
*******************************************************************************
*/
void dac7571_dac_dly(void)
{
	//Delay_us(5);
	Delay_us(20);
    6c7e:	84 e1       	ldi	r24, 0x14	; 20
    6c80:	0e 94 11 2b 	call	0x5622	; 0x5622 <Delay_us>
void dac7571_dac_start(void)
{
	DAC_SDA_L();	//PDAC_DATA_LOW;
	dac7571_dac_dly();
	dac7571_dac_dly();
	DAC_SCL_L();	//PDAC_CLOCK_LOW;
    6c84:	84 e1       	ldi	r24, 0x14	; 20
    6c86:	0e 94 11 2b 	call	0x5622	; 0x5622 <Delay_us>
    6c8a:	12 98       	cbi	0x02, 2	; 2
*******************************************************************************
*/
void dac7571_dac_dly(void)
{
	//Delay_us(5);
	Delay_us(20);
    6c8c:	84 e1       	ldi	r24, 0x14	; 20
    6c8e:	0e 94 11 2b 	call	0x5622	; 0x5622 <Delay_us>
	dac7571_dac_dly();
	dac7571_dac_dly();
	DAC_SCL_L();	//PDAC_CLOCK_LOW;
	dac7571_dac_dly();
	dac7571_dac_dly();
}
    6c92:	84 e1       	ldi	r24, 0x14	; 20
    6c94:	0e 94 11 2b 	call	0x5622	; 0x5622 <Delay_us>
    6c98:	08 95       	ret

00006c9a <dac7571_dac_wr>:
*******************************************************************************
*
*******************************************************************************
*/
void dac7571_dac_wr(U16 dat)
{
    6c9a:	0f 93       	push	r16
    6c9c:	1f 93       	push	r17
    6c9e:	8c 01       	movw	r16, r24
	dac7571_dac_start();
    6ca0:	0e 94 3e 36 	call	0x6c7c	; 0x6c7c <dac7571_dac_start>

	dac7571_dac_byte_wr(0x98);	//DAC Write device address
    6ca4:	88 e9       	ldi	r24, 0x98	; 152
    6ca6:	0e 94 00 36 	call	0x6c00	; 0x6c00 <dac7571_dac_byte_wr>
*******************************************************************************
*/
void dac7571_dac_dly(void)
{
	//Delay_us(5);
	Delay_us(20);
    6caa:	84 e1       	ldi	r24, 0x14	; 20
    6cac:	0e 94 11 2b 	call	0x5622	; 0x5622 <Delay_us>
	dac7571_dac_start();

	dac7571_dac_byte_wr(0x98);	//DAC Write device address
	
	dac7571_dac_dly();
	DAC_SCL_H();	//PDAC_CLOCK_HIGH;		//DACIIC Clock high + Delay 6usec
    6cb0:	12 9a       	sbi	0x02, 2	; 2
*******************************************************************************
*/
void dac7571_dac_dly(void)
{
	//Delay_us(5);
	Delay_us(20);
    6cb2:	84 e1       	ldi	r24, 0x14	; 20
    6cb4:	0e 94 11 2b 	call	0x5622	; 0x5622 <Delay_us>
	dac7571_dac_byte_wr(0x98);	//DAC Write device address
	
	dac7571_dac_dly();
	DAC_SCL_H();	//PDAC_CLOCK_HIGH;		//DACIIC Clock high + Delay 6usec
	dac7571_dac_dly();
	DAC_SCL_L();	//PDAC_CLOCK_LOW;		//DACIIC Clock low + Delay 6usec
    6cb8:	12 98       	cbi	0x02, 2	; 2
*******************************************************************************
*/
void dac7571_dac_dly(void)
{
	//Delay_us(5);
	Delay_us(20);
    6cba:	84 e1       	ldi	r24, 0x14	; 20
    6cbc:	0e 94 11 2b 	call	0x5622	; 0x5622 <Delay_us>
	DAC_SCL_H();	//PDAC_CLOCK_HIGH;		//DACIIC Clock high + Delay 6usec
	dac7571_dac_dly();
	DAC_SCL_L();	//PDAC_CLOCK_LOW;		//DACIIC Clock low + Delay 6usec
	dac7571_dac_dly();

	dac7571_dac_byte_wr( (BYTE)((dat>>8)&0xf) );
    6cc0:	81 2f       	mov	r24, r17
    6cc2:	8f 70       	andi	r24, 0x0F	; 15
    6cc4:	0e 94 00 36 	call	0x6c00	; 0x6c00 <dac7571_dac_byte_wr>
*******************************************************************************
*/
void dac7571_dac_dly(void)
{
	//Delay_us(5);
	Delay_us(20);
    6cc8:	84 e1       	ldi	r24, 0x14	; 20
    6cca:	0e 94 11 2b 	call	0x5622	; 0x5622 <Delay_us>
	dac7571_dac_dly();

	dac7571_dac_byte_wr( (BYTE)((dat>>8)&0xf) );

	dac7571_dac_dly();
	DAC_SCL_H();	//PDAC_CLOCK_HIGH;		//DACIIC Clock high + Delay 6usec
    6cce:	12 9a       	sbi	0x02, 2	; 2
*******************************************************************************
*/
void dac7571_dac_dly(void)
{
	//Delay_us(5);
	Delay_us(20);
    6cd0:	84 e1       	ldi	r24, 0x14	; 20
    6cd2:	0e 94 11 2b 	call	0x5622	; 0x5622 <Delay_us>
	dac7571_dac_byte_wr( (BYTE)((dat>>8)&0xf) );

	dac7571_dac_dly();
	DAC_SCL_H();	//PDAC_CLOCK_HIGH;		//DACIIC Clock high + Delay 6usec
	dac7571_dac_dly();
	DAC_SCL_L();	//PDAC_CLOCK_LOW;		//DACIIC Clock low + Delay 6usec
    6cd6:	12 98       	cbi	0x02, 2	; 2
*******************************************************************************
*/
void dac7571_dac_dly(void)
{
	//Delay_us(5);
	Delay_us(20);
    6cd8:	84 e1       	ldi	r24, 0x14	; 20
    6cda:	0e 94 11 2b 	call	0x5622	; 0x5622 <Delay_us>
	DAC_SCL_H();	//PDAC_CLOCK_HIGH;		//DACIIC Clock high + Delay 6usec
	dac7571_dac_dly();
	DAC_SCL_L();	//PDAC_CLOCK_LOW;		//DACIIC Clock low + Delay 6usec
	dac7571_dac_dly();

	dac7571_dac_byte_wr((BYTE)((dat)&0xff));
    6cde:	80 2f       	mov	r24, r16
    6ce0:	0e 94 00 36 	call	0x6c00	; 0x6c00 <dac7571_dac_byte_wr>
*******************************************************************************
*/
void dac7571_dac_dly(void)
{
	//Delay_us(5);
	Delay_us(20);
    6ce4:	84 e1       	ldi	r24, 0x14	; 20
    6ce6:	0e 94 11 2b 	call	0x5622	; 0x5622 <Delay_us>
	dac7571_dac_dly();

	dac7571_dac_byte_wr((BYTE)((dat)&0xff));

	dac7571_dac_dly();
	DAC_SCL_H();	//PDAC_CLOCK_HIGH;		//DACIIC Clock high + Delay 6usec
    6cea:	12 9a       	sbi	0x02, 2	; 2
*******************************************************************************
*/
void dac7571_dac_dly(void)
{
	//Delay_us(5);
	Delay_us(20);
    6cec:	84 e1       	ldi	r24, 0x14	; 20
    6cee:	0e 94 11 2b 	call	0x5622	; 0x5622 <Delay_us>
	dac7571_dac_byte_wr((BYTE)((dat)&0xff));

	dac7571_dac_dly();
	DAC_SCL_H();	//PDAC_CLOCK_HIGH;		//DACIIC Clock high + Delay 6usec
	dac7571_dac_dly();
	DAC_SCL_L();	//PDAC_CLOCK_LOW;		//DACIIC Clock low + Delay 6usec
    6cf2:	12 98       	cbi	0x02, 2	; 2
*******************************************************************************
*/
void dac7571_dac_dly(void)
{
	//Delay_us(5);
	Delay_us(20);
    6cf4:	84 e1       	ldi	r24, 0x14	; 20
    6cf6:	0e 94 11 2b 	call	0x5622	; 0x5622 <Delay_us>
	DAC_SCL_H();	//PDAC_CLOCK_HIGH;		//DACIIC Clock high + Delay 6usec
	dac7571_dac_dly();
	DAC_SCL_L();	//PDAC_CLOCK_LOW;		//DACIIC Clock low + Delay 6usec
	dac7571_dac_dly();

	dac7571_dac_stop();	
    6cfa:	0e 94 29 36 	call	0x6c52	; 0x6c52 <dac7571_dac_stop>
}
    6cfe:	1f 91       	pop	r17
    6d00:	0f 91       	pop	r16
    6d02:	08 95       	ret

00006d04 <__fixunssfsi>:
    6d04:	ef 92       	push	r14
    6d06:	ff 92       	push	r15
    6d08:	0f 93       	push	r16
    6d0a:	1f 93       	push	r17
    6d0c:	7b 01       	movw	r14, r22
    6d0e:	8c 01       	movw	r16, r24
    6d10:	20 e0       	ldi	r18, 0x00	; 0
    6d12:	30 e0       	ldi	r19, 0x00	; 0
    6d14:	40 e0       	ldi	r20, 0x00	; 0
    6d16:	5f e4       	ldi	r21, 0x4F	; 79
    6d18:	0e 94 fe 39 	call	0x73fc	; 0x73fc <__gesf2>
    6d1c:	88 23       	and	r24, r24
    6d1e:	8c f0       	brlt	.+34     	; 0x6d42 <__fixunssfsi+0x3e>
    6d20:	c8 01       	movw	r24, r16
    6d22:	b7 01       	movw	r22, r14
    6d24:	20 e0       	ldi	r18, 0x00	; 0
    6d26:	30 e0       	ldi	r19, 0x00	; 0
    6d28:	40 e0       	ldi	r20, 0x00	; 0
    6d2a:	5f e4       	ldi	r21, 0x4F	; 79
    6d2c:	0e 94 fa 37 	call	0x6ff4	; 0x6ff4 <__subsf3>
    6d30:	0e 94 8c 3a 	call	0x7518	; 0x7518 <__fixsfsi>
    6d34:	9b 01       	movw	r18, r22
    6d36:	ac 01       	movw	r20, r24
    6d38:	20 50       	subi	r18, 0x00	; 0
    6d3a:	30 40       	sbci	r19, 0x00	; 0
    6d3c:	40 40       	sbci	r20, 0x00	; 0
    6d3e:	50 48       	sbci	r21, 0x80	; 128
    6d40:	06 c0       	rjmp	.+12     	; 0x6d4e <__fixunssfsi+0x4a>
    6d42:	c8 01       	movw	r24, r16
    6d44:	b7 01       	movw	r22, r14
    6d46:	0e 94 8c 3a 	call	0x7518	; 0x7518 <__fixsfsi>
    6d4a:	9b 01       	movw	r18, r22
    6d4c:	ac 01       	movw	r20, r24
    6d4e:	b9 01       	movw	r22, r18
    6d50:	ca 01       	movw	r24, r20
    6d52:	1f 91       	pop	r17
    6d54:	0f 91       	pop	r16
    6d56:	ff 90       	pop	r15
    6d58:	ef 90       	pop	r14
    6d5a:	08 95       	ret

00006d5c <_fpadd_parts>:
    6d5c:	a0 e0       	ldi	r26, 0x00	; 0
    6d5e:	b0 e0       	ldi	r27, 0x00	; 0
    6d60:	e4 eb       	ldi	r30, 0xB4	; 180
    6d62:	f6 e3       	ldi	r31, 0x36	; 54
    6d64:	0c 94 62 3d 	jmp	0x7ac4	; 0x7ac4 <__prologue_saves__>
    6d68:	dc 01       	movw	r26, r24
    6d6a:	2b 01       	movw	r4, r22
    6d6c:	fa 01       	movw	r30, r20
    6d6e:	9c 91       	ld	r25, X
    6d70:	92 30       	cpi	r25, 0x02	; 2
    6d72:	08 f4       	brcc	.+2      	; 0x6d76 <_fpadd_parts+0x1a>
    6d74:	39 c1       	rjmp	.+626    	; 0x6fe8 <_fpadd_parts+0x28c>
    6d76:	eb 01       	movw	r28, r22
    6d78:	88 81       	ld	r24, Y
    6d7a:	82 30       	cpi	r24, 0x02	; 2
    6d7c:	08 f4       	brcc	.+2      	; 0x6d80 <_fpadd_parts+0x24>
    6d7e:	33 c1       	rjmp	.+614    	; 0x6fe6 <_fpadd_parts+0x28a>
    6d80:	94 30       	cpi	r25, 0x04	; 4
    6d82:	69 f4       	brne	.+26     	; 0x6d9e <_fpadd_parts+0x42>
    6d84:	84 30       	cpi	r24, 0x04	; 4
    6d86:	09 f0       	breq	.+2      	; 0x6d8a <_fpadd_parts+0x2e>
    6d88:	2f c1       	rjmp	.+606    	; 0x6fe8 <_fpadd_parts+0x28c>
    6d8a:	11 96       	adiw	r26, 0x01	; 1
    6d8c:	9c 91       	ld	r25, X
    6d8e:	11 97       	sbiw	r26, 0x01	; 1
    6d90:	89 81       	ldd	r24, Y+1	; 0x01
    6d92:	98 17       	cp	r25, r24
    6d94:	09 f4       	brne	.+2      	; 0x6d98 <_fpadd_parts+0x3c>
    6d96:	28 c1       	rjmp	.+592    	; 0x6fe8 <_fpadd_parts+0x28c>
    6d98:	a8 e9       	ldi	r26, 0x98	; 152
    6d9a:	b8 e0       	ldi	r27, 0x08	; 8
    6d9c:	25 c1       	rjmp	.+586    	; 0x6fe8 <_fpadd_parts+0x28c>
    6d9e:	84 30       	cpi	r24, 0x04	; 4
    6da0:	09 f4       	brne	.+2      	; 0x6da4 <_fpadd_parts+0x48>
    6da2:	21 c1       	rjmp	.+578    	; 0x6fe6 <_fpadd_parts+0x28a>
    6da4:	82 30       	cpi	r24, 0x02	; 2
    6da6:	a9 f4       	brne	.+42     	; 0x6dd2 <_fpadd_parts+0x76>
    6da8:	92 30       	cpi	r25, 0x02	; 2
    6daa:	09 f0       	breq	.+2      	; 0x6dae <_fpadd_parts+0x52>
    6dac:	1d c1       	rjmp	.+570    	; 0x6fe8 <_fpadd_parts+0x28c>
    6dae:	9a 01       	movw	r18, r20
    6db0:	ad 01       	movw	r20, r26
    6db2:	88 e0       	ldi	r24, 0x08	; 8
    6db4:	ea 01       	movw	r28, r20
    6db6:	09 90       	ld	r0, Y+
    6db8:	ae 01       	movw	r20, r28
    6dba:	e9 01       	movw	r28, r18
    6dbc:	09 92       	st	Y+, r0
    6dbe:	9e 01       	movw	r18, r28
    6dc0:	81 50       	subi	r24, 0x01	; 1
    6dc2:	c1 f7       	brne	.-16     	; 0x6db4 <_fpadd_parts+0x58>
    6dc4:	e2 01       	movw	r28, r4
    6dc6:	89 81       	ldd	r24, Y+1	; 0x01
    6dc8:	11 96       	adiw	r26, 0x01	; 1
    6dca:	9c 91       	ld	r25, X
    6dcc:	89 23       	and	r24, r25
    6dce:	81 83       	std	Z+1, r24	; 0x01
    6dd0:	08 c1       	rjmp	.+528    	; 0x6fe2 <_fpadd_parts+0x286>
    6dd2:	92 30       	cpi	r25, 0x02	; 2
    6dd4:	09 f4       	brne	.+2      	; 0x6dd8 <_fpadd_parts+0x7c>
    6dd6:	07 c1       	rjmp	.+526    	; 0x6fe6 <_fpadd_parts+0x28a>
    6dd8:	12 96       	adiw	r26, 0x02	; 2
    6dda:	2d 90       	ld	r2, X+
    6ddc:	3c 90       	ld	r3, X
    6dde:	13 97       	sbiw	r26, 0x03	; 3
    6de0:	eb 01       	movw	r28, r22
    6de2:	8a 81       	ldd	r24, Y+2	; 0x02
    6de4:	9b 81       	ldd	r25, Y+3	; 0x03
    6de6:	14 96       	adiw	r26, 0x04	; 4
    6de8:	ad 90       	ld	r10, X+
    6dea:	bd 90       	ld	r11, X+
    6dec:	cd 90       	ld	r12, X+
    6dee:	dc 90       	ld	r13, X
    6df0:	17 97       	sbiw	r26, 0x07	; 7
    6df2:	ec 80       	ldd	r14, Y+4	; 0x04
    6df4:	fd 80       	ldd	r15, Y+5	; 0x05
    6df6:	0e 81       	ldd	r16, Y+6	; 0x06
    6df8:	1f 81       	ldd	r17, Y+7	; 0x07
    6dfa:	91 01       	movw	r18, r2
    6dfc:	28 1b       	sub	r18, r24
    6dfe:	39 0b       	sbc	r19, r25
    6e00:	b9 01       	movw	r22, r18
    6e02:	37 ff       	sbrs	r19, 7
    6e04:	04 c0       	rjmp	.+8      	; 0x6e0e <_fpadd_parts+0xb2>
    6e06:	66 27       	eor	r22, r22
    6e08:	77 27       	eor	r23, r23
    6e0a:	62 1b       	sub	r22, r18
    6e0c:	73 0b       	sbc	r23, r19
    6e0e:	60 32       	cpi	r22, 0x20	; 32
    6e10:	71 05       	cpc	r23, r1
    6e12:	0c f0       	brlt	.+2      	; 0x6e16 <_fpadd_parts+0xba>
    6e14:	61 c0       	rjmp	.+194    	; 0x6ed8 <_fpadd_parts+0x17c>
    6e16:	12 16       	cp	r1, r18
    6e18:	13 06       	cpc	r1, r19
    6e1a:	6c f5       	brge	.+90     	; 0x6e76 <_fpadd_parts+0x11a>
    6e1c:	37 01       	movw	r6, r14
    6e1e:	48 01       	movw	r8, r16
    6e20:	06 2e       	mov	r0, r22
    6e22:	04 c0       	rjmp	.+8      	; 0x6e2c <_fpadd_parts+0xd0>
    6e24:	96 94       	lsr	r9
    6e26:	87 94       	ror	r8
    6e28:	77 94       	ror	r7
    6e2a:	67 94       	ror	r6
    6e2c:	0a 94       	dec	r0
    6e2e:	d2 f7       	brpl	.-12     	; 0x6e24 <_fpadd_parts+0xc8>
    6e30:	21 e0       	ldi	r18, 0x01	; 1
    6e32:	30 e0       	ldi	r19, 0x00	; 0
    6e34:	40 e0       	ldi	r20, 0x00	; 0
    6e36:	50 e0       	ldi	r21, 0x00	; 0
    6e38:	04 c0       	rjmp	.+8      	; 0x6e42 <_fpadd_parts+0xe6>
    6e3a:	22 0f       	add	r18, r18
    6e3c:	33 1f       	adc	r19, r19
    6e3e:	44 1f       	adc	r20, r20
    6e40:	55 1f       	adc	r21, r21
    6e42:	6a 95       	dec	r22
    6e44:	d2 f7       	brpl	.-12     	; 0x6e3a <_fpadd_parts+0xde>
    6e46:	21 50       	subi	r18, 0x01	; 1
    6e48:	30 40       	sbci	r19, 0x00	; 0
    6e4a:	40 40       	sbci	r20, 0x00	; 0
    6e4c:	50 40       	sbci	r21, 0x00	; 0
    6e4e:	2e 21       	and	r18, r14
    6e50:	3f 21       	and	r19, r15
    6e52:	40 23       	and	r20, r16
    6e54:	51 23       	and	r21, r17
    6e56:	21 15       	cp	r18, r1
    6e58:	31 05       	cpc	r19, r1
    6e5a:	41 05       	cpc	r20, r1
    6e5c:	51 05       	cpc	r21, r1
    6e5e:	21 f0       	breq	.+8      	; 0x6e68 <_fpadd_parts+0x10c>
    6e60:	21 e0       	ldi	r18, 0x01	; 1
    6e62:	30 e0       	ldi	r19, 0x00	; 0
    6e64:	40 e0       	ldi	r20, 0x00	; 0
    6e66:	50 e0       	ldi	r21, 0x00	; 0
    6e68:	79 01       	movw	r14, r18
    6e6a:	8a 01       	movw	r16, r20
    6e6c:	e6 28       	or	r14, r6
    6e6e:	f7 28       	or	r15, r7
    6e70:	08 29       	or	r16, r8
    6e72:	19 29       	or	r17, r9
    6e74:	3c c0       	rjmp	.+120    	; 0x6eee <_fpadd_parts+0x192>
    6e76:	23 2b       	or	r18, r19
    6e78:	d1 f1       	breq	.+116    	; 0x6eee <_fpadd_parts+0x192>
    6e7a:	26 0e       	add	r2, r22
    6e7c:	37 1e       	adc	r3, r23
    6e7e:	35 01       	movw	r6, r10
    6e80:	46 01       	movw	r8, r12
    6e82:	06 2e       	mov	r0, r22
    6e84:	04 c0       	rjmp	.+8      	; 0x6e8e <_fpadd_parts+0x132>
    6e86:	96 94       	lsr	r9
    6e88:	87 94       	ror	r8
    6e8a:	77 94       	ror	r7
    6e8c:	67 94       	ror	r6
    6e8e:	0a 94       	dec	r0
    6e90:	d2 f7       	brpl	.-12     	; 0x6e86 <_fpadd_parts+0x12a>
    6e92:	21 e0       	ldi	r18, 0x01	; 1
    6e94:	30 e0       	ldi	r19, 0x00	; 0
    6e96:	40 e0       	ldi	r20, 0x00	; 0
    6e98:	50 e0       	ldi	r21, 0x00	; 0
    6e9a:	04 c0       	rjmp	.+8      	; 0x6ea4 <_fpadd_parts+0x148>
    6e9c:	22 0f       	add	r18, r18
    6e9e:	33 1f       	adc	r19, r19
    6ea0:	44 1f       	adc	r20, r20
    6ea2:	55 1f       	adc	r21, r21
    6ea4:	6a 95       	dec	r22
    6ea6:	d2 f7       	brpl	.-12     	; 0x6e9c <_fpadd_parts+0x140>
    6ea8:	21 50       	subi	r18, 0x01	; 1
    6eaa:	30 40       	sbci	r19, 0x00	; 0
    6eac:	40 40       	sbci	r20, 0x00	; 0
    6eae:	50 40       	sbci	r21, 0x00	; 0
    6eb0:	2a 21       	and	r18, r10
    6eb2:	3b 21       	and	r19, r11
    6eb4:	4c 21       	and	r20, r12
    6eb6:	5d 21       	and	r21, r13
    6eb8:	21 15       	cp	r18, r1
    6eba:	31 05       	cpc	r19, r1
    6ebc:	41 05       	cpc	r20, r1
    6ebe:	51 05       	cpc	r21, r1
    6ec0:	21 f0       	breq	.+8      	; 0x6eca <_fpadd_parts+0x16e>
    6ec2:	21 e0       	ldi	r18, 0x01	; 1
    6ec4:	30 e0       	ldi	r19, 0x00	; 0
    6ec6:	40 e0       	ldi	r20, 0x00	; 0
    6ec8:	50 e0       	ldi	r21, 0x00	; 0
    6eca:	59 01       	movw	r10, r18
    6ecc:	6a 01       	movw	r12, r20
    6ece:	a6 28       	or	r10, r6
    6ed0:	b7 28       	or	r11, r7
    6ed2:	c8 28       	or	r12, r8
    6ed4:	d9 28       	or	r13, r9
    6ed6:	0b c0       	rjmp	.+22     	; 0x6eee <_fpadd_parts+0x192>
    6ed8:	82 15       	cp	r24, r2
    6eda:	93 05       	cpc	r25, r3
    6edc:	2c f0       	brlt	.+10     	; 0x6ee8 <_fpadd_parts+0x18c>
    6ede:	1c 01       	movw	r2, r24
    6ee0:	aa 24       	eor	r10, r10
    6ee2:	bb 24       	eor	r11, r11
    6ee4:	65 01       	movw	r12, r10
    6ee6:	03 c0       	rjmp	.+6      	; 0x6eee <_fpadd_parts+0x192>
    6ee8:	ee 24       	eor	r14, r14
    6eea:	ff 24       	eor	r15, r15
    6eec:	87 01       	movw	r16, r14
    6eee:	11 96       	adiw	r26, 0x01	; 1
    6ef0:	9c 91       	ld	r25, X
    6ef2:	d2 01       	movw	r26, r4
    6ef4:	11 96       	adiw	r26, 0x01	; 1
    6ef6:	8c 91       	ld	r24, X
    6ef8:	98 17       	cp	r25, r24
    6efa:	09 f4       	brne	.+2      	; 0x6efe <_fpadd_parts+0x1a2>
    6efc:	45 c0       	rjmp	.+138    	; 0x6f88 <_fpadd_parts+0x22c>
    6efe:	99 23       	and	r25, r25
    6f00:	39 f0       	breq	.+14     	; 0x6f10 <_fpadd_parts+0x1b4>
    6f02:	a8 01       	movw	r20, r16
    6f04:	97 01       	movw	r18, r14
    6f06:	2a 19       	sub	r18, r10
    6f08:	3b 09       	sbc	r19, r11
    6f0a:	4c 09       	sbc	r20, r12
    6f0c:	5d 09       	sbc	r21, r13
    6f0e:	06 c0       	rjmp	.+12     	; 0x6f1c <_fpadd_parts+0x1c0>
    6f10:	a6 01       	movw	r20, r12
    6f12:	95 01       	movw	r18, r10
    6f14:	2e 19       	sub	r18, r14
    6f16:	3f 09       	sbc	r19, r15
    6f18:	40 0b       	sbc	r20, r16
    6f1a:	51 0b       	sbc	r21, r17
    6f1c:	57 fd       	sbrc	r21, 7
    6f1e:	08 c0       	rjmp	.+16     	; 0x6f30 <_fpadd_parts+0x1d4>
    6f20:	11 82       	std	Z+1, r1	; 0x01
    6f22:	33 82       	std	Z+3, r3	; 0x03
    6f24:	22 82       	std	Z+2, r2	; 0x02
    6f26:	24 83       	std	Z+4, r18	; 0x04
    6f28:	35 83       	std	Z+5, r19	; 0x05
    6f2a:	46 83       	std	Z+6, r20	; 0x06
    6f2c:	57 83       	std	Z+7, r21	; 0x07
    6f2e:	1d c0       	rjmp	.+58     	; 0x6f6a <_fpadd_parts+0x20e>
    6f30:	81 e0       	ldi	r24, 0x01	; 1
    6f32:	81 83       	std	Z+1, r24	; 0x01
    6f34:	33 82       	std	Z+3, r3	; 0x03
    6f36:	22 82       	std	Z+2, r2	; 0x02
    6f38:	88 27       	eor	r24, r24
    6f3a:	99 27       	eor	r25, r25
    6f3c:	dc 01       	movw	r26, r24
    6f3e:	82 1b       	sub	r24, r18
    6f40:	93 0b       	sbc	r25, r19
    6f42:	a4 0b       	sbc	r26, r20
    6f44:	b5 0b       	sbc	r27, r21
    6f46:	84 83       	std	Z+4, r24	; 0x04
    6f48:	95 83       	std	Z+5, r25	; 0x05
    6f4a:	a6 83       	std	Z+6, r26	; 0x06
    6f4c:	b7 83       	std	Z+7, r27	; 0x07
    6f4e:	0d c0       	rjmp	.+26     	; 0x6f6a <_fpadd_parts+0x20e>
    6f50:	22 0f       	add	r18, r18
    6f52:	33 1f       	adc	r19, r19
    6f54:	44 1f       	adc	r20, r20
    6f56:	55 1f       	adc	r21, r21
    6f58:	24 83       	std	Z+4, r18	; 0x04
    6f5a:	35 83       	std	Z+5, r19	; 0x05
    6f5c:	46 83       	std	Z+6, r20	; 0x06
    6f5e:	57 83       	std	Z+7, r21	; 0x07
    6f60:	82 81       	ldd	r24, Z+2	; 0x02
    6f62:	93 81       	ldd	r25, Z+3	; 0x03
    6f64:	01 97       	sbiw	r24, 0x01	; 1
    6f66:	93 83       	std	Z+3, r25	; 0x03
    6f68:	82 83       	std	Z+2, r24	; 0x02
    6f6a:	24 81       	ldd	r18, Z+4	; 0x04
    6f6c:	35 81       	ldd	r19, Z+5	; 0x05
    6f6e:	46 81       	ldd	r20, Z+6	; 0x06
    6f70:	57 81       	ldd	r21, Z+7	; 0x07
    6f72:	da 01       	movw	r26, r20
    6f74:	c9 01       	movw	r24, r18
    6f76:	01 97       	sbiw	r24, 0x01	; 1
    6f78:	a1 09       	sbc	r26, r1
    6f7a:	b1 09       	sbc	r27, r1
    6f7c:	8f 5f       	subi	r24, 0xFF	; 255
    6f7e:	9f 4f       	sbci	r25, 0xFF	; 255
    6f80:	af 4f       	sbci	r26, 0xFF	; 255
    6f82:	bf 43       	sbci	r27, 0x3F	; 63
    6f84:	28 f3       	brcs	.-54     	; 0x6f50 <_fpadd_parts+0x1f4>
    6f86:	0b c0       	rjmp	.+22     	; 0x6f9e <_fpadd_parts+0x242>
    6f88:	91 83       	std	Z+1, r25	; 0x01
    6f8a:	33 82       	std	Z+3, r3	; 0x03
    6f8c:	22 82       	std	Z+2, r2	; 0x02
    6f8e:	ea 0c       	add	r14, r10
    6f90:	fb 1c       	adc	r15, r11
    6f92:	0c 1d       	adc	r16, r12
    6f94:	1d 1d       	adc	r17, r13
    6f96:	e4 82       	std	Z+4, r14	; 0x04
    6f98:	f5 82       	std	Z+5, r15	; 0x05
    6f9a:	06 83       	std	Z+6, r16	; 0x06
    6f9c:	17 83       	std	Z+7, r17	; 0x07
    6f9e:	83 e0       	ldi	r24, 0x03	; 3
    6fa0:	80 83       	st	Z, r24
    6fa2:	24 81       	ldd	r18, Z+4	; 0x04
    6fa4:	35 81       	ldd	r19, Z+5	; 0x05
    6fa6:	46 81       	ldd	r20, Z+6	; 0x06
    6fa8:	57 81       	ldd	r21, Z+7	; 0x07
    6faa:	57 ff       	sbrs	r21, 7
    6fac:	1a c0       	rjmp	.+52     	; 0x6fe2 <_fpadd_parts+0x286>
    6fae:	c9 01       	movw	r24, r18
    6fb0:	aa 27       	eor	r26, r26
    6fb2:	97 fd       	sbrc	r25, 7
    6fb4:	a0 95       	com	r26
    6fb6:	ba 2f       	mov	r27, r26
    6fb8:	81 70       	andi	r24, 0x01	; 1
    6fba:	90 70       	andi	r25, 0x00	; 0
    6fbc:	a0 70       	andi	r26, 0x00	; 0
    6fbe:	b0 70       	andi	r27, 0x00	; 0
    6fc0:	56 95       	lsr	r21
    6fc2:	47 95       	ror	r20
    6fc4:	37 95       	ror	r19
    6fc6:	27 95       	ror	r18
    6fc8:	82 2b       	or	r24, r18
    6fca:	93 2b       	or	r25, r19
    6fcc:	a4 2b       	or	r26, r20
    6fce:	b5 2b       	or	r27, r21
    6fd0:	84 83       	std	Z+4, r24	; 0x04
    6fd2:	95 83       	std	Z+5, r25	; 0x05
    6fd4:	a6 83       	std	Z+6, r26	; 0x06
    6fd6:	b7 83       	std	Z+7, r27	; 0x07
    6fd8:	82 81       	ldd	r24, Z+2	; 0x02
    6fda:	93 81       	ldd	r25, Z+3	; 0x03
    6fdc:	01 96       	adiw	r24, 0x01	; 1
    6fde:	93 83       	std	Z+3, r25	; 0x03
    6fe0:	82 83       	std	Z+2, r24	; 0x02
    6fe2:	df 01       	movw	r26, r30
    6fe4:	01 c0       	rjmp	.+2      	; 0x6fe8 <_fpadd_parts+0x28c>
    6fe6:	d2 01       	movw	r26, r4
    6fe8:	cd 01       	movw	r24, r26
    6fea:	cd b7       	in	r28, 0x3d	; 61
    6fec:	de b7       	in	r29, 0x3e	; 62
    6fee:	e2 e1       	ldi	r30, 0x12	; 18
    6ff0:	0c 94 7e 3d 	jmp	0x7afc	; 0x7afc <__epilogue_restores__>

00006ff4 <__subsf3>:
    6ff4:	a0 e2       	ldi	r26, 0x20	; 32
    6ff6:	b0 e0       	ldi	r27, 0x00	; 0
    6ff8:	e0 e0       	ldi	r30, 0x00	; 0
    6ffa:	f8 e3       	ldi	r31, 0x38	; 56
    6ffc:	0c 94 6e 3d 	jmp	0x7adc	; 0x7adc <__prologue_saves__+0x18>
    7000:	69 83       	std	Y+1, r22	; 0x01
    7002:	7a 83       	std	Y+2, r23	; 0x02
    7004:	8b 83       	std	Y+3, r24	; 0x03
    7006:	9c 83       	std	Y+4, r25	; 0x04
    7008:	2d 83       	std	Y+5, r18	; 0x05
    700a:	3e 83       	std	Y+6, r19	; 0x06
    700c:	4f 83       	std	Y+7, r20	; 0x07
    700e:	58 87       	std	Y+8, r21	; 0x08
    7010:	e9 e0       	ldi	r30, 0x09	; 9
    7012:	ee 2e       	mov	r14, r30
    7014:	f1 2c       	mov	r15, r1
    7016:	ec 0e       	add	r14, r28
    7018:	fd 1e       	adc	r15, r29
    701a:	ce 01       	movw	r24, r28
    701c:	01 96       	adiw	r24, 0x01	; 1
    701e:	b7 01       	movw	r22, r14
    7020:	0e 94 7d 3c 	call	0x78fa	; 0x78fa <__unpack_f>
    7024:	8e 01       	movw	r16, r28
    7026:	0f 5e       	subi	r16, 0xEF	; 239
    7028:	1f 4f       	sbci	r17, 0xFF	; 255
    702a:	ce 01       	movw	r24, r28
    702c:	05 96       	adiw	r24, 0x05	; 5
    702e:	b8 01       	movw	r22, r16
    7030:	0e 94 7d 3c 	call	0x78fa	; 0x78fa <__unpack_f>
    7034:	8a 89       	ldd	r24, Y+18	; 0x12
    7036:	91 e0       	ldi	r25, 0x01	; 1
    7038:	89 27       	eor	r24, r25
    703a:	8a 8b       	std	Y+18, r24	; 0x12
    703c:	c7 01       	movw	r24, r14
    703e:	b8 01       	movw	r22, r16
    7040:	ae 01       	movw	r20, r28
    7042:	47 5e       	subi	r20, 0xE7	; 231
    7044:	5f 4f       	sbci	r21, 0xFF	; 255
    7046:	0e 94 ae 36 	call	0x6d5c	; 0x6d5c <_fpadd_parts>
    704a:	0e 94 a8 3b 	call	0x7750	; 0x7750 <__pack_f>
    704e:	a0 96       	adiw	r28, 0x20	; 32
    7050:	e6 e0       	ldi	r30, 0x06	; 6
    7052:	0c 94 8a 3d 	jmp	0x7b14	; 0x7b14 <__epilogue_restores__+0x18>

00007056 <__addsf3>:
    7056:	a0 e2       	ldi	r26, 0x20	; 32
    7058:	b0 e0       	ldi	r27, 0x00	; 0
    705a:	e1 e3       	ldi	r30, 0x31	; 49
    705c:	f8 e3       	ldi	r31, 0x38	; 56
    705e:	0c 94 6e 3d 	jmp	0x7adc	; 0x7adc <__prologue_saves__+0x18>
    7062:	69 83       	std	Y+1, r22	; 0x01
    7064:	7a 83       	std	Y+2, r23	; 0x02
    7066:	8b 83       	std	Y+3, r24	; 0x03
    7068:	9c 83       	std	Y+4, r25	; 0x04
    706a:	2d 83       	std	Y+5, r18	; 0x05
    706c:	3e 83       	std	Y+6, r19	; 0x06
    706e:	4f 83       	std	Y+7, r20	; 0x07
    7070:	58 87       	std	Y+8, r21	; 0x08
    7072:	f9 e0       	ldi	r31, 0x09	; 9
    7074:	ef 2e       	mov	r14, r31
    7076:	f1 2c       	mov	r15, r1
    7078:	ec 0e       	add	r14, r28
    707a:	fd 1e       	adc	r15, r29
    707c:	ce 01       	movw	r24, r28
    707e:	01 96       	adiw	r24, 0x01	; 1
    7080:	b7 01       	movw	r22, r14
    7082:	0e 94 7d 3c 	call	0x78fa	; 0x78fa <__unpack_f>
    7086:	8e 01       	movw	r16, r28
    7088:	0f 5e       	subi	r16, 0xEF	; 239
    708a:	1f 4f       	sbci	r17, 0xFF	; 255
    708c:	ce 01       	movw	r24, r28
    708e:	05 96       	adiw	r24, 0x05	; 5
    7090:	b8 01       	movw	r22, r16
    7092:	0e 94 7d 3c 	call	0x78fa	; 0x78fa <__unpack_f>
    7096:	c7 01       	movw	r24, r14
    7098:	b8 01       	movw	r22, r16
    709a:	ae 01       	movw	r20, r28
    709c:	47 5e       	subi	r20, 0xE7	; 231
    709e:	5f 4f       	sbci	r21, 0xFF	; 255
    70a0:	0e 94 ae 36 	call	0x6d5c	; 0x6d5c <_fpadd_parts>
    70a4:	0e 94 a8 3b 	call	0x7750	; 0x7750 <__pack_f>
    70a8:	a0 96       	adiw	r28, 0x20	; 32
    70aa:	e6 e0       	ldi	r30, 0x06	; 6
    70ac:	0c 94 8a 3d 	jmp	0x7b14	; 0x7b14 <__epilogue_restores__+0x18>

000070b0 <__mulsf3>:
    70b0:	a0 e2       	ldi	r26, 0x20	; 32
    70b2:	b0 e0       	ldi	r27, 0x00	; 0
    70b4:	ee e5       	ldi	r30, 0x5E	; 94
    70b6:	f8 e3       	ldi	r31, 0x38	; 56
    70b8:	0c 94 62 3d 	jmp	0x7ac4	; 0x7ac4 <__prologue_saves__>
    70bc:	69 83       	std	Y+1, r22	; 0x01
    70be:	7a 83       	std	Y+2, r23	; 0x02
    70c0:	8b 83       	std	Y+3, r24	; 0x03
    70c2:	9c 83       	std	Y+4, r25	; 0x04
    70c4:	2d 83       	std	Y+5, r18	; 0x05
    70c6:	3e 83       	std	Y+6, r19	; 0x06
    70c8:	4f 83       	std	Y+7, r20	; 0x07
    70ca:	58 87       	std	Y+8, r21	; 0x08
    70cc:	ce 01       	movw	r24, r28
    70ce:	01 96       	adiw	r24, 0x01	; 1
    70d0:	be 01       	movw	r22, r28
    70d2:	67 5f       	subi	r22, 0xF7	; 247
    70d4:	7f 4f       	sbci	r23, 0xFF	; 255
    70d6:	0e 94 7d 3c 	call	0x78fa	; 0x78fa <__unpack_f>
    70da:	ce 01       	movw	r24, r28
    70dc:	05 96       	adiw	r24, 0x05	; 5
    70de:	be 01       	movw	r22, r28
    70e0:	6f 5e       	subi	r22, 0xEF	; 239
    70e2:	7f 4f       	sbci	r23, 0xFF	; 255
    70e4:	0e 94 7d 3c 	call	0x78fa	; 0x78fa <__unpack_f>
    70e8:	99 85       	ldd	r25, Y+9	; 0x09
    70ea:	92 30       	cpi	r25, 0x02	; 2
    70ec:	88 f0       	brcs	.+34     	; 0x7110 <__mulsf3+0x60>
    70ee:	89 89       	ldd	r24, Y+17	; 0x11
    70f0:	82 30       	cpi	r24, 0x02	; 2
    70f2:	c8 f0       	brcs	.+50     	; 0x7126 <__mulsf3+0x76>
    70f4:	94 30       	cpi	r25, 0x04	; 4
    70f6:	19 f4       	brne	.+6      	; 0x70fe <__mulsf3+0x4e>
    70f8:	82 30       	cpi	r24, 0x02	; 2
    70fa:	51 f4       	brne	.+20     	; 0x7110 <__mulsf3+0x60>
    70fc:	04 c0       	rjmp	.+8      	; 0x7106 <__mulsf3+0x56>
    70fe:	84 30       	cpi	r24, 0x04	; 4
    7100:	29 f4       	brne	.+10     	; 0x710c <__mulsf3+0x5c>
    7102:	92 30       	cpi	r25, 0x02	; 2
    7104:	81 f4       	brne	.+32     	; 0x7126 <__mulsf3+0x76>
    7106:	88 e9       	ldi	r24, 0x98	; 152
    7108:	98 e0       	ldi	r25, 0x08	; 8
    710a:	c6 c0       	rjmp	.+396    	; 0x7298 <__mulsf3+0x1e8>
    710c:	92 30       	cpi	r25, 0x02	; 2
    710e:	49 f4       	brne	.+18     	; 0x7122 <__mulsf3+0x72>
    7110:	20 e0       	ldi	r18, 0x00	; 0
    7112:	9a 85       	ldd	r25, Y+10	; 0x0a
    7114:	8a 89       	ldd	r24, Y+18	; 0x12
    7116:	98 13       	cpse	r25, r24
    7118:	21 e0       	ldi	r18, 0x01	; 1
    711a:	2a 87       	std	Y+10, r18	; 0x0a
    711c:	ce 01       	movw	r24, r28
    711e:	09 96       	adiw	r24, 0x09	; 9
    7120:	bb c0       	rjmp	.+374    	; 0x7298 <__mulsf3+0x1e8>
    7122:	82 30       	cpi	r24, 0x02	; 2
    7124:	49 f4       	brne	.+18     	; 0x7138 <__mulsf3+0x88>
    7126:	20 e0       	ldi	r18, 0x00	; 0
    7128:	9a 85       	ldd	r25, Y+10	; 0x0a
    712a:	8a 89       	ldd	r24, Y+18	; 0x12
    712c:	98 13       	cpse	r25, r24
    712e:	21 e0       	ldi	r18, 0x01	; 1
    7130:	2a 8b       	std	Y+18, r18	; 0x12
    7132:	ce 01       	movw	r24, r28
    7134:	41 96       	adiw	r24, 0x11	; 17
    7136:	b0 c0       	rjmp	.+352    	; 0x7298 <__mulsf3+0x1e8>
    7138:	2d 84       	ldd	r2, Y+13	; 0x0d
    713a:	3e 84       	ldd	r3, Y+14	; 0x0e
    713c:	4f 84       	ldd	r4, Y+15	; 0x0f
    713e:	58 88       	ldd	r5, Y+16	; 0x10
    7140:	6d 88       	ldd	r6, Y+21	; 0x15
    7142:	7e 88       	ldd	r7, Y+22	; 0x16
    7144:	8f 88       	ldd	r8, Y+23	; 0x17
    7146:	98 8c       	ldd	r9, Y+24	; 0x18
    7148:	ee 24       	eor	r14, r14
    714a:	ff 24       	eor	r15, r15
    714c:	87 01       	movw	r16, r14
    714e:	aa 24       	eor	r10, r10
    7150:	bb 24       	eor	r11, r11
    7152:	65 01       	movw	r12, r10
    7154:	40 e0       	ldi	r20, 0x00	; 0
    7156:	50 e0       	ldi	r21, 0x00	; 0
    7158:	60 e0       	ldi	r22, 0x00	; 0
    715a:	70 e0       	ldi	r23, 0x00	; 0
    715c:	e0 e0       	ldi	r30, 0x00	; 0
    715e:	f0 e0       	ldi	r31, 0x00	; 0
    7160:	c1 01       	movw	r24, r2
    7162:	81 70       	andi	r24, 0x01	; 1
    7164:	90 70       	andi	r25, 0x00	; 0
    7166:	89 2b       	or	r24, r25
    7168:	e9 f0       	breq	.+58     	; 0x71a4 <__mulsf3+0xf4>
    716a:	e6 0c       	add	r14, r6
    716c:	f7 1c       	adc	r15, r7
    716e:	08 1d       	adc	r16, r8
    7170:	19 1d       	adc	r17, r9
    7172:	9a 01       	movw	r18, r20
    7174:	ab 01       	movw	r20, r22
    7176:	2a 0d       	add	r18, r10
    7178:	3b 1d       	adc	r19, r11
    717a:	4c 1d       	adc	r20, r12
    717c:	5d 1d       	adc	r21, r13
    717e:	80 e0       	ldi	r24, 0x00	; 0
    7180:	90 e0       	ldi	r25, 0x00	; 0
    7182:	a0 e0       	ldi	r26, 0x00	; 0
    7184:	b0 e0       	ldi	r27, 0x00	; 0
    7186:	e6 14       	cp	r14, r6
    7188:	f7 04       	cpc	r15, r7
    718a:	08 05       	cpc	r16, r8
    718c:	19 05       	cpc	r17, r9
    718e:	20 f4       	brcc	.+8      	; 0x7198 <__mulsf3+0xe8>
    7190:	81 e0       	ldi	r24, 0x01	; 1
    7192:	90 e0       	ldi	r25, 0x00	; 0
    7194:	a0 e0       	ldi	r26, 0x00	; 0
    7196:	b0 e0       	ldi	r27, 0x00	; 0
    7198:	ba 01       	movw	r22, r20
    719a:	a9 01       	movw	r20, r18
    719c:	48 0f       	add	r20, r24
    719e:	59 1f       	adc	r21, r25
    71a0:	6a 1f       	adc	r22, r26
    71a2:	7b 1f       	adc	r23, r27
    71a4:	aa 0c       	add	r10, r10
    71a6:	bb 1c       	adc	r11, r11
    71a8:	cc 1c       	adc	r12, r12
    71aa:	dd 1c       	adc	r13, r13
    71ac:	97 fe       	sbrs	r9, 7
    71ae:	08 c0       	rjmp	.+16     	; 0x71c0 <__mulsf3+0x110>
    71b0:	81 e0       	ldi	r24, 0x01	; 1
    71b2:	90 e0       	ldi	r25, 0x00	; 0
    71b4:	a0 e0       	ldi	r26, 0x00	; 0
    71b6:	b0 e0       	ldi	r27, 0x00	; 0
    71b8:	a8 2a       	or	r10, r24
    71ba:	b9 2a       	or	r11, r25
    71bc:	ca 2a       	or	r12, r26
    71be:	db 2a       	or	r13, r27
    71c0:	31 96       	adiw	r30, 0x01	; 1
    71c2:	e0 32       	cpi	r30, 0x20	; 32
    71c4:	f1 05       	cpc	r31, r1
    71c6:	49 f0       	breq	.+18     	; 0x71da <__mulsf3+0x12a>
    71c8:	66 0c       	add	r6, r6
    71ca:	77 1c       	adc	r7, r7
    71cc:	88 1c       	adc	r8, r8
    71ce:	99 1c       	adc	r9, r9
    71d0:	56 94       	lsr	r5
    71d2:	47 94       	ror	r4
    71d4:	37 94       	ror	r3
    71d6:	27 94       	ror	r2
    71d8:	c3 cf       	rjmp	.-122    	; 0x7160 <__mulsf3+0xb0>
    71da:	fa 85       	ldd	r31, Y+10	; 0x0a
    71dc:	ea 89       	ldd	r30, Y+18	; 0x12
    71de:	2b 89       	ldd	r18, Y+19	; 0x13
    71e0:	3c 89       	ldd	r19, Y+20	; 0x14
    71e2:	8b 85       	ldd	r24, Y+11	; 0x0b
    71e4:	9c 85       	ldd	r25, Y+12	; 0x0c
    71e6:	28 0f       	add	r18, r24
    71e8:	39 1f       	adc	r19, r25
    71ea:	2e 5f       	subi	r18, 0xFE	; 254
    71ec:	3f 4f       	sbci	r19, 0xFF	; 255
    71ee:	17 c0       	rjmp	.+46     	; 0x721e <__mulsf3+0x16e>
    71f0:	ca 01       	movw	r24, r20
    71f2:	81 70       	andi	r24, 0x01	; 1
    71f4:	90 70       	andi	r25, 0x00	; 0
    71f6:	89 2b       	or	r24, r25
    71f8:	61 f0       	breq	.+24     	; 0x7212 <__mulsf3+0x162>
    71fa:	16 95       	lsr	r17
    71fc:	07 95       	ror	r16
    71fe:	f7 94       	ror	r15
    7200:	e7 94       	ror	r14
    7202:	80 e0       	ldi	r24, 0x00	; 0
    7204:	90 e0       	ldi	r25, 0x00	; 0
    7206:	a0 e0       	ldi	r26, 0x00	; 0
    7208:	b0 e8       	ldi	r27, 0x80	; 128
    720a:	e8 2a       	or	r14, r24
    720c:	f9 2a       	or	r15, r25
    720e:	0a 2b       	or	r16, r26
    7210:	1b 2b       	or	r17, r27
    7212:	76 95       	lsr	r23
    7214:	67 95       	ror	r22
    7216:	57 95       	ror	r21
    7218:	47 95       	ror	r20
    721a:	2f 5f       	subi	r18, 0xFF	; 255
    721c:	3f 4f       	sbci	r19, 0xFF	; 255
    721e:	77 fd       	sbrc	r23, 7
    7220:	e7 cf       	rjmp	.-50     	; 0x71f0 <__mulsf3+0x140>
    7222:	0c c0       	rjmp	.+24     	; 0x723c <__mulsf3+0x18c>
    7224:	44 0f       	add	r20, r20
    7226:	55 1f       	adc	r21, r21
    7228:	66 1f       	adc	r22, r22
    722a:	77 1f       	adc	r23, r23
    722c:	17 fd       	sbrc	r17, 7
    722e:	41 60       	ori	r20, 0x01	; 1
    7230:	ee 0c       	add	r14, r14
    7232:	ff 1c       	adc	r15, r15
    7234:	00 1f       	adc	r16, r16
    7236:	11 1f       	adc	r17, r17
    7238:	21 50       	subi	r18, 0x01	; 1
    723a:	30 40       	sbci	r19, 0x00	; 0
    723c:	40 30       	cpi	r20, 0x00	; 0
    723e:	90 e0       	ldi	r25, 0x00	; 0
    7240:	59 07       	cpc	r21, r25
    7242:	90 e0       	ldi	r25, 0x00	; 0
    7244:	69 07       	cpc	r22, r25
    7246:	90 e4       	ldi	r25, 0x40	; 64
    7248:	79 07       	cpc	r23, r25
    724a:	60 f3       	brcs	.-40     	; 0x7224 <__mulsf3+0x174>
    724c:	2b 8f       	std	Y+27, r18	; 0x1b
    724e:	3c 8f       	std	Y+28, r19	; 0x1c
    7250:	db 01       	movw	r26, r22
    7252:	ca 01       	movw	r24, r20
    7254:	8f 77       	andi	r24, 0x7F	; 127
    7256:	90 70       	andi	r25, 0x00	; 0
    7258:	a0 70       	andi	r26, 0x00	; 0
    725a:	b0 70       	andi	r27, 0x00	; 0
    725c:	80 34       	cpi	r24, 0x40	; 64
    725e:	91 05       	cpc	r25, r1
    7260:	a1 05       	cpc	r26, r1
    7262:	b1 05       	cpc	r27, r1
    7264:	61 f4       	brne	.+24     	; 0x727e <__mulsf3+0x1ce>
    7266:	47 fd       	sbrc	r20, 7
    7268:	0a c0       	rjmp	.+20     	; 0x727e <__mulsf3+0x1ce>
    726a:	e1 14       	cp	r14, r1
    726c:	f1 04       	cpc	r15, r1
    726e:	01 05       	cpc	r16, r1
    7270:	11 05       	cpc	r17, r1
    7272:	29 f0       	breq	.+10     	; 0x727e <__mulsf3+0x1ce>
    7274:	40 5c       	subi	r20, 0xC0	; 192
    7276:	5f 4f       	sbci	r21, 0xFF	; 255
    7278:	6f 4f       	sbci	r22, 0xFF	; 255
    727a:	7f 4f       	sbci	r23, 0xFF	; 255
    727c:	40 78       	andi	r20, 0x80	; 128
    727e:	1a 8e       	std	Y+26, r1	; 0x1a
    7280:	fe 17       	cp	r31, r30
    7282:	11 f0       	breq	.+4      	; 0x7288 <__mulsf3+0x1d8>
    7284:	81 e0       	ldi	r24, 0x01	; 1
    7286:	8a 8f       	std	Y+26, r24	; 0x1a
    7288:	4d 8f       	std	Y+29, r20	; 0x1d
    728a:	5e 8f       	std	Y+30, r21	; 0x1e
    728c:	6f 8f       	std	Y+31, r22	; 0x1f
    728e:	78 a3       	std	Y+32, r23	; 0x20
    7290:	83 e0       	ldi	r24, 0x03	; 3
    7292:	89 8f       	std	Y+25, r24	; 0x19
    7294:	ce 01       	movw	r24, r28
    7296:	49 96       	adiw	r24, 0x19	; 25
    7298:	0e 94 a8 3b 	call	0x7750	; 0x7750 <__pack_f>
    729c:	a0 96       	adiw	r28, 0x20	; 32
    729e:	e2 e1       	ldi	r30, 0x12	; 18
    72a0:	0c 94 7e 3d 	jmp	0x7afc	; 0x7afc <__epilogue_restores__>

000072a4 <__divsf3>:
    72a4:	a8 e1       	ldi	r26, 0x18	; 24
    72a6:	b0 e0       	ldi	r27, 0x00	; 0
    72a8:	e8 e5       	ldi	r30, 0x58	; 88
    72aa:	f9 e3       	ldi	r31, 0x39	; 57
    72ac:	0c 94 6a 3d 	jmp	0x7ad4	; 0x7ad4 <__prologue_saves__+0x10>
    72b0:	69 83       	std	Y+1, r22	; 0x01
    72b2:	7a 83       	std	Y+2, r23	; 0x02
    72b4:	8b 83       	std	Y+3, r24	; 0x03
    72b6:	9c 83       	std	Y+4, r25	; 0x04
    72b8:	2d 83       	std	Y+5, r18	; 0x05
    72ba:	3e 83       	std	Y+6, r19	; 0x06
    72bc:	4f 83       	std	Y+7, r20	; 0x07
    72be:	58 87       	std	Y+8, r21	; 0x08
    72c0:	b9 e0       	ldi	r27, 0x09	; 9
    72c2:	eb 2e       	mov	r14, r27
    72c4:	f1 2c       	mov	r15, r1
    72c6:	ec 0e       	add	r14, r28
    72c8:	fd 1e       	adc	r15, r29
    72ca:	ce 01       	movw	r24, r28
    72cc:	01 96       	adiw	r24, 0x01	; 1
    72ce:	b7 01       	movw	r22, r14
    72d0:	0e 94 7d 3c 	call	0x78fa	; 0x78fa <__unpack_f>
    72d4:	8e 01       	movw	r16, r28
    72d6:	0f 5e       	subi	r16, 0xEF	; 239
    72d8:	1f 4f       	sbci	r17, 0xFF	; 255
    72da:	ce 01       	movw	r24, r28
    72dc:	05 96       	adiw	r24, 0x05	; 5
    72de:	b8 01       	movw	r22, r16
    72e0:	0e 94 7d 3c 	call	0x78fa	; 0x78fa <__unpack_f>
    72e4:	29 85       	ldd	r18, Y+9	; 0x09
    72e6:	22 30       	cpi	r18, 0x02	; 2
    72e8:	08 f4       	brcc	.+2      	; 0x72ec <__divsf3+0x48>
    72ea:	7e c0       	rjmp	.+252    	; 0x73e8 <__divsf3+0x144>
    72ec:	39 89       	ldd	r19, Y+17	; 0x11
    72ee:	32 30       	cpi	r19, 0x02	; 2
    72f0:	10 f4       	brcc	.+4      	; 0x72f6 <__divsf3+0x52>
    72f2:	b8 01       	movw	r22, r16
    72f4:	7c c0       	rjmp	.+248    	; 0x73ee <__divsf3+0x14a>
    72f6:	8a 85       	ldd	r24, Y+10	; 0x0a
    72f8:	9a 89       	ldd	r25, Y+18	; 0x12
    72fa:	89 27       	eor	r24, r25
    72fc:	8a 87       	std	Y+10, r24	; 0x0a
    72fe:	24 30       	cpi	r18, 0x04	; 4
    7300:	11 f0       	breq	.+4      	; 0x7306 <__divsf3+0x62>
    7302:	22 30       	cpi	r18, 0x02	; 2
    7304:	31 f4       	brne	.+12     	; 0x7312 <__divsf3+0x6e>
    7306:	23 17       	cp	r18, r19
    7308:	09 f0       	breq	.+2      	; 0x730c <__divsf3+0x68>
    730a:	6e c0       	rjmp	.+220    	; 0x73e8 <__divsf3+0x144>
    730c:	68 e9       	ldi	r22, 0x98	; 152
    730e:	78 e0       	ldi	r23, 0x08	; 8
    7310:	6e c0       	rjmp	.+220    	; 0x73ee <__divsf3+0x14a>
    7312:	34 30       	cpi	r19, 0x04	; 4
    7314:	39 f4       	brne	.+14     	; 0x7324 <__divsf3+0x80>
    7316:	1d 86       	std	Y+13, r1	; 0x0d
    7318:	1e 86       	std	Y+14, r1	; 0x0e
    731a:	1f 86       	std	Y+15, r1	; 0x0f
    731c:	18 8a       	std	Y+16, r1	; 0x10
    731e:	1c 86       	std	Y+12, r1	; 0x0c
    7320:	1b 86       	std	Y+11, r1	; 0x0b
    7322:	04 c0       	rjmp	.+8      	; 0x732c <__divsf3+0x88>
    7324:	32 30       	cpi	r19, 0x02	; 2
    7326:	21 f4       	brne	.+8      	; 0x7330 <__divsf3+0x8c>
    7328:	84 e0       	ldi	r24, 0x04	; 4
    732a:	89 87       	std	Y+9, r24	; 0x09
    732c:	b7 01       	movw	r22, r14
    732e:	5f c0       	rjmp	.+190    	; 0x73ee <__divsf3+0x14a>
    7330:	2b 85       	ldd	r18, Y+11	; 0x0b
    7332:	3c 85       	ldd	r19, Y+12	; 0x0c
    7334:	8b 89       	ldd	r24, Y+19	; 0x13
    7336:	9c 89       	ldd	r25, Y+20	; 0x14
    7338:	28 1b       	sub	r18, r24
    733a:	39 0b       	sbc	r19, r25
    733c:	3c 87       	std	Y+12, r19	; 0x0c
    733e:	2b 87       	std	Y+11, r18	; 0x0b
    7340:	ed 84       	ldd	r14, Y+13	; 0x0d
    7342:	fe 84       	ldd	r15, Y+14	; 0x0e
    7344:	0f 85       	ldd	r16, Y+15	; 0x0f
    7346:	18 89       	ldd	r17, Y+16	; 0x10
    7348:	ad 88       	ldd	r10, Y+21	; 0x15
    734a:	be 88       	ldd	r11, Y+22	; 0x16
    734c:	cf 88       	ldd	r12, Y+23	; 0x17
    734e:	d8 8c       	ldd	r13, Y+24	; 0x18
    7350:	ea 14       	cp	r14, r10
    7352:	fb 04       	cpc	r15, r11
    7354:	0c 05       	cpc	r16, r12
    7356:	1d 05       	cpc	r17, r13
    7358:	40 f4       	brcc	.+16     	; 0x736a <__divsf3+0xc6>
    735a:	ee 0c       	add	r14, r14
    735c:	ff 1c       	adc	r15, r15
    735e:	00 1f       	adc	r16, r16
    7360:	11 1f       	adc	r17, r17
    7362:	21 50       	subi	r18, 0x01	; 1
    7364:	30 40       	sbci	r19, 0x00	; 0
    7366:	3c 87       	std	Y+12, r19	; 0x0c
    7368:	2b 87       	std	Y+11, r18	; 0x0b
    736a:	20 e0       	ldi	r18, 0x00	; 0
    736c:	30 e0       	ldi	r19, 0x00	; 0
    736e:	40 e0       	ldi	r20, 0x00	; 0
    7370:	50 e0       	ldi	r21, 0x00	; 0
    7372:	80 e0       	ldi	r24, 0x00	; 0
    7374:	90 e0       	ldi	r25, 0x00	; 0
    7376:	a0 e0       	ldi	r26, 0x00	; 0
    7378:	b0 e4       	ldi	r27, 0x40	; 64
    737a:	60 e0       	ldi	r22, 0x00	; 0
    737c:	70 e0       	ldi	r23, 0x00	; 0
    737e:	ea 14       	cp	r14, r10
    7380:	fb 04       	cpc	r15, r11
    7382:	0c 05       	cpc	r16, r12
    7384:	1d 05       	cpc	r17, r13
    7386:	40 f0       	brcs	.+16     	; 0x7398 <__divsf3+0xf4>
    7388:	28 2b       	or	r18, r24
    738a:	39 2b       	or	r19, r25
    738c:	4a 2b       	or	r20, r26
    738e:	5b 2b       	or	r21, r27
    7390:	ea 18       	sub	r14, r10
    7392:	fb 08       	sbc	r15, r11
    7394:	0c 09       	sbc	r16, r12
    7396:	1d 09       	sbc	r17, r13
    7398:	b6 95       	lsr	r27
    739a:	a7 95       	ror	r26
    739c:	97 95       	ror	r25
    739e:	87 95       	ror	r24
    73a0:	ee 0c       	add	r14, r14
    73a2:	ff 1c       	adc	r15, r15
    73a4:	00 1f       	adc	r16, r16
    73a6:	11 1f       	adc	r17, r17
    73a8:	6f 5f       	subi	r22, 0xFF	; 255
    73aa:	7f 4f       	sbci	r23, 0xFF	; 255
    73ac:	6f 31       	cpi	r22, 0x1F	; 31
    73ae:	71 05       	cpc	r23, r1
    73b0:	31 f7       	brne	.-52     	; 0x737e <__divsf3+0xda>
    73b2:	da 01       	movw	r26, r20
    73b4:	c9 01       	movw	r24, r18
    73b6:	8f 77       	andi	r24, 0x7F	; 127
    73b8:	90 70       	andi	r25, 0x00	; 0
    73ba:	a0 70       	andi	r26, 0x00	; 0
    73bc:	b0 70       	andi	r27, 0x00	; 0
    73be:	80 34       	cpi	r24, 0x40	; 64
    73c0:	91 05       	cpc	r25, r1
    73c2:	a1 05       	cpc	r26, r1
    73c4:	b1 05       	cpc	r27, r1
    73c6:	61 f4       	brne	.+24     	; 0x73e0 <__divsf3+0x13c>
    73c8:	27 fd       	sbrc	r18, 7
    73ca:	0a c0       	rjmp	.+20     	; 0x73e0 <__divsf3+0x13c>
    73cc:	e1 14       	cp	r14, r1
    73ce:	f1 04       	cpc	r15, r1
    73d0:	01 05       	cpc	r16, r1
    73d2:	11 05       	cpc	r17, r1
    73d4:	29 f0       	breq	.+10     	; 0x73e0 <__divsf3+0x13c>
    73d6:	20 5c       	subi	r18, 0xC0	; 192
    73d8:	3f 4f       	sbci	r19, 0xFF	; 255
    73da:	4f 4f       	sbci	r20, 0xFF	; 255
    73dc:	5f 4f       	sbci	r21, 0xFF	; 255
    73de:	20 78       	andi	r18, 0x80	; 128
    73e0:	2d 87       	std	Y+13, r18	; 0x0d
    73e2:	3e 87       	std	Y+14, r19	; 0x0e
    73e4:	4f 87       	std	Y+15, r20	; 0x0f
    73e6:	58 8b       	std	Y+16, r21	; 0x10
    73e8:	be 01       	movw	r22, r28
    73ea:	67 5f       	subi	r22, 0xF7	; 247
    73ec:	7f 4f       	sbci	r23, 0xFF	; 255
    73ee:	cb 01       	movw	r24, r22
    73f0:	0e 94 a8 3b 	call	0x7750	; 0x7750 <__pack_f>
    73f4:	68 96       	adiw	r28, 0x18	; 24
    73f6:	ea e0       	ldi	r30, 0x0A	; 10
    73f8:	0c 94 86 3d 	jmp	0x7b0c	; 0x7b0c <__epilogue_restores__+0x10>

000073fc <__gesf2>:
    73fc:	a8 e1       	ldi	r26, 0x18	; 24
    73fe:	b0 e0       	ldi	r27, 0x00	; 0
    7400:	e4 e0       	ldi	r30, 0x04	; 4
    7402:	fa e3       	ldi	r31, 0x3A	; 58
    7404:	0c 94 6e 3d 	jmp	0x7adc	; 0x7adc <__prologue_saves__+0x18>
    7408:	69 83       	std	Y+1, r22	; 0x01
    740a:	7a 83       	std	Y+2, r23	; 0x02
    740c:	8b 83       	std	Y+3, r24	; 0x03
    740e:	9c 83       	std	Y+4, r25	; 0x04
    7410:	2d 83       	std	Y+5, r18	; 0x05
    7412:	3e 83       	std	Y+6, r19	; 0x06
    7414:	4f 83       	std	Y+7, r20	; 0x07
    7416:	58 87       	std	Y+8, r21	; 0x08
    7418:	89 e0       	ldi	r24, 0x09	; 9
    741a:	e8 2e       	mov	r14, r24
    741c:	f1 2c       	mov	r15, r1
    741e:	ec 0e       	add	r14, r28
    7420:	fd 1e       	adc	r15, r29
    7422:	ce 01       	movw	r24, r28
    7424:	01 96       	adiw	r24, 0x01	; 1
    7426:	b7 01       	movw	r22, r14
    7428:	0e 94 7d 3c 	call	0x78fa	; 0x78fa <__unpack_f>
    742c:	8e 01       	movw	r16, r28
    742e:	0f 5e       	subi	r16, 0xEF	; 239
    7430:	1f 4f       	sbci	r17, 0xFF	; 255
    7432:	ce 01       	movw	r24, r28
    7434:	05 96       	adiw	r24, 0x05	; 5
    7436:	b8 01       	movw	r22, r16
    7438:	0e 94 7d 3c 	call	0x78fa	; 0x78fa <__unpack_f>
    743c:	89 85       	ldd	r24, Y+9	; 0x09
    743e:	82 30       	cpi	r24, 0x02	; 2
    7440:	40 f0       	brcs	.+16     	; 0x7452 <__gesf2+0x56>
    7442:	89 89       	ldd	r24, Y+17	; 0x11
    7444:	82 30       	cpi	r24, 0x02	; 2
    7446:	28 f0       	brcs	.+10     	; 0x7452 <__gesf2+0x56>
    7448:	c7 01       	movw	r24, r14
    744a:	b8 01       	movw	r22, r16
    744c:	0e 94 f5 3c 	call	0x79ea	; 0x79ea <__fpcmp_parts_f>
    7450:	01 c0       	rjmp	.+2      	; 0x7454 <__gesf2+0x58>
    7452:	8f ef       	ldi	r24, 0xFF	; 255
    7454:	68 96       	adiw	r28, 0x18	; 24
    7456:	e6 e0       	ldi	r30, 0x06	; 6
    7458:	0c 94 8a 3d 	jmp	0x7b14	; 0x7b14 <__epilogue_restores__+0x18>

0000745c <__floatsisf>:
    745c:	a8 e0       	ldi	r26, 0x08	; 8
    745e:	b0 e0       	ldi	r27, 0x00	; 0
    7460:	e4 e3       	ldi	r30, 0x34	; 52
    7462:	fa e3       	ldi	r31, 0x3A	; 58
    7464:	0c 94 6b 3d 	jmp	0x7ad6	; 0x7ad6 <__prologue_saves__+0x12>
    7468:	9b 01       	movw	r18, r22
    746a:	ac 01       	movw	r20, r24
    746c:	83 e0       	ldi	r24, 0x03	; 3
    746e:	89 83       	std	Y+1, r24	; 0x01
    7470:	da 01       	movw	r26, r20
    7472:	c9 01       	movw	r24, r18
    7474:	88 27       	eor	r24, r24
    7476:	b7 fd       	sbrc	r27, 7
    7478:	83 95       	inc	r24
    747a:	99 27       	eor	r25, r25
    747c:	aa 27       	eor	r26, r26
    747e:	bb 27       	eor	r27, r27
    7480:	b8 2e       	mov	r11, r24
    7482:	21 15       	cp	r18, r1
    7484:	31 05       	cpc	r19, r1
    7486:	41 05       	cpc	r20, r1
    7488:	51 05       	cpc	r21, r1
    748a:	19 f4       	brne	.+6      	; 0x7492 <__floatsisf+0x36>
    748c:	82 e0       	ldi	r24, 0x02	; 2
    748e:	89 83       	std	Y+1, r24	; 0x01
    7490:	3a c0       	rjmp	.+116    	; 0x7506 <__floatsisf+0xaa>
    7492:	88 23       	and	r24, r24
    7494:	a9 f0       	breq	.+42     	; 0x74c0 <__floatsisf+0x64>
    7496:	20 30       	cpi	r18, 0x00	; 0
    7498:	80 e0       	ldi	r24, 0x00	; 0
    749a:	38 07       	cpc	r19, r24
    749c:	80 e0       	ldi	r24, 0x00	; 0
    749e:	48 07       	cpc	r20, r24
    74a0:	80 e8       	ldi	r24, 0x80	; 128
    74a2:	58 07       	cpc	r21, r24
    74a4:	29 f4       	brne	.+10     	; 0x74b0 <__floatsisf+0x54>
    74a6:	60 e0       	ldi	r22, 0x00	; 0
    74a8:	70 e0       	ldi	r23, 0x00	; 0
    74aa:	80 e0       	ldi	r24, 0x00	; 0
    74ac:	9f ec       	ldi	r25, 0xCF	; 207
    74ae:	30 c0       	rjmp	.+96     	; 0x7510 <__floatsisf+0xb4>
    74b0:	ee 24       	eor	r14, r14
    74b2:	ff 24       	eor	r15, r15
    74b4:	87 01       	movw	r16, r14
    74b6:	e2 1a       	sub	r14, r18
    74b8:	f3 0a       	sbc	r15, r19
    74ba:	04 0b       	sbc	r16, r20
    74bc:	15 0b       	sbc	r17, r21
    74be:	02 c0       	rjmp	.+4      	; 0x74c4 <__floatsisf+0x68>
    74c0:	79 01       	movw	r14, r18
    74c2:	8a 01       	movw	r16, r20
    74c4:	8e e1       	ldi	r24, 0x1E	; 30
    74c6:	c8 2e       	mov	r12, r24
    74c8:	d1 2c       	mov	r13, r1
    74ca:	dc 82       	std	Y+4, r13	; 0x04
    74cc:	cb 82       	std	Y+3, r12	; 0x03
    74ce:	ed 82       	std	Y+5, r14	; 0x05
    74d0:	fe 82       	std	Y+6, r15	; 0x06
    74d2:	0f 83       	std	Y+7, r16	; 0x07
    74d4:	18 87       	std	Y+8, r17	; 0x08
    74d6:	c8 01       	movw	r24, r16
    74d8:	b7 01       	movw	r22, r14
    74da:	0e 94 59 3b 	call	0x76b2	; 0x76b2 <__clzsi2>
    74de:	01 97       	sbiw	r24, 0x01	; 1
    74e0:	18 16       	cp	r1, r24
    74e2:	19 06       	cpc	r1, r25
    74e4:	84 f4       	brge	.+32     	; 0x7506 <__floatsisf+0xaa>
    74e6:	08 2e       	mov	r0, r24
    74e8:	04 c0       	rjmp	.+8      	; 0x74f2 <__floatsisf+0x96>
    74ea:	ee 0c       	add	r14, r14
    74ec:	ff 1c       	adc	r15, r15
    74ee:	00 1f       	adc	r16, r16
    74f0:	11 1f       	adc	r17, r17
    74f2:	0a 94       	dec	r0
    74f4:	d2 f7       	brpl	.-12     	; 0x74ea <__floatsisf+0x8e>
    74f6:	ed 82       	std	Y+5, r14	; 0x05
    74f8:	fe 82       	std	Y+6, r15	; 0x06
    74fa:	0f 83       	std	Y+7, r16	; 0x07
    74fc:	18 87       	std	Y+8, r17	; 0x08
    74fe:	c8 1a       	sub	r12, r24
    7500:	d9 0a       	sbc	r13, r25
    7502:	dc 82       	std	Y+4, r13	; 0x04
    7504:	cb 82       	std	Y+3, r12	; 0x03
    7506:	ba 82       	std	Y+2, r11	; 0x02
    7508:	ce 01       	movw	r24, r28
    750a:	01 96       	adiw	r24, 0x01	; 1
    750c:	0e 94 a8 3b 	call	0x7750	; 0x7750 <__pack_f>
    7510:	28 96       	adiw	r28, 0x08	; 8
    7512:	e9 e0       	ldi	r30, 0x09	; 9
    7514:	0c 94 87 3d 	jmp	0x7b0e	; 0x7b0e <__epilogue_restores__+0x12>

00007518 <__fixsfsi>:
    7518:	ac e0       	ldi	r26, 0x0C	; 12
    751a:	b0 e0       	ldi	r27, 0x00	; 0
    751c:	e2 e9       	ldi	r30, 0x92	; 146
    751e:	fa e3       	ldi	r31, 0x3A	; 58
    7520:	0c 94 72 3d 	jmp	0x7ae4	; 0x7ae4 <__prologue_saves__+0x20>
    7524:	69 83       	std	Y+1, r22	; 0x01
    7526:	7a 83       	std	Y+2, r23	; 0x02
    7528:	8b 83       	std	Y+3, r24	; 0x03
    752a:	9c 83       	std	Y+4, r25	; 0x04
    752c:	ce 01       	movw	r24, r28
    752e:	01 96       	adiw	r24, 0x01	; 1
    7530:	be 01       	movw	r22, r28
    7532:	6b 5f       	subi	r22, 0xFB	; 251
    7534:	7f 4f       	sbci	r23, 0xFF	; 255
    7536:	0e 94 7d 3c 	call	0x78fa	; 0x78fa <__unpack_f>
    753a:	8d 81       	ldd	r24, Y+5	; 0x05
    753c:	82 30       	cpi	r24, 0x02	; 2
    753e:	61 f1       	breq	.+88     	; 0x7598 <__fixsfsi+0x80>
    7540:	82 30       	cpi	r24, 0x02	; 2
    7542:	50 f1       	brcs	.+84     	; 0x7598 <__fixsfsi+0x80>
    7544:	84 30       	cpi	r24, 0x04	; 4
    7546:	21 f4       	brne	.+8      	; 0x7550 <__fixsfsi+0x38>
    7548:	8e 81       	ldd	r24, Y+6	; 0x06
    754a:	88 23       	and	r24, r24
    754c:	51 f1       	breq	.+84     	; 0x75a2 <__fixsfsi+0x8a>
    754e:	2e c0       	rjmp	.+92     	; 0x75ac <__fixsfsi+0x94>
    7550:	2f 81       	ldd	r18, Y+7	; 0x07
    7552:	38 85       	ldd	r19, Y+8	; 0x08
    7554:	37 fd       	sbrc	r19, 7
    7556:	20 c0       	rjmp	.+64     	; 0x7598 <__fixsfsi+0x80>
    7558:	6e 81       	ldd	r22, Y+6	; 0x06
    755a:	2f 31       	cpi	r18, 0x1F	; 31
    755c:	31 05       	cpc	r19, r1
    755e:	1c f0       	brlt	.+6      	; 0x7566 <__fixsfsi+0x4e>
    7560:	66 23       	and	r22, r22
    7562:	f9 f0       	breq	.+62     	; 0x75a2 <__fixsfsi+0x8a>
    7564:	23 c0       	rjmp	.+70     	; 0x75ac <__fixsfsi+0x94>
    7566:	8e e1       	ldi	r24, 0x1E	; 30
    7568:	90 e0       	ldi	r25, 0x00	; 0
    756a:	82 1b       	sub	r24, r18
    756c:	93 0b       	sbc	r25, r19
    756e:	29 85       	ldd	r18, Y+9	; 0x09
    7570:	3a 85       	ldd	r19, Y+10	; 0x0a
    7572:	4b 85       	ldd	r20, Y+11	; 0x0b
    7574:	5c 85       	ldd	r21, Y+12	; 0x0c
    7576:	04 c0       	rjmp	.+8      	; 0x7580 <__fixsfsi+0x68>
    7578:	56 95       	lsr	r21
    757a:	47 95       	ror	r20
    757c:	37 95       	ror	r19
    757e:	27 95       	ror	r18
    7580:	8a 95       	dec	r24
    7582:	d2 f7       	brpl	.-12     	; 0x7578 <__fixsfsi+0x60>
    7584:	66 23       	and	r22, r22
    7586:	b1 f0       	breq	.+44     	; 0x75b4 <__fixsfsi+0x9c>
    7588:	50 95       	com	r21
    758a:	40 95       	com	r20
    758c:	30 95       	com	r19
    758e:	21 95       	neg	r18
    7590:	3f 4f       	sbci	r19, 0xFF	; 255
    7592:	4f 4f       	sbci	r20, 0xFF	; 255
    7594:	5f 4f       	sbci	r21, 0xFF	; 255
    7596:	0e c0       	rjmp	.+28     	; 0x75b4 <__fixsfsi+0x9c>
    7598:	20 e0       	ldi	r18, 0x00	; 0
    759a:	30 e0       	ldi	r19, 0x00	; 0
    759c:	40 e0       	ldi	r20, 0x00	; 0
    759e:	50 e0       	ldi	r21, 0x00	; 0
    75a0:	09 c0       	rjmp	.+18     	; 0x75b4 <__fixsfsi+0x9c>
    75a2:	2f ef       	ldi	r18, 0xFF	; 255
    75a4:	3f ef       	ldi	r19, 0xFF	; 255
    75a6:	4f ef       	ldi	r20, 0xFF	; 255
    75a8:	5f e7       	ldi	r21, 0x7F	; 127
    75aa:	04 c0       	rjmp	.+8      	; 0x75b4 <__fixsfsi+0x9c>
    75ac:	20 e0       	ldi	r18, 0x00	; 0
    75ae:	30 e0       	ldi	r19, 0x00	; 0
    75b0:	40 e0       	ldi	r20, 0x00	; 0
    75b2:	50 e8       	ldi	r21, 0x80	; 128
    75b4:	b9 01       	movw	r22, r18
    75b6:	ca 01       	movw	r24, r20
    75b8:	2c 96       	adiw	r28, 0x0c	; 12
    75ba:	e2 e0       	ldi	r30, 0x02	; 2
    75bc:	0c 94 8e 3d 	jmp	0x7b1c	; 0x7b1c <__epilogue_restores__+0x20>

000075c0 <__floatunsisf>:
    75c0:	a8 e0       	ldi	r26, 0x08	; 8
    75c2:	b0 e0       	ldi	r27, 0x00	; 0
    75c4:	e6 ee       	ldi	r30, 0xE6	; 230
    75c6:	fa e3       	ldi	r31, 0x3A	; 58
    75c8:	0c 94 6a 3d 	jmp	0x7ad4	; 0x7ad4 <__prologue_saves__+0x10>
    75cc:	7b 01       	movw	r14, r22
    75ce:	8c 01       	movw	r16, r24
    75d0:	61 15       	cp	r22, r1
    75d2:	71 05       	cpc	r23, r1
    75d4:	81 05       	cpc	r24, r1
    75d6:	91 05       	cpc	r25, r1
    75d8:	19 f4       	brne	.+6      	; 0x75e0 <__floatunsisf+0x20>
    75da:	82 e0       	ldi	r24, 0x02	; 2
    75dc:	89 83       	std	Y+1, r24	; 0x01
    75de:	60 c0       	rjmp	.+192    	; 0x76a0 <__floatunsisf+0xe0>
    75e0:	83 e0       	ldi	r24, 0x03	; 3
    75e2:	89 83       	std	Y+1, r24	; 0x01
    75e4:	8e e1       	ldi	r24, 0x1E	; 30
    75e6:	c8 2e       	mov	r12, r24
    75e8:	d1 2c       	mov	r13, r1
    75ea:	dc 82       	std	Y+4, r13	; 0x04
    75ec:	cb 82       	std	Y+3, r12	; 0x03
    75ee:	ed 82       	std	Y+5, r14	; 0x05
    75f0:	fe 82       	std	Y+6, r15	; 0x06
    75f2:	0f 83       	std	Y+7, r16	; 0x07
    75f4:	18 87       	std	Y+8, r17	; 0x08
    75f6:	c8 01       	movw	r24, r16
    75f8:	b7 01       	movw	r22, r14
    75fa:	0e 94 59 3b 	call	0x76b2	; 0x76b2 <__clzsi2>
    75fe:	fc 01       	movw	r30, r24
    7600:	31 97       	sbiw	r30, 0x01	; 1
    7602:	f7 ff       	sbrs	r31, 7
    7604:	3b c0       	rjmp	.+118    	; 0x767c <__floatunsisf+0xbc>
    7606:	22 27       	eor	r18, r18
    7608:	33 27       	eor	r19, r19
    760a:	2e 1b       	sub	r18, r30
    760c:	3f 0b       	sbc	r19, r31
    760e:	57 01       	movw	r10, r14
    7610:	68 01       	movw	r12, r16
    7612:	02 2e       	mov	r0, r18
    7614:	04 c0       	rjmp	.+8      	; 0x761e <__floatunsisf+0x5e>
    7616:	d6 94       	lsr	r13
    7618:	c7 94       	ror	r12
    761a:	b7 94       	ror	r11
    761c:	a7 94       	ror	r10
    761e:	0a 94       	dec	r0
    7620:	d2 f7       	brpl	.-12     	; 0x7616 <__floatunsisf+0x56>
    7622:	40 e0       	ldi	r20, 0x00	; 0
    7624:	50 e0       	ldi	r21, 0x00	; 0
    7626:	60 e0       	ldi	r22, 0x00	; 0
    7628:	70 e0       	ldi	r23, 0x00	; 0
    762a:	81 e0       	ldi	r24, 0x01	; 1
    762c:	90 e0       	ldi	r25, 0x00	; 0
    762e:	a0 e0       	ldi	r26, 0x00	; 0
    7630:	b0 e0       	ldi	r27, 0x00	; 0
    7632:	04 c0       	rjmp	.+8      	; 0x763c <__floatunsisf+0x7c>
    7634:	88 0f       	add	r24, r24
    7636:	99 1f       	adc	r25, r25
    7638:	aa 1f       	adc	r26, r26
    763a:	bb 1f       	adc	r27, r27
    763c:	2a 95       	dec	r18
    763e:	d2 f7       	brpl	.-12     	; 0x7634 <__floatunsisf+0x74>
    7640:	01 97       	sbiw	r24, 0x01	; 1
    7642:	a1 09       	sbc	r26, r1
    7644:	b1 09       	sbc	r27, r1
    7646:	8e 21       	and	r24, r14
    7648:	9f 21       	and	r25, r15
    764a:	a0 23       	and	r26, r16
    764c:	b1 23       	and	r27, r17
    764e:	00 97       	sbiw	r24, 0x00	; 0
    7650:	a1 05       	cpc	r26, r1
    7652:	b1 05       	cpc	r27, r1
    7654:	21 f0       	breq	.+8      	; 0x765e <__floatunsisf+0x9e>
    7656:	41 e0       	ldi	r20, 0x01	; 1
    7658:	50 e0       	ldi	r21, 0x00	; 0
    765a:	60 e0       	ldi	r22, 0x00	; 0
    765c:	70 e0       	ldi	r23, 0x00	; 0
    765e:	4a 29       	or	r20, r10
    7660:	5b 29       	or	r21, r11
    7662:	6c 29       	or	r22, r12
    7664:	7d 29       	or	r23, r13
    7666:	4d 83       	std	Y+5, r20	; 0x05
    7668:	5e 83       	std	Y+6, r21	; 0x06
    766a:	6f 83       	std	Y+7, r22	; 0x07
    766c:	78 87       	std	Y+8, r23	; 0x08
    766e:	8e e1       	ldi	r24, 0x1E	; 30
    7670:	90 e0       	ldi	r25, 0x00	; 0
    7672:	8e 1b       	sub	r24, r30
    7674:	9f 0b       	sbc	r25, r31
    7676:	9c 83       	std	Y+4, r25	; 0x04
    7678:	8b 83       	std	Y+3, r24	; 0x03
    767a:	12 c0       	rjmp	.+36     	; 0x76a0 <__floatunsisf+0xe0>
    767c:	30 97       	sbiw	r30, 0x00	; 0
    767e:	81 f0       	breq	.+32     	; 0x76a0 <__floatunsisf+0xe0>
    7680:	0e 2e       	mov	r0, r30
    7682:	04 c0       	rjmp	.+8      	; 0x768c <__floatunsisf+0xcc>
    7684:	ee 0c       	add	r14, r14
    7686:	ff 1c       	adc	r15, r15
    7688:	00 1f       	adc	r16, r16
    768a:	11 1f       	adc	r17, r17
    768c:	0a 94       	dec	r0
    768e:	d2 f7       	brpl	.-12     	; 0x7684 <__floatunsisf+0xc4>
    7690:	ed 82       	std	Y+5, r14	; 0x05
    7692:	fe 82       	std	Y+6, r15	; 0x06
    7694:	0f 83       	std	Y+7, r16	; 0x07
    7696:	18 87       	std	Y+8, r17	; 0x08
    7698:	ce 1a       	sub	r12, r30
    769a:	df 0a       	sbc	r13, r31
    769c:	dc 82       	std	Y+4, r13	; 0x04
    769e:	cb 82       	std	Y+3, r12	; 0x03
    76a0:	1a 82       	std	Y+2, r1	; 0x02
    76a2:	ce 01       	movw	r24, r28
    76a4:	01 96       	adiw	r24, 0x01	; 1
    76a6:	0e 94 a8 3b 	call	0x7750	; 0x7750 <__pack_f>
    76aa:	28 96       	adiw	r28, 0x08	; 8
    76ac:	ea e0       	ldi	r30, 0x0A	; 10
    76ae:	0c 94 86 3d 	jmp	0x7b0c	; 0x7b0c <__epilogue_restores__+0x10>

000076b2 <__clzsi2>:
    76b2:	ef 92       	push	r14
    76b4:	ff 92       	push	r15
    76b6:	0f 93       	push	r16
    76b8:	1f 93       	push	r17
    76ba:	7b 01       	movw	r14, r22
    76bc:	8c 01       	movw	r16, r24
    76be:	80 e0       	ldi	r24, 0x00	; 0
    76c0:	e8 16       	cp	r14, r24
    76c2:	80 e0       	ldi	r24, 0x00	; 0
    76c4:	f8 06       	cpc	r15, r24
    76c6:	81 e0       	ldi	r24, 0x01	; 1
    76c8:	08 07       	cpc	r16, r24
    76ca:	80 e0       	ldi	r24, 0x00	; 0
    76cc:	18 07       	cpc	r17, r24
    76ce:	88 f4       	brcc	.+34     	; 0x76f2 <__clzsi2+0x40>
    76d0:	8f ef       	ldi	r24, 0xFF	; 255
    76d2:	e8 16       	cp	r14, r24
    76d4:	f1 04       	cpc	r15, r1
    76d6:	01 05       	cpc	r16, r1
    76d8:	11 05       	cpc	r17, r1
    76da:	31 f0       	breq	.+12     	; 0x76e8 <__clzsi2+0x36>
    76dc:	28 f0       	brcs	.+10     	; 0x76e8 <__clzsi2+0x36>
    76de:	88 e0       	ldi	r24, 0x08	; 8
    76e0:	90 e0       	ldi	r25, 0x00	; 0
    76e2:	a0 e0       	ldi	r26, 0x00	; 0
    76e4:	b0 e0       	ldi	r27, 0x00	; 0
    76e6:	17 c0       	rjmp	.+46     	; 0x7716 <__clzsi2+0x64>
    76e8:	80 e0       	ldi	r24, 0x00	; 0
    76ea:	90 e0       	ldi	r25, 0x00	; 0
    76ec:	a0 e0       	ldi	r26, 0x00	; 0
    76ee:	b0 e0       	ldi	r27, 0x00	; 0
    76f0:	12 c0       	rjmp	.+36     	; 0x7716 <__clzsi2+0x64>
    76f2:	80 e0       	ldi	r24, 0x00	; 0
    76f4:	e8 16       	cp	r14, r24
    76f6:	80 e0       	ldi	r24, 0x00	; 0
    76f8:	f8 06       	cpc	r15, r24
    76fa:	80 e0       	ldi	r24, 0x00	; 0
    76fc:	08 07       	cpc	r16, r24
    76fe:	81 e0       	ldi	r24, 0x01	; 1
    7700:	18 07       	cpc	r17, r24
    7702:	28 f0       	brcs	.+10     	; 0x770e <__clzsi2+0x5c>
    7704:	88 e1       	ldi	r24, 0x18	; 24
    7706:	90 e0       	ldi	r25, 0x00	; 0
    7708:	a0 e0       	ldi	r26, 0x00	; 0
    770a:	b0 e0       	ldi	r27, 0x00	; 0
    770c:	04 c0       	rjmp	.+8      	; 0x7716 <__clzsi2+0x64>
    770e:	80 e1       	ldi	r24, 0x10	; 16
    7710:	90 e0       	ldi	r25, 0x00	; 0
    7712:	a0 e0       	ldi	r26, 0x00	; 0
    7714:	b0 e0       	ldi	r27, 0x00	; 0
    7716:	20 e2       	ldi	r18, 0x20	; 32
    7718:	30 e0       	ldi	r19, 0x00	; 0
    771a:	40 e0       	ldi	r20, 0x00	; 0
    771c:	50 e0       	ldi	r21, 0x00	; 0
    771e:	28 1b       	sub	r18, r24
    7720:	39 0b       	sbc	r19, r25
    7722:	4a 0b       	sbc	r20, r26
    7724:	5b 0b       	sbc	r21, r27
    7726:	04 c0       	rjmp	.+8      	; 0x7730 <__clzsi2+0x7e>
    7728:	16 95       	lsr	r17
    772a:	07 95       	ror	r16
    772c:	f7 94       	ror	r15
    772e:	e7 94       	ror	r14
    7730:	8a 95       	dec	r24
    7732:	d2 f7       	brpl	.-12     	; 0x7728 <__clzsi2+0x76>
    7734:	f7 01       	movw	r30, r14
    7736:	e0 56       	subi	r30, 0x60	; 96
    7738:	f7 4f       	sbci	r31, 0xF7	; 247
    773a:	80 81       	ld	r24, Z
    773c:	28 1b       	sub	r18, r24
    773e:	31 09       	sbc	r19, r1
    7740:	41 09       	sbc	r20, r1
    7742:	51 09       	sbc	r21, r1
    7744:	c9 01       	movw	r24, r18
    7746:	1f 91       	pop	r17
    7748:	0f 91       	pop	r16
    774a:	ff 90       	pop	r15
    774c:	ef 90       	pop	r14
    774e:	08 95       	ret

00007750 <__pack_f>:
    7750:	df 92       	push	r13
    7752:	ef 92       	push	r14
    7754:	ff 92       	push	r15
    7756:	0f 93       	push	r16
    7758:	1f 93       	push	r17
    775a:	fc 01       	movw	r30, r24
    775c:	e4 80       	ldd	r14, Z+4	; 0x04
    775e:	f5 80       	ldd	r15, Z+5	; 0x05
    7760:	06 81       	ldd	r16, Z+6	; 0x06
    7762:	17 81       	ldd	r17, Z+7	; 0x07
    7764:	d1 80       	ldd	r13, Z+1	; 0x01
    7766:	80 81       	ld	r24, Z
    7768:	82 30       	cpi	r24, 0x02	; 2
    776a:	48 f4       	brcc	.+18     	; 0x777e <__pack_f+0x2e>
    776c:	80 e0       	ldi	r24, 0x00	; 0
    776e:	90 e0       	ldi	r25, 0x00	; 0
    7770:	a0 e1       	ldi	r26, 0x10	; 16
    7772:	b0 e0       	ldi	r27, 0x00	; 0
    7774:	e8 2a       	or	r14, r24
    7776:	f9 2a       	or	r15, r25
    7778:	0a 2b       	or	r16, r26
    777a:	1b 2b       	or	r17, r27
    777c:	a5 c0       	rjmp	.+330    	; 0x78c8 <__pack_f+0x178>
    777e:	84 30       	cpi	r24, 0x04	; 4
    7780:	09 f4       	brne	.+2      	; 0x7784 <__pack_f+0x34>
    7782:	9f c0       	rjmp	.+318    	; 0x78c2 <__pack_f+0x172>
    7784:	82 30       	cpi	r24, 0x02	; 2
    7786:	21 f4       	brne	.+8      	; 0x7790 <__pack_f+0x40>
    7788:	ee 24       	eor	r14, r14
    778a:	ff 24       	eor	r15, r15
    778c:	87 01       	movw	r16, r14
    778e:	05 c0       	rjmp	.+10     	; 0x779a <__pack_f+0x4a>
    7790:	e1 14       	cp	r14, r1
    7792:	f1 04       	cpc	r15, r1
    7794:	01 05       	cpc	r16, r1
    7796:	11 05       	cpc	r17, r1
    7798:	19 f4       	brne	.+6      	; 0x77a0 <__pack_f+0x50>
    779a:	e0 e0       	ldi	r30, 0x00	; 0
    779c:	f0 e0       	ldi	r31, 0x00	; 0
    779e:	96 c0       	rjmp	.+300    	; 0x78cc <__pack_f+0x17c>
    77a0:	62 81       	ldd	r22, Z+2	; 0x02
    77a2:	73 81       	ldd	r23, Z+3	; 0x03
    77a4:	9f ef       	ldi	r25, 0xFF	; 255
    77a6:	62 38       	cpi	r22, 0x82	; 130
    77a8:	79 07       	cpc	r23, r25
    77aa:	0c f0       	brlt	.+2      	; 0x77ae <__pack_f+0x5e>
    77ac:	5b c0       	rjmp	.+182    	; 0x7864 <__pack_f+0x114>
    77ae:	22 e8       	ldi	r18, 0x82	; 130
    77b0:	3f ef       	ldi	r19, 0xFF	; 255
    77b2:	26 1b       	sub	r18, r22
    77b4:	37 0b       	sbc	r19, r23
    77b6:	2a 31       	cpi	r18, 0x1A	; 26
    77b8:	31 05       	cpc	r19, r1
    77ba:	2c f0       	brlt	.+10     	; 0x77c6 <__pack_f+0x76>
    77bc:	20 e0       	ldi	r18, 0x00	; 0
    77be:	30 e0       	ldi	r19, 0x00	; 0
    77c0:	40 e0       	ldi	r20, 0x00	; 0
    77c2:	50 e0       	ldi	r21, 0x00	; 0
    77c4:	2a c0       	rjmp	.+84     	; 0x781a <__pack_f+0xca>
    77c6:	b8 01       	movw	r22, r16
    77c8:	a7 01       	movw	r20, r14
    77ca:	02 2e       	mov	r0, r18
    77cc:	04 c0       	rjmp	.+8      	; 0x77d6 <__pack_f+0x86>
    77ce:	76 95       	lsr	r23
    77d0:	67 95       	ror	r22
    77d2:	57 95       	ror	r21
    77d4:	47 95       	ror	r20
    77d6:	0a 94       	dec	r0
    77d8:	d2 f7       	brpl	.-12     	; 0x77ce <__pack_f+0x7e>
    77da:	81 e0       	ldi	r24, 0x01	; 1
    77dc:	90 e0       	ldi	r25, 0x00	; 0
    77de:	a0 e0       	ldi	r26, 0x00	; 0
    77e0:	b0 e0       	ldi	r27, 0x00	; 0
    77e2:	04 c0       	rjmp	.+8      	; 0x77ec <__pack_f+0x9c>
    77e4:	88 0f       	add	r24, r24
    77e6:	99 1f       	adc	r25, r25
    77e8:	aa 1f       	adc	r26, r26
    77ea:	bb 1f       	adc	r27, r27
    77ec:	2a 95       	dec	r18
    77ee:	d2 f7       	brpl	.-12     	; 0x77e4 <__pack_f+0x94>
    77f0:	01 97       	sbiw	r24, 0x01	; 1
    77f2:	a1 09       	sbc	r26, r1
    77f4:	b1 09       	sbc	r27, r1
    77f6:	8e 21       	and	r24, r14
    77f8:	9f 21       	and	r25, r15
    77fa:	a0 23       	and	r26, r16
    77fc:	b1 23       	and	r27, r17
    77fe:	00 97       	sbiw	r24, 0x00	; 0
    7800:	a1 05       	cpc	r26, r1
    7802:	b1 05       	cpc	r27, r1
    7804:	21 f0       	breq	.+8      	; 0x780e <__pack_f+0xbe>
    7806:	81 e0       	ldi	r24, 0x01	; 1
    7808:	90 e0       	ldi	r25, 0x00	; 0
    780a:	a0 e0       	ldi	r26, 0x00	; 0
    780c:	b0 e0       	ldi	r27, 0x00	; 0
    780e:	9a 01       	movw	r18, r20
    7810:	ab 01       	movw	r20, r22
    7812:	28 2b       	or	r18, r24
    7814:	39 2b       	or	r19, r25
    7816:	4a 2b       	or	r20, r26
    7818:	5b 2b       	or	r21, r27
    781a:	da 01       	movw	r26, r20
    781c:	c9 01       	movw	r24, r18
    781e:	8f 77       	andi	r24, 0x7F	; 127
    7820:	90 70       	andi	r25, 0x00	; 0
    7822:	a0 70       	andi	r26, 0x00	; 0
    7824:	b0 70       	andi	r27, 0x00	; 0
    7826:	80 34       	cpi	r24, 0x40	; 64
    7828:	91 05       	cpc	r25, r1
    782a:	a1 05       	cpc	r26, r1
    782c:	b1 05       	cpc	r27, r1
    782e:	39 f4       	brne	.+14     	; 0x783e <__pack_f+0xee>
    7830:	27 ff       	sbrs	r18, 7
    7832:	09 c0       	rjmp	.+18     	; 0x7846 <__pack_f+0xf6>
    7834:	20 5c       	subi	r18, 0xC0	; 192
    7836:	3f 4f       	sbci	r19, 0xFF	; 255
    7838:	4f 4f       	sbci	r20, 0xFF	; 255
    783a:	5f 4f       	sbci	r21, 0xFF	; 255
    783c:	04 c0       	rjmp	.+8      	; 0x7846 <__pack_f+0xf6>
    783e:	21 5c       	subi	r18, 0xC1	; 193
    7840:	3f 4f       	sbci	r19, 0xFF	; 255
    7842:	4f 4f       	sbci	r20, 0xFF	; 255
    7844:	5f 4f       	sbci	r21, 0xFF	; 255
    7846:	e0 e0       	ldi	r30, 0x00	; 0
    7848:	f0 e0       	ldi	r31, 0x00	; 0
    784a:	20 30       	cpi	r18, 0x00	; 0
    784c:	a0 e0       	ldi	r26, 0x00	; 0
    784e:	3a 07       	cpc	r19, r26
    7850:	a0 e0       	ldi	r26, 0x00	; 0
    7852:	4a 07       	cpc	r20, r26
    7854:	a0 e4       	ldi	r26, 0x40	; 64
    7856:	5a 07       	cpc	r21, r26
    7858:	10 f0       	brcs	.+4      	; 0x785e <__pack_f+0x10e>
    785a:	e1 e0       	ldi	r30, 0x01	; 1
    785c:	f0 e0       	ldi	r31, 0x00	; 0
    785e:	79 01       	movw	r14, r18
    7860:	8a 01       	movw	r16, r20
    7862:	27 c0       	rjmp	.+78     	; 0x78b2 <__pack_f+0x162>
    7864:	60 38       	cpi	r22, 0x80	; 128
    7866:	71 05       	cpc	r23, r1
    7868:	64 f5       	brge	.+88     	; 0x78c2 <__pack_f+0x172>
    786a:	fb 01       	movw	r30, r22
    786c:	e1 58       	subi	r30, 0x81	; 129
    786e:	ff 4f       	sbci	r31, 0xFF	; 255
    7870:	d8 01       	movw	r26, r16
    7872:	c7 01       	movw	r24, r14
    7874:	8f 77       	andi	r24, 0x7F	; 127
    7876:	90 70       	andi	r25, 0x00	; 0
    7878:	a0 70       	andi	r26, 0x00	; 0
    787a:	b0 70       	andi	r27, 0x00	; 0
    787c:	80 34       	cpi	r24, 0x40	; 64
    787e:	91 05       	cpc	r25, r1
    7880:	a1 05       	cpc	r26, r1
    7882:	b1 05       	cpc	r27, r1
    7884:	39 f4       	brne	.+14     	; 0x7894 <__pack_f+0x144>
    7886:	e7 fe       	sbrs	r14, 7
    7888:	0d c0       	rjmp	.+26     	; 0x78a4 <__pack_f+0x154>
    788a:	80 e4       	ldi	r24, 0x40	; 64
    788c:	90 e0       	ldi	r25, 0x00	; 0
    788e:	a0 e0       	ldi	r26, 0x00	; 0
    7890:	b0 e0       	ldi	r27, 0x00	; 0
    7892:	04 c0       	rjmp	.+8      	; 0x789c <__pack_f+0x14c>
    7894:	8f e3       	ldi	r24, 0x3F	; 63
    7896:	90 e0       	ldi	r25, 0x00	; 0
    7898:	a0 e0       	ldi	r26, 0x00	; 0
    789a:	b0 e0       	ldi	r27, 0x00	; 0
    789c:	e8 0e       	add	r14, r24
    789e:	f9 1e       	adc	r15, r25
    78a0:	0a 1f       	adc	r16, r26
    78a2:	1b 1f       	adc	r17, r27
    78a4:	17 ff       	sbrs	r17, 7
    78a6:	05 c0       	rjmp	.+10     	; 0x78b2 <__pack_f+0x162>
    78a8:	16 95       	lsr	r17
    78aa:	07 95       	ror	r16
    78ac:	f7 94       	ror	r15
    78ae:	e7 94       	ror	r14
    78b0:	31 96       	adiw	r30, 0x01	; 1
    78b2:	87 e0       	ldi	r24, 0x07	; 7
    78b4:	16 95       	lsr	r17
    78b6:	07 95       	ror	r16
    78b8:	f7 94       	ror	r15
    78ba:	e7 94       	ror	r14
    78bc:	8a 95       	dec	r24
    78be:	d1 f7       	brne	.-12     	; 0x78b4 <__pack_f+0x164>
    78c0:	05 c0       	rjmp	.+10     	; 0x78cc <__pack_f+0x17c>
    78c2:	ee 24       	eor	r14, r14
    78c4:	ff 24       	eor	r15, r15
    78c6:	87 01       	movw	r16, r14
    78c8:	ef ef       	ldi	r30, 0xFF	; 255
    78ca:	f0 e0       	ldi	r31, 0x00	; 0
    78cc:	6e 2f       	mov	r22, r30
    78ce:	67 95       	ror	r22
    78d0:	66 27       	eor	r22, r22
    78d2:	67 95       	ror	r22
    78d4:	90 2f       	mov	r25, r16
    78d6:	9f 77       	andi	r25, 0x7F	; 127
    78d8:	d7 94       	ror	r13
    78da:	dd 24       	eor	r13, r13
    78dc:	d7 94       	ror	r13
    78de:	8e 2f       	mov	r24, r30
    78e0:	86 95       	lsr	r24
    78e2:	49 2f       	mov	r20, r25
    78e4:	46 2b       	or	r20, r22
    78e6:	58 2f       	mov	r21, r24
    78e8:	5d 29       	or	r21, r13
    78ea:	b7 01       	movw	r22, r14
    78ec:	ca 01       	movw	r24, r20
    78ee:	1f 91       	pop	r17
    78f0:	0f 91       	pop	r16
    78f2:	ff 90       	pop	r15
    78f4:	ef 90       	pop	r14
    78f6:	df 90       	pop	r13
    78f8:	08 95       	ret

000078fa <__unpack_f>:
    78fa:	fc 01       	movw	r30, r24
    78fc:	db 01       	movw	r26, r22
    78fe:	40 81       	ld	r20, Z
    7900:	51 81       	ldd	r21, Z+1	; 0x01
    7902:	22 81       	ldd	r18, Z+2	; 0x02
    7904:	62 2f       	mov	r22, r18
    7906:	6f 77       	andi	r22, 0x7F	; 127
    7908:	70 e0       	ldi	r23, 0x00	; 0
    790a:	22 1f       	adc	r18, r18
    790c:	22 27       	eor	r18, r18
    790e:	22 1f       	adc	r18, r18
    7910:	93 81       	ldd	r25, Z+3	; 0x03
    7912:	89 2f       	mov	r24, r25
    7914:	88 0f       	add	r24, r24
    7916:	82 2b       	or	r24, r18
    7918:	28 2f       	mov	r18, r24
    791a:	30 e0       	ldi	r19, 0x00	; 0
    791c:	99 1f       	adc	r25, r25
    791e:	99 27       	eor	r25, r25
    7920:	99 1f       	adc	r25, r25
    7922:	11 96       	adiw	r26, 0x01	; 1
    7924:	9c 93       	st	X, r25
    7926:	11 97       	sbiw	r26, 0x01	; 1
    7928:	21 15       	cp	r18, r1
    792a:	31 05       	cpc	r19, r1
    792c:	a9 f5       	brne	.+106    	; 0x7998 <__unpack_f+0x9e>
    792e:	41 15       	cp	r20, r1
    7930:	51 05       	cpc	r21, r1
    7932:	61 05       	cpc	r22, r1
    7934:	71 05       	cpc	r23, r1
    7936:	11 f4       	brne	.+4      	; 0x793c <__unpack_f+0x42>
    7938:	82 e0       	ldi	r24, 0x02	; 2
    793a:	37 c0       	rjmp	.+110    	; 0x79aa <__unpack_f+0xb0>
    793c:	82 e8       	ldi	r24, 0x82	; 130
    793e:	9f ef       	ldi	r25, 0xFF	; 255
    7940:	13 96       	adiw	r26, 0x03	; 3
    7942:	9c 93       	st	X, r25
    7944:	8e 93       	st	-X, r24
    7946:	12 97       	sbiw	r26, 0x02	; 2
    7948:	9a 01       	movw	r18, r20
    794a:	ab 01       	movw	r20, r22
    794c:	67 e0       	ldi	r22, 0x07	; 7
    794e:	22 0f       	add	r18, r18
    7950:	33 1f       	adc	r19, r19
    7952:	44 1f       	adc	r20, r20
    7954:	55 1f       	adc	r21, r21
    7956:	6a 95       	dec	r22
    7958:	d1 f7       	brne	.-12     	; 0x794e <__unpack_f+0x54>
    795a:	83 e0       	ldi	r24, 0x03	; 3
    795c:	8c 93       	st	X, r24
    795e:	0d c0       	rjmp	.+26     	; 0x797a <__unpack_f+0x80>
    7960:	22 0f       	add	r18, r18
    7962:	33 1f       	adc	r19, r19
    7964:	44 1f       	adc	r20, r20
    7966:	55 1f       	adc	r21, r21
    7968:	12 96       	adiw	r26, 0x02	; 2
    796a:	8d 91       	ld	r24, X+
    796c:	9c 91       	ld	r25, X
    796e:	13 97       	sbiw	r26, 0x03	; 3
    7970:	01 97       	sbiw	r24, 0x01	; 1
    7972:	13 96       	adiw	r26, 0x03	; 3
    7974:	9c 93       	st	X, r25
    7976:	8e 93       	st	-X, r24
    7978:	12 97       	sbiw	r26, 0x02	; 2
    797a:	20 30       	cpi	r18, 0x00	; 0
    797c:	80 e0       	ldi	r24, 0x00	; 0
    797e:	38 07       	cpc	r19, r24
    7980:	80 e0       	ldi	r24, 0x00	; 0
    7982:	48 07       	cpc	r20, r24
    7984:	80 e4       	ldi	r24, 0x40	; 64
    7986:	58 07       	cpc	r21, r24
    7988:	58 f3       	brcs	.-42     	; 0x7960 <__unpack_f+0x66>
    798a:	14 96       	adiw	r26, 0x04	; 4
    798c:	2d 93       	st	X+, r18
    798e:	3d 93       	st	X+, r19
    7990:	4d 93       	st	X+, r20
    7992:	5c 93       	st	X, r21
    7994:	17 97       	sbiw	r26, 0x07	; 7
    7996:	08 95       	ret
    7998:	2f 3f       	cpi	r18, 0xFF	; 255
    799a:	31 05       	cpc	r19, r1
    799c:	79 f4       	brne	.+30     	; 0x79bc <__unpack_f+0xc2>
    799e:	41 15       	cp	r20, r1
    79a0:	51 05       	cpc	r21, r1
    79a2:	61 05       	cpc	r22, r1
    79a4:	71 05       	cpc	r23, r1
    79a6:	19 f4       	brne	.+6      	; 0x79ae <__unpack_f+0xb4>
    79a8:	84 e0       	ldi	r24, 0x04	; 4
    79aa:	8c 93       	st	X, r24
    79ac:	08 95       	ret
    79ae:	64 ff       	sbrs	r22, 4
    79b0:	03 c0       	rjmp	.+6      	; 0x79b8 <__unpack_f+0xbe>
    79b2:	81 e0       	ldi	r24, 0x01	; 1
    79b4:	8c 93       	st	X, r24
    79b6:	12 c0       	rjmp	.+36     	; 0x79dc <__unpack_f+0xe2>
    79b8:	1c 92       	st	X, r1
    79ba:	10 c0       	rjmp	.+32     	; 0x79dc <__unpack_f+0xe2>
    79bc:	2f 57       	subi	r18, 0x7F	; 127
    79be:	30 40       	sbci	r19, 0x00	; 0
    79c0:	13 96       	adiw	r26, 0x03	; 3
    79c2:	3c 93       	st	X, r19
    79c4:	2e 93       	st	-X, r18
    79c6:	12 97       	sbiw	r26, 0x02	; 2
    79c8:	83 e0       	ldi	r24, 0x03	; 3
    79ca:	8c 93       	st	X, r24
    79cc:	87 e0       	ldi	r24, 0x07	; 7
    79ce:	44 0f       	add	r20, r20
    79d0:	55 1f       	adc	r21, r21
    79d2:	66 1f       	adc	r22, r22
    79d4:	77 1f       	adc	r23, r23
    79d6:	8a 95       	dec	r24
    79d8:	d1 f7       	brne	.-12     	; 0x79ce <__unpack_f+0xd4>
    79da:	70 64       	ori	r23, 0x40	; 64
    79dc:	14 96       	adiw	r26, 0x04	; 4
    79de:	4d 93       	st	X+, r20
    79e0:	5d 93       	st	X+, r21
    79e2:	6d 93       	st	X+, r22
    79e4:	7c 93       	st	X, r23
    79e6:	17 97       	sbiw	r26, 0x07	; 7
    79e8:	08 95       	ret

000079ea <__fpcmp_parts_f>:
    79ea:	1f 93       	push	r17
    79ec:	dc 01       	movw	r26, r24
    79ee:	fb 01       	movw	r30, r22
    79f0:	9c 91       	ld	r25, X
    79f2:	92 30       	cpi	r25, 0x02	; 2
    79f4:	08 f4       	brcc	.+2      	; 0x79f8 <__fpcmp_parts_f+0xe>
    79f6:	47 c0       	rjmp	.+142    	; 0x7a86 <__fpcmp_parts_f+0x9c>
    79f8:	80 81       	ld	r24, Z
    79fa:	82 30       	cpi	r24, 0x02	; 2
    79fc:	08 f4       	brcc	.+2      	; 0x7a00 <__fpcmp_parts_f+0x16>
    79fe:	43 c0       	rjmp	.+134    	; 0x7a86 <__fpcmp_parts_f+0x9c>
    7a00:	94 30       	cpi	r25, 0x04	; 4
    7a02:	51 f4       	brne	.+20     	; 0x7a18 <__fpcmp_parts_f+0x2e>
    7a04:	11 96       	adiw	r26, 0x01	; 1
    7a06:	1c 91       	ld	r17, X
    7a08:	84 30       	cpi	r24, 0x04	; 4
    7a0a:	99 f5       	brne	.+102    	; 0x7a72 <__fpcmp_parts_f+0x88>
    7a0c:	81 81       	ldd	r24, Z+1	; 0x01
    7a0e:	68 2f       	mov	r22, r24
    7a10:	70 e0       	ldi	r23, 0x00	; 0
    7a12:	61 1b       	sub	r22, r17
    7a14:	71 09       	sbc	r23, r1
    7a16:	3f c0       	rjmp	.+126    	; 0x7a96 <__fpcmp_parts_f+0xac>
    7a18:	84 30       	cpi	r24, 0x04	; 4
    7a1a:	21 f0       	breq	.+8      	; 0x7a24 <__fpcmp_parts_f+0x3a>
    7a1c:	92 30       	cpi	r25, 0x02	; 2
    7a1e:	31 f4       	brne	.+12     	; 0x7a2c <__fpcmp_parts_f+0x42>
    7a20:	82 30       	cpi	r24, 0x02	; 2
    7a22:	b9 f1       	breq	.+110    	; 0x7a92 <__fpcmp_parts_f+0xa8>
    7a24:	81 81       	ldd	r24, Z+1	; 0x01
    7a26:	88 23       	and	r24, r24
    7a28:	89 f1       	breq	.+98     	; 0x7a8c <__fpcmp_parts_f+0xa2>
    7a2a:	2d c0       	rjmp	.+90     	; 0x7a86 <__fpcmp_parts_f+0x9c>
    7a2c:	11 96       	adiw	r26, 0x01	; 1
    7a2e:	1c 91       	ld	r17, X
    7a30:	11 97       	sbiw	r26, 0x01	; 1
    7a32:	82 30       	cpi	r24, 0x02	; 2
    7a34:	f1 f0       	breq	.+60     	; 0x7a72 <__fpcmp_parts_f+0x88>
    7a36:	81 81       	ldd	r24, Z+1	; 0x01
    7a38:	18 17       	cp	r17, r24
    7a3a:	d9 f4       	brne	.+54     	; 0x7a72 <__fpcmp_parts_f+0x88>
    7a3c:	12 96       	adiw	r26, 0x02	; 2
    7a3e:	2d 91       	ld	r18, X+
    7a40:	3c 91       	ld	r19, X
    7a42:	13 97       	sbiw	r26, 0x03	; 3
    7a44:	82 81       	ldd	r24, Z+2	; 0x02
    7a46:	93 81       	ldd	r25, Z+3	; 0x03
    7a48:	82 17       	cp	r24, r18
    7a4a:	93 07       	cpc	r25, r19
    7a4c:	94 f0       	brlt	.+36     	; 0x7a72 <__fpcmp_parts_f+0x88>
    7a4e:	28 17       	cp	r18, r24
    7a50:	39 07       	cpc	r19, r25
    7a52:	bc f0       	brlt	.+46     	; 0x7a82 <__fpcmp_parts_f+0x98>
    7a54:	14 96       	adiw	r26, 0x04	; 4
    7a56:	8d 91       	ld	r24, X+
    7a58:	9d 91       	ld	r25, X+
    7a5a:	0d 90       	ld	r0, X+
    7a5c:	bc 91       	ld	r27, X
    7a5e:	a0 2d       	mov	r26, r0
    7a60:	24 81       	ldd	r18, Z+4	; 0x04
    7a62:	35 81       	ldd	r19, Z+5	; 0x05
    7a64:	46 81       	ldd	r20, Z+6	; 0x06
    7a66:	57 81       	ldd	r21, Z+7	; 0x07
    7a68:	28 17       	cp	r18, r24
    7a6a:	39 07       	cpc	r19, r25
    7a6c:	4a 07       	cpc	r20, r26
    7a6e:	5b 07       	cpc	r21, r27
    7a70:	18 f4       	brcc	.+6      	; 0x7a78 <__fpcmp_parts_f+0x8e>
    7a72:	11 23       	and	r17, r17
    7a74:	41 f0       	breq	.+16     	; 0x7a86 <__fpcmp_parts_f+0x9c>
    7a76:	0a c0       	rjmp	.+20     	; 0x7a8c <__fpcmp_parts_f+0xa2>
    7a78:	82 17       	cp	r24, r18
    7a7a:	93 07       	cpc	r25, r19
    7a7c:	a4 07       	cpc	r26, r20
    7a7e:	b5 07       	cpc	r27, r21
    7a80:	40 f4       	brcc	.+16     	; 0x7a92 <__fpcmp_parts_f+0xa8>
    7a82:	11 23       	and	r17, r17
    7a84:	19 f0       	breq	.+6      	; 0x7a8c <__fpcmp_parts_f+0xa2>
    7a86:	61 e0       	ldi	r22, 0x01	; 1
    7a88:	70 e0       	ldi	r23, 0x00	; 0
    7a8a:	05 c0       	rjmp	.+10     	; 0x7a96 <__fpcmp_parts_f+0xac>
    7a8c:	6f ef       	ldi	r22, 0xFF	; 255
    7a8e:	7f ef       	ldi	r23, 0xFF	; 255
    7a90:	02 c0       	rjmp	.+4      	; 0x7a96 <__fpcmp_parts_f+0xac>
    7a92:	60 e0       	ldi	r22, 0x00	; 0
    7a94:	70 e0       	ldi	r23, 0x00	; 0
    7a96:	cb 01       	movw	r24, r22
    7a98:	1f 91       	pop	r17
    7a9a:	08 95       	ret

00007a9c <__udivmodhi4>:
    7a9c:	aa 1b       	sub	r26, r26
    7a9e:	bb 1b       	sub	r27, r27
    7aa0:	51 e1       	ldi	r21, 0x11	; 17
    7aa2:	07 c0       	rjmp	.+14     	; 0x7ab2 <__udivmodhi4_ep>

00007aa4 <__udivmodhi4_loop>:
    7aa4:	aa 1f       	adc	r26, r26
    7aa6:	bb 1f       	adc	r27, r27
    7aa8:	a6 17       	cp	r26, r22
    7aaa:	b7 07       	cpc	r27, r23
    7aac:	10 f0       	brcs	.+4      	; 0x7ab2 <__udivmodhi4_ep>
    7aae:	a6 1b       	sub	r26, r22
    7ab0:	b7 0b       	sbc	r27, r23

00007ab2 <__udivmodhi4_ep>:
    7ab2:	88 1f       	adc	r24, r24
    7ab4:	99 1f       	adc	r25, r25
    7ab6:	5a 95       	dec	r21
    7ab8:	a9 f7       	brne	.-22     	; 0x7aa4 <__udivmodhi4_loop>
    7aba:	80 95       	com	r24
    7abc:	90 95       	com	r25
    7abe:	bc 01       	movw	r22, r24
    7ac0:	cd 01       	movw	r24, r26
    7ac2:	08 95       	ret

00007ac4 <__prologue_saves__>:
    7ac4:	2f 92       	push	r2
    7ac6:	3f 92       	push	r3
    7ac8:	4f 92       	push	r4
    7aca:	5f 92       	push	r5
    7acc:	6f 92       	push	r6
    7ace:	7f 92       	push	r7
    7ad0:	8f 92       	push	r8
    7ad2:	9f 92       	push	r9
    7ad4:	af 92       	push	r10
    7ad6:	bf 92       	push	r11
    7ad8:	cf 92       	push	r12
    7ada:	df 92       	push	r13
    7adc:	ef 92       	push	r14
    7ade:	ff 92       	push	r15
    7ae0:	0f 93       	push	r16
    7ae2:	1f 93       	push	r17
    7ae4:	cf 93       	push	r28
    7ae6:	df 93       	push	r29
    7ae8:	cd b7       	in	r28, 0x3d	; 61
    7aea:	de b7       	in	r29, 0x3e	; 62
    7aec:	ca 1b       	sub	r28, r26
    7aee:	db 0b       	sbc	r29, r27
    7af0:	0f b6       	in	r0, 0x3f	; 63
    7af2:	f8 94       	cli
    7af4:	de bf       	out	0x3e, r29	; 62
    7af6:	0f be       	out	0x3f, r0	; 63
    7af8:	cd bf       	out	0x3d, r28	; 61
    7afa:	19 94       	eijmp

00007afc <__epilogue_restores__>:
    7afc:	2a 88       	ldd	r2, Y+18	; 0x12
    7afe:	39 88       	ldd	r3, Y+17	; 0x11
    7b00:	48 88       	ldd	r4, Y+16	; 0x10
    7b02:	5f 84       	ldd	r5, Y+15	; 0x0f
    7b04:	6e 84       	ldd	r6, Y+14	; 0x0e
    7b06:	7d 84       	ldd	r7, Y+13	; 0x0d
    7b08:	8c 84       	ldd	r8, Y+12	; 0x0c
    7b0a:	9b 84       	ldd	r9, Y+11	; 0x0b
    7b0c:	aa 84       	ldd	r10, Y+10	; 0x0a
    7b0e:	b9 84       	ldd	r11, Y+9	; 0x09
    7b10:	c8 84       	ldd	r12, Y+8	; 0x08
    7b12:	df 80       	ldd	r13, Y+7	; 0x07
    7b14:	ee 80       	ldd	r14, Y+6	; 0x06
    7b16:	fd 80       	ldd	r15, Y+5	; 0x05
    7b18:	0c 81       	ldd	r16, Y+4	; 0x04
    7b1a:	1b 81       	ldd	r17, Y+3	; 0x03
    7b1c:	aa 81       	ldd	r26, Y+2	; 0x02
    7b1e:	b9 81       	ldd	r27, Y+1	; 0x01
    7b20:	ce 0f       	add	r28, r30
    7b22:	d1 1d       	adc	r29, r1
    7b24:	0f b6       	in	r0, 0x3f	; 63
    7b26:	f8 94       	cli
    7b28:	de bf       	out	0x3e, r29	; 62
    7b2a:	0f be       	out	0x3f, r0	; 63
    7b2c:	cd bf       	out	0x3d, r28	; 61
    7b2e:	ed 01       	movw	r28, r26
    7b30:	08 95       	ret

00007b32 <strcpy>:
    7b32:	fb 01       	movw	r30, r22
    7b34:	dc 01       	movw	r26, r24
    7b36:	01 90       	ld	r0, Z+
    7b38:	0d 92       	st	X+, r0
    7b3a:	00 20       	and	r0, r0
    7b3c:	e1 f7       	brne	.-8      	; 0x7b36 <strcpy+0x4>
    7b3e:	08 95       	ret

00007b40 <printf>:
    7b40:	df 93       	push	r29
    7b42:	cf 93       	push	r28
    7b44:	cd b7       	in	r28, 0x3d	; 61
    7b46:	de b7       	in	r29, 0x3e	; 62
    7b48:	fe 01       	movw	r30, r28
    7b4a:	36 96       	adiw	r30, 0x06	; 6
    7b4c:	61 91       	ld	r22, Z+
    7b4e:	71 91       	ld	r23, Z+
    7b50:	80 91 3d 1f 	lds	r24, 0x1F3D
    7b54:	90 91 3e 1f 	lds	r25, 0x1F3E
    7b58:	af 01       	movw	r20, r30
    7b5a:	0e 94 1f 3e 	call	0x7c3e	; 0x7c3e <vfprintf>
    7b5e:	cf 91       	pop	r28
    7b60:	df 91       	pop	r29
    7b62:	08 95       	ret

00007b64 <putchar>:
    7b64:	60 91 3d 1f 	lds	r22, 0x1F3D
    7b68:	70 91 3e 1f 	lds	r23, 0x1F3E
    7b6c:	0e 94 47 40 	call	0x808e	; 0x808e <fputc>
    7b70:	08 95       	ret

00007b72 <puts>:
    7b72:	0f 93       	push	r16
    7b74:	1f 93       	push	r17
    7b76:	cf 93       	push	r28
    7b78:	df 93       	push	r29
    7b7a:	8c 01       	movw	r16, r24
    7b7c:	e0 91 3d 1f 	lds	r30, 0x1F3D
    7b80:	f0 91 3e 1f 	lds	r31, 0x1F3E
    7b84:	83 81       	ldd	r24, Z+3	; 0x03
    7b86:	81 ff       	sbrs	r24, 1
    7b88:	21 c0       	rjmp	.+66     	; 0x7bcc <puts+0x5a>
    7b8a:	c0 e0       	ldi	r28, 0x00	; 0
    7b8c:	d0 e0       	ldi	r29, 0x00	; 0
    7b8e:	0d c0       	rjmp	.+26     	; 0x7baa <puts+0x38>
    7b90:	e0 91 3d 1f 	lds	r30, 0x1F3D
    7b94:	f0 91 3e 1f 	lds	r31, 0x1F3E
    7b98:	20 85       	ldd	r18, Z+8	; 0x08
    7b9a:	31 85       	ldd	r19, Z+9	; 0x09
    7b9c:	bf 01       	movw	r22, r30
    7b9e:	f9 01       	movw	r30, r18
    7ba0:	19 95       	eicall
    7ba2:	89 2b       	or	r24, r25
    7ba4:	11 f0       	breq	.+4      	; 0x7baa <puts+0x38>
    7ba6:	cf ef       	ldi	r28, 0xFF	; 255
    7ba8:	df ef       	ldi	r29, 0xFF	; 255
    7baa:	f8 01       	movw	r30, r16
    7bac:	81 91       	ld	r24, Z+
    7bae:	8f 01       	movw	r16, r30
    7bb0:	88 23       	and	r24, r24
    7bb2:	71 f7       	brne	.-36     	; 0x7b90 <puts+0x1e>
    7bb4:	e0 91 3d 1f 	lds	r30, 0x1F3D
    7bb8:	f0 91 3e 1f 	lds	r31, 0x1F3E
    7bbc:	20 85       	ldd	r18, Z+8	; 0x08
    7bbe:	31 85       	ldd	r19, Z+9	; 0x09
    7bc0:	8a e0       	ldi	r24, 0x0A	; 10
    7bc2:	bf 01       	movw	r22, r30
    7bc4:	f9 01       	movw	r30, r18
    7bc6:	19 95       	eicall
    7bc8:	89 2b       	or	r24, r25
    7bca:	11 f0       	breq	.+4      	; 0x7bd0 <puts+0x5e>
    7bcc:	cf ef       	ldi	r28, 0xFF	; 255
    7bce:	df ef       	ldi	r29, 0xFF	; 255
    7bd0:	ce 01       	movw	r24, r28
    7bd2:	df 91       	pop	r29
    7bd4:	cf 91       	pop	r28
    7bd6:	1f 91       	pop	r17
    7bd8:	0f 91       	pop	r16
    7bda:	08 95       	ret

00007bdc <sprintf>:
    7bdc:	0f 93       	push	r16
    7bde:	1f 93       	push	r17
    7be0:	df 93       	push	r29
    7be2:	cf 93       	push	r28
    7be4:	cd b7       	in	r28, 0x3d	; 61
    7be6:	de b7       	in	r29, 0x3e	; 62
    7be8:	2e 97       	sbiw	r28, 0x0e	; 14
    7bea:	0f b6       	in	r0, 0x3f	; 63
    7bec:	f8 94       	cli
    7bee:	de bf       	out	0x3e, r29	; 62
    7bf0:	0f be       	out	0x3f, r0	; 63
    7bf2:	cd bf       	out	0x3d, r28	; 61
    7bf4:	0e 89       	ldd	r16, Y+22	; 0x16
    7bf6:	1f 89       	ldd	r17, Y+23	; 0x17
    7bf8:	86 e0       	ldi	r24, 0x06	; 6
    7bfa:	8c 83       	std	Y+4, r24	; 0x04
    7bfc:	1a 83       	std	Y+2, r17	; 0x02
    7bfe:	09 83       	std	Y+1, r16	; 0x01
    7c00:	8f ef       	ldi	r24, 0xFF	; 255
    7c02:	9f e7       	ldi	r25, 0x7F	; 127
    7c04:	9e 83       	std	Y+6, r25	; 0x06
    7c06:	8d 83       	std	Y+5, r24	; 0x05
    7c08:	9e 01       	movw	r18, r28
    7c0a:	26 5e       	subi	r18, 0xE6	; 230
    7c0c:	3f 4f       	sbci	r19, 0xFF	; 255
    7c0e:	ce 01       	movw	r24, r28
    7c10:	01 96       	adiw	r24, 0x01	; 1
    7c12:	68 8d       	ldd	r22, Y+24	; 0x18
    7c14:	79 8d       	ldd	r23, Y+25	; 0x19
    7c16:	a9 01       	movw	r20, r18
    7c18:	0e 94 1f 3e 	call	0x7c3e	; 0x7c3e <vfprintf>
    7c1c:	2f 81       	ldd	r18, Y+7	; 0x07
    7c1e:	38 85       	ldd	r19, Y+8	; 0x08
    7c20:	02 0f       	add	r16, r18
    7c22:	13 1f       	adc	r17, r19
    7c24:	f8 01       	movw	r30, r16
    7c26:	10 82       	st	Z, r1
    7c28:	2e 96       	adiw	r28, 0x0e	; 14
    7c2a:	0f b6       	in	r0, 0x3f	; 63
    7c2c:	f8 94       	cli
    7c2e:	de bf       	out	0x3e, r29	; 62
    7c30:	0f be       	out	0x3f, r0	; 63
    7c32:	cd bf       	out	0x3d, r28	; 61
    7c34:	cf 91       	pop	r28
    7c36:	df 91       	pop	r29
    7c38:	1f 91       	pop	r17
    7c3a:	0f 91       	pop	r16
    7c3c:	08 95       	ret

00007c3e <vfprintf>:
    7c3e:	2f 92       	push	r2
    7c40:	3f 92       	push	r3
    7c42:	4f 92       	push	r4
    7c44:	5f 92       	push	r5
    7c46:	6f 92       	push	r6
    7c48:	7f 92       	push	r7
    7c4a:	8f 92       	push	r8
    7c4c:	9f 92       	push	r9
    7c4e:	af 92       	push	r10
    7c50:	bf 92       	push	r11
    7c52:	cf 92       	push	r12
    7c54:	df 92       	push	r13
    7c56:	ef 92       	push	r14
    7c58:	ff 92       	push	r15
    7c5a:	0f 93       	push	r16
    7c5c:	1f 93       	push	r17
    7c5e:	df 93       	push	r29
    7c60:	cf 93       	push	r28
    7c62:	cd b7       	in	r28, 0x3d	; 61
    7c64:	de b7       	in	r29, 0x3e	; 62
    7c66:	2b 97       	sbiw	r28, 0x0b	; 11
    7c68:	0f b6       	in	r0, 0x3f	; 63
    7c6a:	f8 94       	cli
    7c6c:	de bf       	out	0x3e, r29	; 62
    7c6e:	0f be       	out	0x3f, r0	; 63
    7c70:	cd bf       	out	0x3d, r28	; 61
    7c72:	3c 01       	movw	r6, r24
    7c74:	2b 01       	movw	r4, r22
    7c76:	5a 01       	movw	r10, r20
    7c78:	fc 01       	movw	r30, r24
    7c7a:	17 82       	std	Z+7, r1	; 0x07
    7c7c:	16 82       	std	Z+6, r1	; 0x06
    7c7e:	83 81       	ldd	r24, Z+3	; 0x03
    7c80:	81 fd       	sbrc	r24, 1
    7c82:	03 c0       	rjmp	.+6      	; 0x7c8a <vfprintf+0x4c>
    7c84:	6f ef       	ldi	r22, 0xFF	; 255
    7c86:	7f ef       	ldi	r23, 0xFF	; 255
    7c88:	c6 c1       	rjmp	.+908    	; 0x8016 <vfprintf+0x3d8>
    7c8a:	9a e0       	ldi	r25, 0x0A	; 10
    7c8c:	89 2e       	mov	r8, r25
    7c8e:	1e 01       	movw	r2, r28
    7c90:	08 94       	sec
    7c92:	21 1c       	adc	r2, r1
    7c94:	31 1c       	adc	r3, r1
    7c96:	f3 01       	movw	r30, r6
    7c98:	23 81       	ldd	r18, Z+3	; 0x03
    7c9a:	f2 01       	movw	r30, r4
    7c9c:	23 fd       	sbrc	r18, 3
    7c9e:	85 91       	lpm	r24, Z+
    7ca0:	23 ff       	sbrs	r18, 3
    7ca2:	81 91       	ld	r24, Z+
    7ca4:	2f 01       	movw	r4, r30
    7ca6:	88 23       	and	r24, r24
    7ca8:	09 f4       	brne	.+2      	; 0x7cac <vfprintf+0x6e>
    7caa:	b2 c1       	rjmp	.+868    	; 0x8010 <vfprintf+0x3d2>
    7cac:	85 32       	cpi	r24, 0x25	; 37
    7cae:	39 f4       	brne	.+14     	; 0x7cbe <vfprintf+0x80>
    7cb0:	23 fd       	sbrc	r18, 3
    7cb2:	85 91       	lpm	r24, Z+
    7cb4:	23 ff       	sbrs	r18, 3
    7cb6:	81 91       	ld	r24, Z+
    7cb8:	2f 01       	movw	r4, r30
    7cba:	85 32       	cpi	r24, 0x25	; 37
    7cbc:	29 f4       	brne	.+10     	; 0x7cc8 <vfprintf+0x8a>
    7cbe:	90 e0       	ldi	r25, 0x00	; 0
    7cc0:	b3 01       	movw	r22, r6
    7cc2:	0e 94 47 40 	call	0x808e	; 0x808e <fputc>
    7cc6:	e7 cf       	rjmp	.-50     	; 0x7c96 <vfprintf+0x58>
    7cc8:	98 2f       	mov	r25, r24
    7cca:	ff 24       	eor	r15, r15
    7ccc:	ee 24       	eor	r14, r14
    7cce:	99 24       	eor	r9, r9
    7cd0:	ff e1       	ldi	r31, 0x1F	; 31
    7cd2:	ff 15       	cp	r31, r15
    7cd4:	d0 f0       	brcs	.+52     	; 0x7d0a <vfprintf+0xcc>
    7cd6:	9b 32       	cpi	r25, 0x2B	; 43
    7cd8:	69 f0       	breq	.+26     	; 0x7cf4 <vfprintf+0xb6>
    7cda:	9c 32       	cpi	r25, 0x2C	; 44
    7cdc:	28 f4       	brcc	.+10     	; 0x7ce8 <vfprintf+0xaa>
    7cde:	90 32       	cpi	r25, 0x20	; 32
    7ce0:	59 f0       	breq	.+22     	; 0x7cf8 <vfprintf+0xba>
    7ce2:	93 32       	cpi	r25, 0x23	; 35
    7ce4:	91 f4       	brne	.+36     	; 0x7d0a <vfprintf+0xcc>
    7ce6:	0e c0       	rjmp	.+28     	; 0x7d04 <vfprintf+0xc6>
    7ce8:	9d 32       	cpi	r25, 0x2D	; 45
    7cea:	49 f0       	breq	.+18     	; 0x7cfe <vfprintf+0xc0>
    7cec:	90 33       	cpi	r25, 0x30	; 48
    7cee:	69 f4       	brne	.+26     	; 0x7d0a <vfprintf+0xcc>
    7cf0:	41 e0       	ldi	r20, 0x01	; 1
    7cf2:	24 c0       	rjmp	.+72     	; 0x7d3c <vfprintf+0xfe>
    7cf4:	52 e0       	ldi	r21, 0x02	; 2
    7cf6:	f5 2a       	or	r15, r21
    7cf8:	84 e0       	ldi	r24, 0x04	; 4
    7cfa:	f8 2a       	or	r15, r24
    7cfc:	28 c0       	rjmp	.+80     	; 0x7d4e <vfprintf+0x110>
    7cfe:	98 e0       	ldi	r25, 0x08	; 8
    7d00:	f9 2a       	or	r15, r25
    7d02:	25 c0       	rjmp	.+74     	; 0x7d4e <vfprintf+0x110>
    7d04:	e0 e1       	ldi	r30, 0x10	; 16
    7d06:	fe 2a       	or	r15, r30
    7d08:	22 c0       	rjmp	.+68     	; 0x7d4e <vfprintf+0x110>
    7d0a:	f7 fc       	sbrc	r15, 7
    7d0c:	29 c0       	rjmp	.+82     	; 0x7d60 <vfprintf+0x122>
    7d0e:	89 2f       	mov	r24, r25
    7d10:	80 53       	subi	r24, 0x30	; 48
    7d12:	8a 30       	cpi	r24, 0x0A	; 10
    7d14:	70 f4       	brcc	.+28     	; 0x7d32 <vfprintf+0xf4>
    7d16:	f6 fe       	sbrs	r15, 6
    7d18:	05 c0       	rjmp	.+10     	; 0x7d24 <vfprintf+0xe6>
    7d1a:	98 9c       	mul	r9, r8
    7d1c:	90 2c       	mov	r9, r0
    7d1e:	11 24       	eor	r1, r1
    7d20:	98 0e       	add	r9, r24
    7d22:	15 c0       	rjmp	.+42     	; 0x7d4e <vfprintf+0x110>
    7d24:	e8 9c       	mul	r14, r8
    7d26:	e0 2c       	mov	r14, r0
    7d28:	11 24       	eor	r1, r1
    7d2a:	e8 0e       	add	r14, r24
    7d2c:	f0 e2       	ldi	r31, 0x20	; 32
    7d2e:	ff 2a       	or	r15, r31
    7d30:	0e c0       	rjmp	.+28     	; 0x7d4e <vfprintf+0x110>
    7d32:	9e 32       	cpi	r25, 0x2E	; 46
    7d34:	29 f4       	brne	.+10     	; 0x7d40 <vfprintf+0x102>
    7d36:	f6 fc       	sbrc	r15, 6
    7d38:	6b c1       	rjmp	.+726    	; 0x8010 <vfprintf+0x3d2>
    7d3a:	40 e4       	ldi	r20, 0x40	; 64
    7d3c:	f4 2a       	or	r15, r20
    7d3e:	07 c0       	rjmp	.+14     	; 0x7d4e <vfprintf+0x110>
    7d40:	9c 36       	cpi	r25, 0x6C	; 108
    7d42:	19 f4       	brne	.+6      	; 0x7d4a <vfprintf+0x10c>
    7d44:	50 e8       	ldi	r21, 0x80	; 128
    7d46:	f5 2a       	or	r15, r21
    7d48:	02 c0       	rjmp	.+4      	; 0x7d4e <vfprintf+0x110>
    7d4a:	98 36       	cpi	r25, 0x68	; 104
    7d4c:	49 f4       	brne	.+18     	; 0x7d60 <vfprintf+0x122>
    7d4e:	f2 01       	movw	r30, r4
    7d50:	23 fd       	sbrc	r18, 3
    7d52:	95 91       	lpm	r25, Z+
    7d54:	23 ff       	sbrs	r18, 3
    7d56:	91 91       	ld	r25, Z+
    7d58:	2f 01       	movw	r4, r30
    7d5a:	99 23       	and	r25, r25
    7d5c:	09 f0       	breq	.+2      	; 0x7d60 <vfprintf+0x122>
    7d5e:	b8 cf       	rjmp	.-144    	; 0x7cd0 <vfprintf+0x92>
    7d60:	89 2f       	mov	r24, r25
    7d62:	85 54       	subi	r24, 0x45	; 69
    7d64:	83 30       	cpi	r24, 0x03	; 3
    7d66:	18 f0       	brcs	.+6      	; 0x7d6e <vfprintf+0x130>
    7d68:	80 52       	subi	r24, 0x20	; 32
    7d6a:	83 30       	cpi	r24, 0x03	; 3
    7d6c:	38 f4       	brcc	.+14     	; 0x7d7c <vfprintf+0x13e>
    7d6e:	44 e0       	ldi	r20, 0x04	; 4
    7d70:	50 e0       	ldi	r21, 0x00	; 0
    7d72:	a4 0e       	add	r10, r20
    7d74:	b5 1e       	adc	r11, r21
    7d76:	5f e3       	ldi	r21, 0x3F	; 63
    7d78:	59 83       	std	Y+1, r21	; 0x01
    7d7a:	0f c0       	rjmp	.+30     	; 0x7d9a <vfprintf+0x15c>
    7d7c:	93 36       	cpi	r25, 0x63	; 99
    7d7e:	31 f0       	breq	.+12     	; 0x7d8c <vfprintf+0x14e>
    7d80:	93 37       	cpi	r25, 0x73	; 115
    7d82:	79 f0       	breq	.+30     	; 0x7da2 <vfprintf+0x164>
    7d84:	93 35       	cpi	r25, 0x53	; 83
    7d86:	09 f0       	breq	.+2      	; 0x7d8a <vfprintf+0x14c>
    7d88:	56 c0       	rjmp	.+172    	; 0x7e36 <vfprintf+0x1f8>
    7d8a:	20 c0       	rjmp	.+64     	; 0x7dcc <vfprintf+0x18e>
    7d8c:	f5 01       	movw	r30, r10
    7d8e:	80 81       	ld	r24, Z
    7d90:	89 83       	std	Y+1, r24	; 0x01
    7d92:	42 e0       	ldi	r20, 0x02	; 2
    7d94:	50 e0       	ldi	r21, 0x00	; 0
    7d96:	a4 0e       	add	r10, r20
    7d98:	b5 1e       	adc	r11, r21
    7d9a:	61 01       	movw	r12, r2
    7d9c:	01 e0       	ldi	r16, 0x01	; 1
    7d9e:	10 e0       	ldi	r17, 0x00	; 0
    7da0:	12 c0       	rjmp	.+36     	; 0x7dc6 <vfprintf+0x188>
    7da2:	f5 01       	movw	r30, r10
    7da4:	c0 80       	ld	r12, Z
    7da6:	d1 80       	ldd	r13, Z+1	; 0x01
    7da8:	f6 fc       	sbrc	r15, 6
    7daa:	03 c0       	rjmp	.+6      	; 0x7db2 <vfprintf+0x174>
    7dac:	6f ef       	ldi	r22, 0xFF	; 255
    7dae:	7f ef       	ldi	r23, 0xFF	; 255
    7db0:	02 c0       	rjmp	.+4      	; 0x7db6 <vfprintf+0x178>
    7db2:	69 2d       	mov	r22, r9
    7db4:	70 e0       	ldi	r23, 0x00	; 0
    7db6:	42 e0       	ldi	r20, 0x02	; 2
    7db8:	50 e0       	ldi	r21, 0x00	; 0
    7dba:	a4 0e       	add	r10, r20
    7dbc:	b5 1e       	adc	r11, r21
    7dbe:	c6 01       	movw	r24, r12
    7dc0:	0e 94 3c 40 	call	0x8078	; 0x8078 <strnlen>
    7dc4:	8c 01       	movw	r16, r24
    7dc6:	5f e7       	ldi	r21, 0x7F	; 127
    7dc8:	f5 22       	and	r15, r21
    7dca:	14 c0       	rjmp	.+40     	; 0x7df4 <vfprintf+0x1b6>
    7dcc:	f5 01       	movw	r30, r10
    7dce:	c0 80       	ld	r12, Z
    7dd0:	d1 80       	ldd	r13, Z+1	; 0x01
    7dd2:	f6 fc       	sbrc	r15, 6
    7dd4:	03 c0       	rjmp	.+6      	; 0x7ddc <vfprintf+0x19e>
    7dd6:	6f ef       	ldi	r22, 0xFF	; 255
    7dd8:	7f ef       	ldi	r23, 0xFF	; 255
    7dda:	02 c0       	rjmp	.+4      	; 0x7de0 <vfprintf+0x1a2>
    7ddc:	69 2d       	mov	r22, r9
    7dde:	70 e0       	ldi	r23, 0x00	; 0
    7de0:	42 e0       	ldi	r20, 0x02	; 2
    7de2:	50 e0       	ldi	r21, 0x00	; 0
    7de4:	a4 0e       	add	r10, r20
    7de6:	b5 1e       	adc	r11, r21
    7de8:	c6 01       	movw	r24, r12
    7dea:	0e 94 31 40 	call	0x8062	; 0x8062 <strnlen_P>
    7dee:	8c 01       	movw	r16, r24
    7df0:	50 e8       	ldi	r21, 0x80	; 128
    7df2:	f5 2a       	or	r15, r21
    7df4:	f3 fe       	sbrs	r15, 3
    7df6:	07 c0       	rjmp	.+14     	; 0x7e06 <vfprintf+0x1c8>
    7df8:	1a c0       	rjmp	.+52     	; 0x7e2e <vfprintf+0x1f0>
    7dfa:	80 e2       	ldi	r24, 0x20	; 32
    7dfc:	90 e0       	ldi	r25, 0x00	; 0
    7dfe:	b3 01       	movw	r22, r6
    7e00:	0e 94 47 40 	call	0x808e	; 0x808e <fputc>
    7e04:	ea 94       	dec	r14
    7e06:	8e 2d       	mov	r24, r14
    7e08:	90 e0       	ldi	r25, 0x00	; 0
    7e0a:	08 17       	cp	r16, r24
    7e0c:	19 07       	cpc	r17, r25
    7e0e:	a8 f3       	brcs	.-22     	; 0x7dfa <vfprintf+0x1bc>
    7e10:	0e c0       	rjmp	.+28     	; 0x7e2e <vfprintf+0x1f0>
    7e12:	f6 01       	movw	r30, r12
    7e14:	f7 fc       	sbrc	r15, 7
    7e16:	85 91       	lpm	r24, Z+
    7e18:	f7 fe       	sbrs	r15, 7
    7e1a:	81 91       	ld	r24, Z+
    7e1c:	6f 01       	movw	r12, r30
    7e1e:	90 e0       	ldi	r25, 0x00	; 0
    7e20:	b3 01       	movw	r22, r6
    7e22:	0e 94 47 40 	call	0x808e	; 0x808e <fputc>
    7e26:	e1 10       	cpse	r14, r1
    7e28:	ea 94       	dec	r14
    7e2a:	01 50       	subi	r16, 0x01	; 1
    7e2c:	10 40       	sbci	r17, 0x00	; 0
    7e2e:	01 15       	cp	r16, r1
    7e30:	11 05       	cpc	r17, r1
    7e32:	79 f7       	brne	.-34     	; 0x7e12 <vfprintf+0x1d4>
    7e34:	ea c0       	rjmp	.+468    	; 0x800a <vfprintf+0x3cc>
    7e36:	94 36       	cpi	r25, 0x64	; 100
    7e38:	11 f0       	breq	.+4      	; 0x7e3e <vfprintf+0x200>
    7e3a:	99 36       	cpi	r25, 0x69	; 105
    7e3c:	69 f5       	brne	.+90     	; 0x7e98 <vfprintf+0x25a>
    7e3e:	f7 fe       	sbrs	r15, 7
    7e40:	08 c0       	rjmp	.+16     	; 0x7e52 <vfprintf+0x214>
    7e42:	f5 01       	movw	r30, r10
    7e44:	20 81       	ld	r18, Z
    7e46:	31 81       	ldd	r19, Z+1	; 0x01
    7e48:	42 81       	ldd	r20, Z+2	; 0x02
    7e4a:	53 81       	ldd	r21, Z+3	; 0x03
    7e4c:	84 e0       	ldi	r24, 0x04	; 4
    7e4e:	90 e0       	ldi	r25, 0x00	; 0
    7e50:	0a c0       	rjmp	.+20     	; 0x7e66 <vfprintf+0x228>
    7e52:	f5 01       	movw	r30, r10
    7e54:	80 81       	ld	r24, Z
    7e56:	91 81       	ldd	r25, Z+1	; 0x01
    7e58:	9c 01       	movw	r18, r24
    7e5a:	44 27       	eor	r20, r20
    7e5c:	37 fd       	sbrc	r19, 7
    7e5e:	40 95       	com	r20
    7e60:	54 2f       	mov	r21, r20
    7e62:	82 e0       	ldi	r24, 0x02	; 2
    7e64:	90 e0       	ldi	r25, 0x00	; 0
    7e66:	a8 0e       	add	r10, r24
    7e68:	b9 1e       	adc	r11, r25
    7e6a:	9f e6       	ldi	r25, 0x6F	; 111
    7e6c:	f9 22       	and	r15, r25
    7e6e:	57 ff       	sbrs	r21, 7
    7e70:	09 c0       	rjmp	.+18     	; 0x7e84 <vfprintf+0x246>
    7e72:	50 95       	com	r21
    7e74:	40 95       	com	r20
    7e76:	30 95       	com	r19
    7e78:	21 95       	neg	r18
    7e7a:	3f 4f       	sbci	r19, 0xFF	; 255
    7e7c:	4f 4f       	sbci	r20, 0xFF	; 255
    7e7e:	5f 4f       	sbci	r21, 0xFF	; 255
    7e80:	e0 e8       	ldi	r30, 0x80	; 128
    7e82:	fe 2a       	or	r15, r30
    7e84:	ca 01       	movw	r24, r20
    7e86:	b9 01       	movw	r22, r18
    7e88:	a1 01       	movw	r20, r2
    7e8a:	2a e0       	ldi	r18, 0x0A	; 10
    7e8c:	30 e0       	ldi	r19, 0x00	; 0
    7e8e:	0e 94 73 40 	call	0x80e6	; 0x80e6 <__ultoa_invert>
    7e92:	d8 2e       	mov	r13, r24
    7e94:	d2 18       	sub	r13, r2
    7e96:	40 c0       	rjmp	.+128    	; 0x7f18 <vfprintf+0x2da>
    7e98:	95 37       	cpi	r25, 0x75	; 117
    7e9a:	29 f4       	brne	.+10     	; 0x7ea6 <vfprintf+0x268>
    7e9c:	1f 2d       	mov	r17, r15
    7e9e:	1f 7e       	andi	r17, 0xEF	; 239
    7ea0:	2a e0       	ldi	r18, 0x0A	; 10
    7ea2:	30 e0       	ldi	r19, 0x00	; 0
    7ea4:	1d c0       	rjmp	.+58     	; 0x7ee0 <vfprintf+0x2a2>
    7ea6:	1f 2d       	mov	r17, r15
    7ea8:	19 7f       	andi	r17, 0xF9	; 249
    7eaa:	9f 36       	cpi	r25, 0x6F	; 111
    7eac:	61 f0       	breq	.+24     	; 0x7ec6 <vfprintf+0x288>
    7eae:	90 37       	cpi	r25, 0x70	; 112
    7eb0:	20 f4       	brcc	.+8      	; 0x7eba <vfprintf+0x27c>
    7eb2:	98 35       	cpi	r25, 0x58	; 88
    7eb4:	09 f0       	breq	.+2      	; 0x7eb8 <vfprintf+0x27a>
    7eb6:	ac c0       	rjmp	.+344    	; 0x8010 <vfprintf+0x3d2>
    7eb8:	0f c0       	rjmp	.+30     	; 0x7ed8 <vfprintf+0x29a>
    7eba:	90 37       	cpi	r25, 0x70	; 112
    7ebc:	39 f0       	breq	.+14     	; 0x7ecc <vfprintf+0x28e>
    7ebe:	98 37       	cpi	r25, 0x78	; 120
    7ec0:	09 f0       	breq	.+2      	; 0x7ec4 <vfprintf+0x286>
    7ec2:	a6 c0       	rjmp	.+332    	; 0x8010 <vfprintf+0x3d2>
    7ec4:	04 c0       	rjmp	.+8      	; 0x7ece <vfprintf+0x290>
    7ec6:	28 e0       	ldi	r18, 0x08	; 8
    7ec8:	30 e0       	ldi	r19, 0x00	; 0
    7eca:	0a c0       	rjmp	.+20     	; 0x7ee0 <vfprintf+0x2a2>
    7ecc:	10 61       	ori	r17, 0x10	; 16
    7ece:	14 fd       	sbrc	r17, 4
    7ed0:	14 60       	ori	r17, 0x04	; 4
    7ed2:	20 e1       	ldi	r18, 0x10	; 16
    7ed4:	30 e0       	ldi	r19, 0x00	; 0
    7ed6:	04 c0       	rjmp	.+8      	; 0x7ee0 <vfprintf+0x2a2>
    7ed8:	14 fd       	sbrc	r17, 4
    7eda:	16 60       	ori	r17, 0x06	; 6
    7edc:	20 e1       	ldi	r18, 0x10	; 16
    7ede:	32 e0       	ldi	r19, 0x02	; 2
    7ee0:	17 ff       	sbrs	r17, 7
    7ee2:	08 c0       	rjmp	.+16     	; 0x7ef4 <vfprintf+0x2b6>
    7ee4:	f5 01       	movw	r30, r10
    7ee6:	60 81       	ld	r22, Z
    7ee8:	71 81       	ldd	r23, Z+1	; 0x01
    7eea:	82 81       	ldd	r24, Z+2	; 0x02
    7eec:	93 81       	ldd	r25, Z+3	; 0x03
    7eee:	44 e0       	ldi	r20, 0x04	; 4
    7ef0:	50 e0       	ldi	r21, 0x00	; 0
    7ef2:	08 c0       	rjmp	.+16     	; 0x7f04 <vfprintf+0x2c6>
    7ef4:	f5 01       	movw	r30, r10
    7ef6:	80 81       	ld	r24, Z
    7ef8:	91 81       	ldd	r25, Z+1	; 0x01
    7efa:	bc 01       	movw	r22, r24
    7efc:	80 e0       	ldi	r24, 0x00	; 0
    7efe:	90 e0       	ldi	r25, 0x00	; 0
    7f00:	42 e0       	ldi	r20, 0x02	; 2
    7f02:	50 e0       	ldi	r21, 0x00	; 0
    7f04:	a4 0e       	add	r10, r20
    7f06:	b5 1e       	adc	r11, r21
    7f08:	a1 01       	movw	r20, r2
    7f0a:	0e 94 73 40 	call	0x80e6	; 0x80e6 <__ultoa_invert>
    7f0e:	d8 2e       	mov	r13, r24
    7f10:	d2 18       	sub	r13, r2
    7f12:	8f e7       	ldi	r24, 0x7F	; 127
    7f14:	f8 2e       	mov	r15, r24
    7f16:	f1 22       	and	r15, r17
    7f18:	f6 fe       	sbrs	r15, 6
    7f1a:	0b c0       	rjmp	.+22     	; 0x7f32 <vfprintf+0x2f4>
    7f1c:	5e ef       	ldi	r21, 0xFE	; 254
    7f1e:	f5 22       	and	r15, r21
    7f20:	d9 14       	cp	r13, r9
    7f22:	38 f4       	brcc	.+14     	; 0x7f32 <vfprintf+0x2f4>
    7f24:	f4 fe       	sbrs	r15, 4
    7f26:	07 c0       	rjmp	.+14     	; 0x7f36 <vfprintf+0x2f8>
    7f28:	f2 fc       	sbrc	r15, 2
    7f2a:	05 c0       	rjmp	.+10     	; 0x7f36 <vfprintf+0x2f8>
    7f2c:	8f ee       	ldi	r24, 0xEF	; 239
    7f2e:	f8 22       	and	r15, r24
    7f30:	02 c0       	rjmp	.+4      	; 0x7f36 <vfprintf+0x2f8>
    7f32:	1d 2d       	mov	r17, r13
    7f34:	01 c0       	rjmp	.+2      	; 0x7f38 <vfprintf+0x2fa>
    7f36:	19 2d       	mov	r17, r9
    7f38:	f4 fe       	sbrs	r15, 4
    7f3a:	0d c0       	rjmp	.+26     	; 0x7f56 <vfprintf+0x318>
    7f3c:	fe 01       	movw	r30, r28
    7f3e:	ed 0d       	add	r30, r13
    7f40:	f1 1d       	adc	r31, r1
    7f42:	80 81       	ld	r24, Z
    7f44:	80 33       	cpi	r24, 0x30	; 48
    7f46:	19 f4       	brne	.+6      	; 0x7f4e <vfprintf+0x310>
    7f48:	99 ee       	ldi	r25, 0xE9	; 233
    7f4a:	f9 22       	and	r15, r25
    7f4c:	08 c0       	rjmp	.+16     	; 0x7f5e <vfprintf+0x320>
    7f4e:	1f 5f       	subi	r17, 0xFF	; 255
    7f50:	f2 fe       	sbrs	r15, 2
    7f52:	05 c0       	rjmp	.+10     	; 0x7f5e <vfprintf+0x320>
    7f54:	03 c0       	rjmp	.+6      	; 0x7f5c <vfprintf+0x31e>
    7f56:	8f 2d       	mov	r24, r15
    7f58:	86 78       	andi	r24, 0x86	; 134
    7f5a:	09 f0       	breq	.+2      	; 0x7f5e <vfprintf+0x320>
    7f5c:	1f 5f       	subi	r17, 0xFF	; 255
    7f5e:	0f 2d       	mov	r16, r15
    7f60:	f3 fc       	sbrc	r15, 3
    7f62:	14 c0       	rjmp	.+40     	; 0x7f8c <vfprintf+0x34e>
    7f64:	f0 fe       	sbrs	r15, 0
    7f66:	0f c0       	rjmp	.+30     	; 0x7f86 <vfprintf+0x348>
    7f68:	1e 15       	cp	r17, r14
    7f6a:	10 f0       	brcs	.+4      	; 0x7f70 <vfprintf+0x332>
    7f6c:	9d 2c       	mov	r9, r13
    7f6e:	0b c0       	rjmp	.+22     	; 0x7f86 <vfprintf+0x348>
    7f70:	9d 2c       	mov	r9, r13
    7f72:	9e 0c       	add	r9, r14
    7f74:	91 1a       	sub	r9, r17
    7f76:	1e 2d       	mov	r17, r14
    7f78:	06 c0       	rjmp	.+12     	; 0x7f86 <vfprintf+0x348>
    7f7a:	80 e2       	ldi	r24, 0x20	; 32
    7f7c:	90 e0       	ldi	r25, 0x00	; 0
    7f7e:	b3 01       	movw	r22, r6
    7f80:	0e 94 47 40 	call	0x808e	; 0x808e <fputc>
    7f84:	1f 5f       	subi	r17, 0xFF	; 255
    7f86:	1e 15       	cp	r17, r14
    7f88:	c0 f3       	brcs	.-16     	; 0x7f7a <vfprintf+0x33c>
    7f8a:	04 c0       	rjmp	.+8      	; 0x7f94 <vfprintf+0x356>
    7f8c:	1e 15       	cp	r17, r14
    7f8e:	10 f4       	brcc	.+4      	; 0x7f94 <vfprintf+0x356>
    7f90:	e1 1a       	sub	r14, r17
    7f92:	01 c0       	rjmp	.+2      	; 0x7f96 <vfprintf+0x358>
    7f94:	ee 24       	eor	r14, r14
    7f96:	04 ff       	sbrs	r16, 4
    7f98:	0f c0       	rjmp	.+30     	; 0x7fb8 <vfprintf+0x37a>
    7f9a:	80 e3       	ldi	r24, 0x30	; 48
    7f9c:	90 e0       	ldi	r25, 0x00	; 0
    7f9e:	b3 01       	movw	r22, r6
    7fa0:	0e 94 47 40 	call	0x808e	; 0x808e <fputc>
    7fa4:	02 ff       	sbrs	r16, 2
    7fa6:	1d c0       	rjmp	.+58     	; 0x7fe2 <vfprintf+0x3a4>
    7fa8:	01 fd       	sbrc	r16, 1
    7faa:	03 c0       	rjmp	.+6      	; 0x7fb2 <vfprintf+0x374>
    7fac:	88 e7       	ldi	r24, 0x78	; 120
    7fae:	90 e0       	ldi	r25, 0x00	; 0
    7fb0:	0e c0       	rjmp	.+28     	; 0x7fce <vfprintf+0x390>
    7fb2:	88 e5       	ldi	r24, 0x58	; 88
    7fb4:	90 e0       	ldi	r25, 0x00	; 0
    7fb6:	0b c0       	rjmp	.+22     	; 0x7fce <vfprintf+0x390>
    7fb8:	80 2f       	mov	r24, r16
    7fba:	86 78       	andi	r24, 0x86	; 134
    7fbc:	91 f0       	breq	.+36     	; 0x7fe2 <vfprintf+0x3a4>
    7fbe:	01 ff       	sbrs	r16, 1
    7fc0:	02 c0       	rjmp	.+4      	; 0x7fc6 <vfprintf+0x388>
    7fc2:	8b e2       	ldi	r24, 0x2B	; 43
    7fc4:	01 c0       	rjmp	.+2      	; 0x7fc8 <vfprintf+0x38a>
    7fc6:	80 e2       	ldi	r24, 0x20	; 32
    7fc8:	f7 fc       	sbrc	r15, 7
    7fca:	8d e2       	ldi	r24, 0x2D	; 45
    7fcc:	90 e0       	ldi	r25, 0x00	; 0
    7fce:	b3 01       	movw	r22, r6
    7fd0:	0e 94 47 40 	call	0x808e	; 0x808e <fputc>
    7fd4:	06 c0       	rjmp	.+12     	; 0x7fe2 <vfprintf+0x3a4>
    7fd6:	80 e3       	ldi	r24, 0x30	; 48
    7fd8:	90 e0       	ldi	r25, 0x00	; 0
    7fda:	b3 01       	movw	r22, r6
    7fdc:	0e 94 47 40 	call	0x808e	; 0x808e <fputc>
    7fe0:	9a 94       	dec	r9
    7fe2:	d9 14       	cp	r13, r9
    7fe4:	c0 f3       	brcs	.-16     	; 0x7fd6 <vfprintf+0x398>
    7fe6:	da 94       	dec	r13
    7fe8:	f1 01       	movw	r30, r2
    7fea:	ed 0d       	add	r30, r13
    7fec:	f1 1d       	adc	r31, r1
    7fee:	80 81       	ld	r24, Z
    7ff0:	90 e0       	ldi	r25, 0x00	; 0
    7ff2:	b3 01       	movw	r22, r6
    7ff4:	0e 94 47 40 	call	0x808e	; 0x808e <fputc>
    7ff8:	dd 20       	and	r13, r13
    7ffa:	a9 f7       	brne	.-22     	; 0x7fe6 <vfprintf+0x3a8>
    7ffc:	06 c0       	rjmp	.+12     	; 0x800a <vfprintf+0x3cc>
    7ffe:	80 e2       	ldi	r24, 0x20	; 32
    8000:	90 e0       	ldi	r25, 0x00	; 0
    8002:	b3 01       	movw	r22, r6
    8004:	0e 94 47 40 	call	0x808e	; 0x808e <fputc>
    8008:	ea 94       	dec	r14
    800a:	ee 20       	and	r14, r14
    800c:	c1 f7       	brne	.-16     	; 0x7ffe <vfprintf+0x3c0>
    800e:	43 ce       	rjmp	.-890    	; 0x7c96 <vfprintf+0x58>
    8010:	f3 01       	movw	r30, r6
    8012:	66 81       	ldd	r22, Z+6	; 0x06
    8014:	77 81       	ldd	r23, Z+7	; 0x07
    8016:	cb 01       	movw	r24, r22
    8018:	2b 96       	adiw	r28, 0x0b	; 11
    801a:	0f b6       	in	r0, 0x3f	; 63
    801c:	f8 94       	cli
    801e:	de bf       	out	0x3e, r29	; 62
    8020:	0f be       	out	0x3f, r0	; 63
    8022:	cd bf       	out	0x3d, r28	; 61
    8024:	cf 91       	pop	r28
    8026:	df 91       	pop	r29
    8028:	1f 91       	pop	r17
    802a:	0f 91       	pop	r16
    802c:	ff 90       	pop	r15
    802e:	ef 90       	pop	r14
    8030:	df 90       	pop	r13
    8032:	cf 90       	pop	r12
    8034:	bf 90       	pop	r11
    8036:	af 90       	pop	r10
    8038:	9f 90       	pop	r9
    803a:	8f 90       	pop	r8
    803c:	7f 90       	pop	r7
    803e:	6f 90       	pop	r6
    8040:	5f 90       	pop	r5
    8042:	4f 90       	pop	r4
    8044:	3f 90       	pop	r3
    8046:	2f 90       	pop	r2
    8048:	08 95       	ret

0000804a <__eerd_word_m2560>:
    804a:	a8 e1       	ldi	r26, 0x18	; 24
    804c:	b0 e0       	ldi	r27, 0x00	; 0
    804e:	42 e0       	ldi	r20, 0x02	; 2
    8050:	50 e0       	ldi	r21, 0x00	; 0
    8052:	0c 94 d3 40 	jmp	0x81a6	; 0x81a6 <__eerd_blraw_m2560>

00008056 <__eeupd_word_m2560>:
    8056:	01 96       	adiw	r24, 0x01	; 1
    8058:	27 2f       	mov	r18, r23
    805a:	0e 94 e2 40 	call	0x81c4	; 0x81c4 <__eeupd_r18_m2560>
    805e:	0c 94 e1 40 	jmp	0x81c2	; 0x81c2 <__eeupd_byte_m2560>

00008062 <strnlen_P>:
    8062:	fc 01       	movw	r30, r24
    8064:	05 90       	lpm	r0, Z+
    8066:	61 50       	subi	r22, 0x01	; 1
    8068:	70 40       	sbci	r23, 0x00	; 0
    806a:	01 10       	cpse	r0, r1
    806c:	d8 f7       	brcc	.-10     	; 0x8064 <strnlen_P+0x2>
    806e:	80 95       	com	r24
    8070:	90 95       	com	r25
    8072:	8e 0f       	add	r24, r30
    8074:	9f 1f       	adc	r25, r31
    8076:	08 95       	ret

00008078 <strnlen>:
    8078:	fc 01       	movw	r30, r24
    807a:	61 50       	subi	r22, 0x01	; 1
    807c:	70 40       	sbci	r23, 0x00	; 0
    807e:	01 90       	ld	r0, Z+
    8080:	01 10       	cpse	r0, r1
    8082:	d8 f7       	brcc	.-10     	; 0x807a <strnlen+0x2>
    8084:	80 95       	com	r24
    8086:	90 95       	com	r25
    8088:	8e 0f       	add	r24, r30
    808a:	9f 1f       	adc	r25, r31
    808c:	08 95       	ret

0000808e <fputc>:
    808e:	0f 93       	push	r16
    8090:	1f 93       	push	r17
    8092:	cf 93       	push	r28
    8094:	df 93       	push	r29
    8096:	8c 01       	movw	r16, r24
    8098:	eb 01       	movw	r28, r22
    809a:	8b 81       	ldd	r24, Y+3	; 0x03
    809c:	81 ff       	sbrs	r24, 1
    809e:	1b c0       	rjmp	.+54     	; 0x80d6 <fputc+0x48>
    80a0:	82 ff       	sbrs	r24, 2
    80a2:	0d c0       	rjmp	.+26     	; 0x80be <fputc+0x30>
    80a4:	2e 81       	ldd	r18, Y+6	; 0x06
    80a6:	3f 81       	ldd	r19, Y+7	; 0x07
    80a8:	8c 81       	ldd	r24, Y+4	; 0x04
    80aa:	9d 81       	ldd	r25, Y+5	; 0x05
    80ac:	28 17       	cp	r18, r24
    80ae:	39 07       	cpc	r19, r25
    80b0:	64 f4       	brge	.+24     	; 0x80ca <fputc+0x3c>
    80b2:	e8 81       	ld	r30, Y
    80b4:	f9 81       	ldd	r31, Y+1	; 0x01
    80b6:	01 93       	st	Z+, r16
    80b8:	f9 83       	std	Y+1, r31	; 0x01
    80ba:	e8 83       	st	Y, r30
    80bc:	06 c0       	rjmp	.+12     	; 0x80ca <fputc+0x3c>
    80be:	e8 85       	ldd	r30, Y+8	; 0x08
    80c0:	f9 85       	ldd	r31, Y+9	; 0x09
    80c2:	80 2f       	mov	r24, r16
    80c4:	19 95       	eicall
    80c6:	89 2b       	or	r24, r25
    80c8:	31 f4       	brne	.+12     	; 0x80d6 <fputc+0x48>
    80ca:	8e 81       	ldd	r24, Y+6	; 0x06
    80cc:	9f 81       	ldd	r25, Y+7	; 0x07
    80ce:	01 96       	adiw	r24, 0x01	; 1
    80d0:	9f 83       	std	Y+7, r25	; 0x07
    80d2:	8e 83       	std	Y+6, r24	; 0x06
    80d4:	02 c0       	rjmp	.+4      	; 0x80da <fputc+0x4c>
    80d6:	0f ef       	ldi	r16, 0xFF	; 255
    80d8:	1f ef       	ldi	r17, 0xFF	; 255
    80da:	c8 01       	movw	r24, r16
    80dc:	df 91       	pop	r29
    80de:	cf 91       	pop	r28
    80e0:	1f 91       	pop	r17
    80e2:	0f 91       	pop	r16
    80e4:	08 95       	ret

000080e6 <__ultoa_invert>:
    80e6:	fa 01       	movw	r30, r20
    80e8:	aa 27       	eor	r26, r26
    80ea:	28 30       	cpi	r18, 0x08	; 8
    80ec:	51 f1       	breq	.+84     	; 0x8142 <__ultoa_invert+0x5c>
    80ee:	20 31       	cpi	r18, 0x10	; 16
    80f0:	81 f1       	breq	.+96     	; 0x8152 <__ultoa_invert+0x6c>
    80f2:	e8 94       	clt
    80f4:	6f 93       	push	r22
    80f6:	6e 7f       	andi	r22, 0xFE	; 254
    80f8:	6e 5f       	subi	r22, 0xFE	; 254
    80fa:	7f 4f       	sbci	r23, 0xFF	; 255
    80fc:	8f 4f       	sbci	r24, 0xFF	; 255
    80fe:	9f 4f       	sbci	r25, 0xFF	; 255
    8100:	af 4f       	sbci	r26, 0xFF	; 255
    8102:	b1 e0       	ldi	r27, 0x01	; 1
    8104:	3e d0       	rcall	.+124    	; 0x8182 <__ultoa_invert+0x9c>
    8106:	b4 e0       	ldi	r27, 0x04	; 4
    8108:	3c d0       	rcall	.+120    	; 0x8182 <__ultoa_invert+0x9c>
    810a:	67 0f       	add	r22, r23
    810c:	78 1f       	adc	r23, r24
    810e:	89 1f       	adc	r24, r25
    8110:	9a 1f       	adc	r25, r26
    8112:	a1 1d       	adc	r26, r1
    8114:	68 0f       	add	r22, r24
    8116:	79 1f       	adc	r23, r25
    8118:	8a 1f       	adc	r24, r26
    811a:	91 1d       	adc	r25, r1
    811c:	a1 1d       	adc	r26, r1
    811e:	6a 0f       	add	r22, r26
    8120:	71 1d       	adc	r23, r1
    8122:	81 1d       	adc	r24, r1
    8124:	91 1d       	adc	r25, r1
    8126:	a1 1d       	adc	r26, r1
    8128:	20 d0       	rcall	.+64     	; 0x816a <__ultoa_invert+0x84>
    812a:	09 f4       	brne	.+2      	; 0x812e <__ultoa_invert+0x48>
    812c:	68 94       	set
    812e:	3f 91       	pop	r19
    8130:	2a e0       	ldi	r18, 0x0A	; 10
    8132:	26 9f       	mul	r18, r22
    8134:	11 24       	eor	r1, r1
    8136:	30 19       	sub	r19, r0
    8138:	30 5d       	subi	r19, 0xD0	; 208
    813a:	31 93       	st	Z+, r19
    813c:	de f6       	brtc	.-74     	; 0x80f4 <__ultoa_invert+0xe>
    813e:	cf 01       	movw	r24, r30
    8140:	08 95       	ret
    8142:	46 2f       	mov	r20, r22
    8144:	47 70       	andi	r20, 0x07	; 7
    8146:	40 5d       	subi	r20, 0xD0	; 208
    8148:	41 93       	st	Z+, r20
    814a:	b3 e0       	ldi	r27, 0x03	; 3
    814c:	0f d0       	rcall	.+30     	; 0x816c <__ultoa_invert+0x86>
    814e:	c9 f7       	brne	.-14     	; 0x8142 <__ultoa_invert+0x5c>
    8150:	f6 cf       	rjmp	.-20     	; 0x813e <__ultoa_invert+0x58>
    8152:	46 2f       	mov	r20, r22
    8154:	4f 70       	andi	r20, 0x0F	; 15
    8156:	40 5d       	subi	r20, 0xD0	; 208
    8158:	4a 33       	cpi	r20, 0x3A	; 58
    815a:	18 f0       	brcs	.+6      	; 0x8162 <__ultoa_invert+0x7c>
    815c:	49 5d       	subi	r20, 0xD9	; 217
    815e:	31 fd       	sbrc	r19, 1
    8160:	40 52       	subi	r20, 0x20	; 32
    8162:	41 93       	st	Z+, r20
    8164:	02 d0       	rcall	.+4      	; 0x816a <__ultoa_invert+0x84>
    8166:	a9 f7       	brne	.-22     	; 0x8152 <__ultoa_invert+0x6c>
    8168:	ea cf       	rjmp	.-44     	; 0x813e <__ultoa_invert+0x58>
    816a:	b4 e0       	ldi	r27, 0x04	; 4
    816c:	a6 95       	lsr	r26
    816e:	97 95       	ror	r25
    8170:	87 95       	ror	r24
    8172:	77 95       	ror	r23
    8174:	67 95       	ror	r22
    8176:	ba 95       	dec	r27
    8178:	c9 f7       	brne	.-14     	; 0x816c <__ultoa_invert+0x86>
    817a:	00 97       	sbiw	r24, 0x00	; 0
    817c:	61 05       	cpc	r22, r1
    817e:	71 05       	cpc	r23, r1
    8180:	08 95       	ret
    8182:	9b 01       	movw	r18, r22
    8184:	ac 01       	movw	r20, r24
    8186:	0a 2e       	mov	r0, r26
    8188:	06 94       	lsr	r0
    818a:	57 95       	ror	r21
    818c:	47 95       	ror	r20
    818e:	37 95       	ror	r19
    8190:	27 95       	ror	r18
    8192:	ba 95       	dec	r27
    8194:	c9 f7       	brne	.-14     	; 0x8188 <__ultoa_invert+0xa2>
    8196:	62 0f       	add	r22, r18
    8198:	73 1f       	adc	r23, r19
    819a:	84 1f       	adc	r24, r20
    819c:	95 1f       	adc	r25, r21
    819e:	a0 1d       	adc	r26, r0
    81a0:	08 95       	ret

000081a2 <__eerd_block_m2560>:
    81a2:	dc 01       	movw	r26, r24
    81a4:	cb 01       	movw	r24, r22

000081a6 <__eerd_blraw_m2560>:
    81a6:	fc 01       	movw	r30, r24
    81a8:	f9 99       	sbic	0x1f, 1	; 31
    81aa:	fe cf       	rjmp	.-4      	; 0x81a8 <__eerd_blraw_m2560+0x2>
    81ac:	06 c0       	rjmp	.+12     	; 0x81ba <__eerd_blraw_m2560+0x14>
    81ae:	f2 bd       	out	0x22, r31	; 34
    81b0:	e1 bd       	out	0x21, r30	; 33
    81b2:	f8 9a       	sbi	0x1f, 0	; 31
    81b4:	31 96       	adiw	r30, 0x01	; 1
    81b6:	00 b4       	in	r0, 0x20	; 32
    81b8:	0d 92       	st	X+, r0
    81ba:	41 50       	subi	r20, 0x01	; 1
    81bc:	50 40       	sbci	r21, 0x00	; 0
    81be:	b8 f7       	brcc	.-18     	; 0x81ae <__eerd_blraw_m2560+0x8>
    81c0:	08 95       	ret

000081c2 <__eeupd_byte_m2560>:
    81c2:	26 2f       	mov	r18, r22

000081c4 <__eeupd_r18_m2560>:
    81c4:	f9 99       	sbic	0x1f, 1	; 31
    81c6:	fe cf       	rjmp	.-4      	; 0x81c4 <__eeupd_r18_m2560>
    81c8:	92 bd       	out	0x22, r25	; 34
    81ca:	81 bd       	out	0x21, r24	; 33
    81cc:	f8 9a       	sbi	0x1f, 0	; 31
    81ce:	01 97       	sbiw	r24, 0x01	; 1
    81d0:	00 b4       	in	r0, 0x20	; 32
    81d2:	02 16       	cp	r0, r18
    81d4:	39 f0       	breq	.+14     	; 0x81e4 <__eeupd_r18_m2560+0x20>
    81d6:	1f ba       	out	0x1f, r1	; 31
    81d8:	20 bd       	out	0x20, r18	; 32
    81da:	0f b6       	in	r0, 0x3f	; 63
    81dc:	f8 94       	cli
    81de:	fa 9a       	sbi	0x1f, 2	; 31
    81e0:	f9 9a       	sbi	0x1f, 1	; 31
    81e2:	0f be       	out	0x3f, r0	; 63
    81e4:	08 95       	ret

000081e6 <_exit>:
    81e6:	f8 94       	cli

000081e8 <__stop_program>:
    81e8:	ff cf       	rjmp	.-2      	; 0x81e8 <__stop_program>
